
./webserver/zig-out/bin/webserver.elf:     file format elf32-i386


Disassembly of section .text:

00011000 <_start>:
   11000:	e8 0b 00 00 00       	call   11010 <main>
   11005:	f4                   	hlt
   11006:	0f 0b                	ud2
   11008:	0f 1f 84 00 00 00 00 	nopl   0x0(%eax,%eax,1)
   1100f:	00 

00011010 <main>:
   11010:	55                   	push   %ebp
   11011:	89 e5                	mov    %esp,%ebp
   11013:	e8 18 00 00 00       	call   11030 <sys.acpi.setup>
   11018:	e8 23 00 00 00       	call   11040 <device.screen.clear_screen>
   1101d:	e8 4e 00 00 00       	call   11070 <main.print_welcome>
   11022:	5d                   	pop    %ebp
   11023:	c3                   	ret
   11024:	66 2e 0f 1f 84 00 00 	nopw   %cs:0x0(%eax,%eax,1)
   1102b:	00 00 00 
   1102e:	66 90                	xchg   %ax,%ax

00011030 <sys.acpi.setup>:
   11030:	55                   	push   %ebp
   11031:	89 e5                	mov    %esp,%ebp
   11033:	e8 58 00 00 00       	call   11090 <sys.acpi.find_rsd_ptr>
   11038:	5d                   	pop    %ebp
   11039:	c3                   	ret
   1103a:	66 0f 1f 44 00 00    	nopw   0x0(%eax,%eax,1)

00011040 <device.screen.clear_screen>:
   11040:	55                   	push   %ebp
   11041:	89 e5                	mov    %esp,%ebp
   11043:	83 ec 0c             	sub    $0xc,%esp
   11046:	89 e0                	mov    %esp,%eax
   11048:	c7 40 08 a0 0f 00 00 	movl   $0xfa0,0x8(%eax)
   1104f:	c7 40 04 00 00 00 00 	movl   $0x0,0x4(%eax)
   11056:	c7 00 00 80 0b 00    	movl   $0xb8000,(%eax)
   1105c:	e8 9f b4 02 00       	call   3c500 <memset>
   11061:	83 c4 0c             	add    $0xc,%esp
   11064:	5d                   	pop    %ebp
   11065:	c3                   	ret
   11066:	66 2e 0f 1f 84 00 00 	nopw   %cs:0x0(%eax,%eax,1)
   1106d:	00 00 00 

00011070 <main.print_welcome>:
   11070:	55                   	push   %ebp
   11071:	89 e5                	mov    %esp,%ebp
   11073:	b9 96 ee 03 00       	mov    $0x3ee96,%ecx
   11078:	ba 01 00 00 00       	mov    $0x1,%edx
   1107d:	e8 2e 01 00 00       	call   111b0 <device.screen.println>
   11082:	5d                   	pop    %ebp
   11083:	c3                   	ret
   11084:	66 2e 0f 1f 84 00 00 	nopw   %cs:0x0(%eax,%eax,1)
   1108b:	00 00 00 
   1108e:	66 90                	xchg   %ax,%ax

00011090 <sys.acpi.find_rsd_ptr>:
   11090:	55                   	push   %ebp
   11091:	89 e5                	mov    %esp,%ebp
   11093:	56                   	push   %esi
   11094:	83 ec 2c             	sub    $0x2c,%esp
   11097:	e8 d4 0a 00 00       	call   11b70 <debug.print__anon_990>
   1109c:	c7 45 e4 00 00 0e 00 	movl   $0xe0000,-0x1c(%ebp)
   110a3:	eb 0d                	jmp    110b2 <sys.acpi.find_rsd_ptr+0x22>
   110a5:	e8 26 0e 00 00       	call   11ed0 <debug.print__anon_1263>
   110aa:	31 c0                	xor    %eax,%eax
   110ac:	83 c4 2c             	add    $0x2c,%esp
   110af:	5e                   	pop    %esi
   110b0:	5d                   	pop    %ebp
   110b1:	c3                   	ret
   110b2:	81 7d e4 ff ff 0f 00 	cmpl   $0xfffff,-0x1c(%ebp)
   110b9:	72 04                	jb     110bf <sys.acpi.find_rsd_ptr+0x2f>
   110bb:	eb 0f                	jmp    110cc <sys.acpi.find_rsd_ptr+0x3c>
   110bd:	eb f3                	jmp    110b2 <sys.acpi.find_rsd_ptr+0x22>
   110bf:	8b 45 e4             	mov    -0x1c(%ebp),%eax
   110c2:	89 45 e0             	mov    %eax,-0x20(%ebp)
   110c5:	83 f8 00             	cmp    $0x0,%eax
   110c8:	75 2c                	jne    110f6 <sys.acpi.find_rsd_ptr+0x66>
   110ca:	eb 2c                	jmp    110f8 <sys.acpi.find_rsd_ptr+0x68>
   110cc:	eb d7                	jmp    110a5 <sys.acpi.find_rsd_ptr+0x15>
   110ce:	8b 45 e4             	mov    -0x1c(%ebp),%eax
   110d1:	83 c0 10             	add    $0x10,%eax
   110d4:	89 45 dc             	mov    %eax,-0x24(%ebp)
   110d7:	0f 92 c0             	setb   %al
   110da:	0f 82 95 00 00 00    	jb     11175 <sys.acpi.find_rsd_ptr+0xe5>
   110e0:	e9 b3 00 00 00       	jmp    11198 <sys.acpi.find_rsd_ptr+0x108>
   110e5:	8b 45 e0             	mov    -0x20(%ebp),%eax
   110e8:	89 45 e8             	mov    %eax,-0x18(%ebp)
   110eb:	89 45 ec             	mov    %eax,-0x14(%ebp)
   110ee:	8b 45 e8             	mov    -0x18(%ebp),%eax
   110f1:	89 45 d8             	mov    %eax,-0x28(%ebp)
   110f4:	eb 53                	jmp    11149 <sys.acpi.find_rsd_ptr+0xb9>
   110f6:	eb ed                	jmp    110e5 <sys.acpi.find_rsd_ptr+0x55>
   110f8:	b9 38 ef 03 00       	mov    $0x3ef38,%ecx
   110fd:	ba 1e 00 00 00       	mov    $0x1e,%edx
   11102:	31 c0                	xor    %eax,%eax
   11104:	8d 05 b8 ea 03 00    	lea    0x3eab8,%eax
   1110a:	c7 04 24 00 00 00 00 	movl   $0x0,(%esp)
   11111:	89 44 24 04          	mov    %eax,0x4(%esp)
   11115:	e8 96 0b 00 00       	call   11cb0 <builtin.default_panic>
   1111a:	8b 4d d8             	mov    -0x28(%ebp),%ecx
   1111d:	89 4d f0             	mov    %ecx,-0x10(%ebp)
   11120:	ba 10 00 00 00       	mov    $0x10,%edx
   11125:	be ca ee 03 00       	mov    $0x3eeca,%esi
   1112a:	b8 08 00 00 00       	mov    $0x8,%eax
   1112f:	89 34 24             	mov    %esi,(%esp)
   11132:	89 44 24 04          	mov    %eax,0x4(%esp)
   11136:	e8 c5 0b 00 00       	call   11d00 <mem.eql__anon_1261>
   1113b:	88 c1                	mov    %al,%cl
   1113d:	80 e1 01             	and    $0x1,%cl
   11140:	88 4d f7             	mov    %cl,-0x9(%ebp)
   11143:	a8 01                	test   $0x1,%al
   11145:	75 15                	jne    1115c <sys.acpi.find_rsd_ptr+0xcc>
   11147:	eb 2a                	jmp    11173 <sys.acpi.find_rsd_ptr+0xe3>
   11149:	eb cf                	jmp    1111a <sys.acpi.find_rsd_ptr+0x8a>
   1114b:	ba 10 00 00 00       	mov    $0x10,%edx
   11150:	89 d1                	mov    %edx,%ecx
   11152:	e8 79 0b 00 00       	call   11cd0 <builtin.panicOutOfBounds>
   11157:	e9 72 ff ff ff       	jmp    110ce <sys.acpi.find_rsd_ptr+0x3e>
   1115c:	8b 45 e0             	mov    -0x20(%ebp),%eax
   1115f:	89 45 f8             	mov    %eax,-0x8(%ebp)
   11162:	8d 4d f8             	lea    -0x8(%ebp),%ecx
   11165:	e8 16 0c 00 00       	call   11d80 <debug.print__anon_1262>
   1116a:	8b 45 e4             	mov    -0x1c(%ebp),%eax
   1116d:	83 c4 2c             	add    $0x2c,%esp
   11170:	5e                   	pop    %esi
   11171:	5d                   	pop    %ebp
   11172:	c3                   	ret
   11173:	eb e2                	jmp    11157 <sys.acpi.find_rsd_ptr+0xc7>
   11175:	8d 0d d3 ee 03 00    	lea    0x3eed3,%ecx
   1117b:	ba 10 00 00 00       	mov    $0x10,%edx
   11180:	31 c0                	xor    %eax,%eax
   11182:	8d 05 b8 ea 03 00    	lea    0x3eab8,%eax
   11188:	c7 04 24 00 00 00 00 	movl   $0x0,(%esp)
   1118f:	89 44 24 04          	mov    %eax,0x4(%esp)
   11193:	e8 18 0b 00 00       	call   11cb0 <builtin.default_panic>
   11198:	8b 45 dc             	mov    -0x24(%ebp),%eax
   1119b:	89 45 e4             	mov    %eax,-0x1c(%ebp)
   1119e:	e9 1a ff ff ff       	jmp    110bd <sys.acpi.find_rsd_ptr+0x2d>
   111a3:	66 2e 0f 1f 84 00 00 	nopw   %cs:0x0(%eax,%eax,1)
   111aa:	00 00 00 
   111ad:	0f 1f 00             	nopl   (%eax)

000111b0 <device.screen.println>:
   111b0:	55                   	push   %ebp
   111b1:	89 e5                	mov    %esp,%ebp
   111b3:	57                   	push   %edi
   111b4:	56                   	push   %esi
   111b5:	81 ec 94 01 00 00    	sub    $0x194,%esp
   111bb:	89 d0                	mov    %edx,%eax
   111bd:	89 85 fc fe ff ff    	mov    %eax,-0x104(%ebp)
   111c3:	89 c8                	mov    %ecx,%eax
   111c5:	89 85 00 ff ff ff    	mov    %eax,-0x100(%ebp)
   111cb:	89 95 08 ff ff ff    	mov    %edx,-0xf8(%ebp)
   111d1:	89 8d 04 ff ff ff    	mov    %ecx,-0xfc(%ebp)
   111d7:	f6 05 2c 0d 04 00 01 	testb  $0x1,0x40d2c
   111de:	75 2e                	jne    1120e <device.screen.println+0x5e>
   111e0:	eb 45                	jmp    11227 <device.screen.println+0x77>
   111e2:	8d 8d 3c ff ff ff    	lea    -0xc4(%ebp),%ecx
   111e8:	8d 05 1e e1 03 00    	lea    0x3e11e,%eax
   111ee:	89 0c 24             	mov    %ecx,(%esp)
   111f1:	89 44 24 04          	mov    %eax,0x4(%esp)
   111f5:	c7 44 24 08 a0 00 00 	movl   $0xa0,0x8(%esp)
   111fc:	00 
   111fd:	e8 0e b2 02 00       	call   3c410 <memcpy>
   11202:	c7 45 dc 00 00 00 00 	movl   $0x0,-0x24(%ebp)
   11209:	e9 16 05 00 00       	jmp    11724 <device.screen.println+0x574>
   1120e:	c7 85 0c ff ff ff 00 	movl   $0x0,-0xf4(%ebp)
   11215:	00 00 00 
   11218:	0f b7 05 2e 0d 04 00 	movzwl 0x40d2e,%eax
   1121f:	89 85 f8 fe ff ff    	mov    %eax,-0x108(%ebp)
   11225:	eb 04                	jmp    1122b <device.screen.println+0x7b>
   11227:	eb b9                	jmp    111e2 <device.screen.println+0x32>
   11229:	eb b7                	jmp    111e2 <device.screen.println+0x32>
   1122b:	8b 8d f8 fe ff ff    	mov    -0x108(%ebp),%ecx
   11231:	8b 85 0c ff ff ff    	mov    -0xf4(%ebp),%eax
   11237:	89 85 f4 fe ff ff    	mov    %eax,-0x10c(%ebp)
   1123d:	39 c8                	cmp    %ecx,%eax
   1123f:	72 13                	jb     11254 <device.screen.println+0xa4>
   11241:	eb 26                	jmp    11269 <device.screen.println+0xb9>
   11243:	8b 85 f4 fe ff ff    	mov    -0x10c(%ebp),%eax
   11249:	83 c0 01             	add    $0x1,%eax
   1124c:	89 85 0c ff ff ff    	mov    %eax,-0xf4(%ebp)
   11252:	eb d7                	jmp    1122b <device.screen.println+0x7b>
   11254:	8b 85 f4 fe ff ff    	mov    -0x10c(%ebp),%eax
   1125a:	89 85 10 ff ff ff    	mov    %eax,-0xf0(%ebp)
   11260:	3d ff ff 00 00       	cmp    $0xffff,%eax
   11265:	76 36                	jbe    1129d <device.screen.println+0xed>
   11267:	eb 36                	jmp    1129f <device.screen.println+0xef>
   11269:	eb be                	jmp    11229 <device.screen.println+0x79>
   1126b:	8b 85 f4 fe ff ff    	mov    -0x10c(%ebp),%eax
   11271:	31 d2                	xor    %edx,%edx
   11273:	0f b7 c8             	movzwl %ax,%ecx
   11276:	e8 95 0d 00 00       	call   12010 <device.screen.get_video_mode_3_byte_offset>
   1127b:	66 89 85 f0 fe ff ff 	mov    %ax,-0x110(%ebp)
   11282:	66 89 85 16 ff ff ff 	mov    %ax,-0xea(%ebp)
   11289:	66 05 a0 00          	add    $0xa0,%ax
   1128d:	66 89 85 f2 fe ff ff 	mov    %ax,-0x10e(%ebp)
   11294:	0f 92 c0             	setb   %al
   11297:	a8 01                	test   $0x1,%al
   11299:	75 26                	jne    112c1 <device.screen.println+0x111>
   1129b:	eb 47                	jmp    112e4 <device.screen.println+0x134>
   1129d:	eb cc                	jmp    1126b <device.screen.println+0xbb>
   1129f:	b9 57 ef 03 00       	mov    $0x3ef57,%ecx
   112a4:	ba 1b 00 00 00       	mov    $0x1b,%edx
   112a9:	31 c0                	xor    %eax,%eax
   112ab:	8d 05 b8 ea 03 00    	lea    0x3eab8,%eax
   112b1:	c7 04 24 00 00 00 00 	movl   $0x0,(%esp)
   112b8:	89 44 24 04          	mov    %eax,0x4(%esp)
   112bc:	e8 ef 09 00 00       	call   11cb0 <builtin.default_panic>
   112c1:	8d 0d d3 ee 03 00    	lea    0x3eed3,%ecx
   112c7:	ba 10 00 00 00       	mov    $0x10,%edx
   112cc:	31 c0                	xor    %eax,%eax
   112ce:	8d 05 b8 ea 03 00    	lea    0x3eab8,%eax
   112d4:	c7 04 24 00 00 00 00 	movl   $0x0,(%esp)
   112db:	89 44 24 04          	mov    %eax,0x4(%esp)
   112df:	e8 cc 09 00 00       	call   11cb0 <builtin.default_panic>
   112e4:	66 8b 8d f2 fe ff ff 	mov    -0x10e(%ebp),%cx
   112eb:	66 8b 85 f0 fe ff ff 	mov    -0x110(%ebp),%ax
   112f2:	0f b7 c0             	movzwl %ax,%eax
   112f5:	89 85 e4 fe ff ff    	mov    %eax,-0x11c(%ebp)
   112fb:	ba 00 80 0b 00       	mov    $0xb8000,%edx
   11300:	01 c2                	add    %eax,%edx
   11302:	89 95 e8 fe ff ff    	mov    %edx,-0x118(%ebp)
   11308:	0f b7 c9             	movzwl %cx,%ecx
   1130b:	89 8d ec fe ff ff    	mov    %ecx,-0x114(%ebp)
   11311:	39 c8                	cmp    %ecx,%eax
   11313:	76 21                	jbe    11336 <device.screen.println+0x186>
   11315:	eb 21                	jmp    11338 <device.screen.println+0x188>
   11317:	8b 85 ec fe ff ff    	mov    -0x114(%ebp),%eax
   1131d:	8b 95 e4 fe ff ff    	mov    -0x11c(%ebp),%edx
   11323:	89 c1                	mov    %eax,%ecx
   11325:	29 d1                	sub    %edx,%ecx
   11327:	89 8d e0 fe ff ff    	mov    %ecx,-0x120(%ebp)
   1132d:	3d a0 0f 00 00       	cmp    $0xfa0,%eax
   11332:	76 27                	jbe    1135b <device.screen.println+0x1ab>
   11334:	eb 27                	jmp    1135d <device.screen.println+0x1ad>
   11336:	eb df                	jmp    11317 <device.screen.println+0x167>
   11338:	8b 95 ec fe ff ff    	mov    -0x114(%ebp),%edx
   1133e:	8b 8d e4 fe ff ff    	mov    -0x11c(%ebp),%ecx
   11344:	e8 27 0d 00 00       	call   12070 <builtin.panicStartGreaterThanEnd>
   11349:	8b 85 e4 fe ff ff    	mov    -0x11c(%ebp),%eax
   1134f:	8b 8d ec fe ff ff    	mov    -0x114(%ebp),%ecx
   11355:	39 c8                	cmp    %ecx,%eax
   11357:	76 55                	jbe    113ae <device.screen.println+0x1fe>
   11359:	eb 55                	jmp    113b0 <device.screen.println+0x200>
   1135b:	eb ec                	jmp    11349 <device.screen.println+0x199>
   1135d:	8b 8d ec fe ff ff    	mov    -0x114(%ebp),%ecx
   11363:	ba a0 0f 00 00       	mov    $0xfa0,%edx
   11368:	e8 63 09 00 00       	call   11cd0 <builtin.panicOutOfBounds>
   1136d:	8b 85 f4 fe ff ff    	mov    -0x10c(%ebp),%eax
   11373:	8b 8d e8 fe ff ff    	mov    -0x118(%ebp),%ecx
   11379:	8b 95 e0 fe ff ff    	mov    -0x120(%ebp),%edx
   1137f:	89 d6                	mov    %edx,%esi
   11381:	89 b5 d8 fe ff ff    	mov    %esi,-0x128(%ebp)
   11387:	89 ce                	mov    %ecx,%esi
   11389:	89 b5 dc fe ff ff    	mov    %esi,-0x124(%ebp)
   1138f:	89 95 1c ff ff ff    	mov    %edx,-0xe4(%ebp)
   11395:	89 8d 18 ff ff ff    	mov    %ecx,-0xe8(%ebp)
   1139b:	89 95 24 ff ff ff    	mov    %edx,-0xdc(%ebp)
   113a1:	89 8d 20 ff ff ff    	mov    %ecx,-0xe0(%ebp)
   113a7:	83 f8 18             	cmp    $0x18,%eax
   113aa:	72 24                	jb     113d0 <device.screen.println+0x220>
   113ac:	eb 38                	jmp    113e6 <device.screen.println+0x236>
   113ae:	eb bd                	jmp    1136d <device.screen.println+0x1bd>
   113b0:	8b 95 ec fe ff ff    	mov    -0x114(%ebp),%edx
   113b6:	8b 8d e4 fe ff ff    	mov    -0x11c(%ebp),%ecx
   113bc:	e8 0f 09 00 00       	call   11cd0 <builtin.panicOutOfBounds>
   113c1:	c7 85 34 ff ff ff 00 	movl   $0x0,-0xcc(%ebp)
   113c8:	00 00 00 
   113cb:	e9 2c 02 00 00       	jmp    115fc <device.screen.println+0x44c>
   113d0:	8b 85 f4 fe ff ff    	mov    -0x10c(%ebp),%eax
   113d6:	83 c0 01             	add    $0x1,%eax
   113d9:	89 85 d4 fe ff ff    	mov    %eax,-0x12c(%ebp)
   113df:	0f 92 c0             	setb   %al
   113e2:	72 04                	jb     113e8 <device.screen.println+0x238>
   113e4:	eb 25                	jmp    1140b <device.screen.println+0x25b>
   113e6:	eb d9                	jmp    113c1 <device.screen.println+0x211>
   113e8:	8d 0d d3 ee 03 00    	lea    0x3eed3,%ecx
   113ee:	ba 10 00 00 00       	mov    $0x10,%edx
   113f3:	31 c0                	xor    %eax,%eax
   113f5:	8d 05 b8 ea 03 00    	lea    0x3eab8,%eax
   113fb:	c7 04 24 00 00 00 00 	movl   $0x0,(%esp)
   11402:	89 44 24 04          	mov    %eax,0x4(%esp)
   11406:	e8 a5 08 00 00       	call   11cb0 <builtin.default_panic>
   1140b:	8b 85 d4 fe ff ff    	mov    -0x12c(%ebp),%eax
   11411:	3d ff ff 00 00       	cmp    $0xffff,%eax
   11416:	76 34                	jbe    1144c <device.screen.println+0x29c>
   11418:	eb 34                	jmp    1144e <device.screen.println+0x29e>
   1141a:	8b 85 d4 fe ff ff    	mov    -0x12c(%ebp),%eax
   11420:	31 d2                	xor    %edx,%edx
   11422:	0f b7 c8             	movzwl %ax,%ecx
   11425:	e8 e6 0b 00 00       	call   12010 <device.screen.get_video_mode_3_byte_offset>
   1142a:	66 89 85 d0 fe ff ff 	mov    %ax,-0x130(%ebp)
   11431:	66 89 85 2a ff ff ff 	mov    %ax,-0xd6(%ebp)
   11438:	66 05 a0 00          	add    $0xa0,%ax
   1143c:	66 89 85 d2 fe ff ff 	mov    %ax,-0x12e(%ebp)
   11443:	0f 92 c0             	setb   %al
   11446:	a8 01                	test   $0x1,%al
   11448:	75 26                	jne    11470 <device.screen.println+0x2c0>
   1144a:	eb 47                	jmp    11493 <device.screen.println+0x2e3>
   1144c:	eb cc                	jmp    1141a <device.screen.println+0x26a>
   1144e:	b9 57 ef 03 00       	mov    $0x3ef57,%ecx
   11453:	ba 1b 00 00 00       	mov    $0x1b,%edx
   11458:	31 c0                	xor    %eax,%eax
   1145a:	8d 05 b8 ea 03 00    	lea    0x3eab8,%eax
   11460:	c7 04 24 00 00 00 00 	movl   $0x0,(%esp)
   11467:	89 44 24 04          	mov    %eax,0x4(%esp)
   1146b:	e8 40 08 00 00       	call   11cb0 <builtin.default_panic>
   11470:	8d 0d d3 ee 03 00    	lea    0x3eed3,%ecx
   11476:	ba 10 00 00 00       	mov    $0x10,%edx
   1147b:	31 c0                	xor    %eax,%eax
   1147d:	8d 05 b8 ea 03 00    	lea    0x3eab8,%eax
   11483:	c7 04 24 00 00 00 00 	movl   $0x0,(%esp)
   1148a:	89 44 24 04          	mov    %eax,0x4(%esp)
   1148e:	e8 1d 08 00 00       	call   11cb0 <builtin.default_panic>
   11493:	66 8b 8d d2 fe ff ff 	mov    -0x12e(%ebp),%cx
   1149a:	66 8b 85 d0 fe ff ff 	mov    -0x130(%ebp),%ax
   114a1:	0f b7 c0             	movzwl %ax,%eax
   114a4:	89 85 c4 fe ff ff    	mov    %eax,-0x13c(%ebp)
   114aa:	ba 00 80 0b 00       	mov    $0xb8000,%edx
   114af:	01 c2                	add    %eax,%edx
   114b1:	89 95 c8 fe ff ff    	mov    %edx,-0x138(%ebp)
   114b7:	0f b7 c9             	movzwl %cx,%ecx
   114ba:	89 8d cc fe ff ff    	mov    %ecx,-0x134(%ebp)
   114c0:	39 c8                	cmp    %ecx,%eax
   114c2:	76 21                	jbe    114e5 <device.screen.println+0x335>
   114c4:	eb 21                	jmp    114e7 <device.screen.println+0x337>
   114c6:	8b 85 cc fe ff ff    	mov    -0x134(%ebp),%eax
   114cc:	8b 95 c4 fe ff ff    	mov    -0x13c(%ebp),%edx
   114d2:	89 c1                	mov    %eax,%ecx
   114d4:	29 d1                	sub    %edx,%ecx
   114d6:	89 8d c0 fe ff ff    	mov    %ecx,-0x140(%ebp)
   114dc:	3d a0 0f 00 00       	cmp    $0xfa0,%eax
   114e1:	76 27                	jbe    1150a <device.screen.println+0x35a>
   114e3:	eb 27                	jmp    1150c <device.screen.println+0x35c>
   114e5:	eb df                	jmp    114c6 <device.screen.println+0x316>
   114e7:	8b 95 cc fe ff ff    	mov    -0x134(%ebp),%edx
   114ed:	8b 8d c4 fe ff ff    	mov    -0x13c(%ebp),%ecx
   114f3:	e8 78 0b 00 00       	call   12070 <builtin.panicStartGreaterThanEnd>
   114f8:	8b 85 c4 fe ff ff    	mov    -0x13c(%ebp),%eax
   114fe:	8b 8d cc fe ff ff    	mov    -0x134(%ebp),%ecx
   11504:	39 c8                	cmp    %ecx,%eax
   11506:	76 42                	jbe    1154a <device.screen.println+0x39a>
   11508:	eb 42                	jmp    1154c <device.screen.println+0x39c>
   1150a:	eb ec                	jmp    114f8 <device.screen.println+0x348>
   1150c:	8b 8d cc fe ff ff    	mov    -0x134(%ebp),%ecx
   11512:	ba a0 0f 00 00       	mov    $0xfa0,%edx
   11517:	e8 b4 07 00 00       	call   11cd0 <builtin.panicOutOfBounds>
   1151c:	8b 85 d8 fe ff ff    	mov    -0x128(%ebp),%eax
   11522:	8b 95 c8 fe ff ff    	mov    -0x138(%ebp),%edx
   11528:	8b b5 c0 fe ff ff    	mov    -0x140(%ebp),%esi
   1152e:	89 f1                	mov    %esi,%ecx
   11530:	89 d7                	mov    %edx,%edi
   11532:	89 bd bc fe ff ff    	mov    %edi,-0x144(%ebp)
   11538:	89 b5 30 ff ff ff    	mov    %esi,-0xd0(%ebp)
   1153e:	89 95 2c ff ff ff    	mov    %edx,-0xd4(%ebp)
   11544:	39 c8                	cmp    %ecx,%eax
   11546:	74 41                	je     11589 <device.screen.println+0x3d9>
   11548:	eb 41                	jmp    1158b <device.screen.println+0x3db>
   1154a:	eb d0                	jmp    1151c <device.screen.println+0x36c>
   1154c:	8b 95 cc fe ff ff    	mov    -0x134(%ebp),%edx
   11552:	8b 8d c4 fe ff ff    	mov    -0x13c(%ebp),%ecx
   11558:	e8 73 07 00 00       	call   11cd0 <builtin.panicOutOfBounds>
   1155d:	8b 8d bc fe ff ff    	mov    -0x144(%ebp),%ecx
   11563:	8b 85 dc fe ff ff    	mov    -0x124(%ebp),%eax
   11569:	8b bd d8 fe ff ff    	mov    -0x128(%ebp),%edi
   1156f:	89 ce                	mov    %ecx,%esi
   11571:	01 fe                	add    %edi,%esi
   11573:	89 c2                	mov    %eax,%edx
   11575:	01 fa                	add    %edi,%edx
   11577:	39 f0                	cmp    %esi,%eax
   11579:	0f 93 c0             	setae  %al
   1157c:	39 d1                	cmp    %edx,%ecx
   1157e:	0f 93 c1             	setae  %cl
   11581:	08 c8                	or     %cl,%al
   11583:	a8 01                	test   $0x1,%al
   11585:	75 4c                	jne    115d3 <device.screen.println+0x423>
   11587:	eb 4c                	jmp    115d5 <device.screen.println+0x425>
   11589:	eb d2                	jmp    1155d <device.screen.println+0x3ad>
   1158b:	b9 c8 ef 03 00       	mov    $0x3efc8,%ecx
   11590:	ba 28 00 00 00       	mov    $0x28,%edx
   11595:	31 c0                	xor    %eax,%eax
   11597:	8d 05 b8 ea 03 00    	lea    0x3eab8,%eax
   1159d:	c7 04 24 00 00 00 00 	movl   $0x0,(%esp)
   115a4:	89 44 24 04          	mov    %eax,0x4(%esp)
   115a8:	e8 03 07 00 00       	call   11cb0 <builtin.default_panic>
   115ad:	8b 8d dc fe ff ff    	mov    -0x124(%ebp),%ecx
   115b3:	8b 95 bc fe ff ff    	mov    -0x144(%ebp),%edx
   115b9:	8b b5 d8 fe ff ff    	mov    -0x128(%ebp),%esi
   115bf:	89 e0                	mov    %esp,%eax
   115c1:	89 70 08             	mov    %esi,0x8(%eax)
   115c4:	89 50 04             	mov    %edx,0x4(%eax)
   115c7:	89 08                	mov    %ecx,(%eax)
   115c9:	e8 42 ae 02 00       	call   3c410 <memcpy>
   115ce:	e9 ee fd ff ff       	jmp    113c1 <device.screen.println+0x211>
   115d3:	eb d8                	jmp    115ad <device.screen.println+0x3fd>
   115d5:	b9 13 f0 03 00       	mov    $0x3f013,%ecx
   115da:	ba 17 00 00 00       	mov    $0x17,%edx
   115df:	31 c0                	xor    %eax,%eax
   115e1:	8d 05 b8 ea 03 00    	lea    0x3eab8,%eax
   115e7:	c7 04 24 00 00 00 00 	movl   $0x0,(%esp)
   115ee:	89 44 24 04          	mov    %eax,0x4(%esp)
   115f2:	e8 b9 06 00 00       	call   11cb0 <builtin.default_panic>
   115f7:	e9 47 fc ff ff       	jmp    11243 <device.screen.println+0x93>
   115fc:	8b 85 34 ff ff ff    	mov    -0xcc(%ebp),%eax
   11602:	89 85 b8 fe ff ff    	mov    %eax,-0x148(%ebp)
   11608:	83 f8 50             	cmp    $0x50,%eax
   1160b:	72 13                	jb     11620 <device.screen.println+0x470>
   1160d:	eb 31                	jmp    11640 <device.screen.println+0x490>
   1160f:	8b 85 b8 fe ff ff    	mov    -0x148(%ebp),%eax
   11615:	83 c0 01             	add    $0x1,%eax
   11618:	89 85 34 ff ff ff    	mov    %eax,-0xcc(%ebp)
   1161e:	eb dc                	jmp    115fc <device.screen.println+0x44c>
   11620:	8b 85 b8 fe ff ff    	mov    -0x148(%ebp),%eax
   11626:	89 85 38 ff ff ff    	mov    %eax,-0xc8(%ebp)
   1162c:	b9 02 00 00 00       	mov    $0x2,%ecx
   11631:	f7 e1                	mul    %ecx
   11633:	89 85 b4 fe ff ff    	mov    %eax,-0x14c(%ebp)
   11639:	0f 90 c0             	seto   %al
   1163c:	70 04                	jo     11642 <device.screen.println+0x492>
   1163e:	eb 25                	jmp    11665 <device.screen.println+0x4b5>
   11640:	eb b5                	jmp    115f7 <device.screen.println+0x447>
   11642:	8d 0d d3 ee 03 00    	lea    0x3eed3,%ecx
   11648:	ba 10 00 00 00       	mov    $0x10,%edx
   1164d:	31 c0                	xor    %eax,%eax
   1164f:	8d 05 b8 ea 03 00    	lea    0x3eab8,%eax
   11655:	c7 04 24 00 00 00 00 	movl   $0x0,(%esp)
   1165c:	89 44 24 04          	mov    %eax,0x4(%esp)
   11660:	e8 4b 06 00 00       	call   11cb0 <builtin.default_panic>
   11665:	8b 85 b4 fe ff ff    	mov    -0x14c(%ebp),%eax
   1166b:	83 c0 01             	add    $0x1,%eax
   1166e:	89 85 b0 fe ff ff    	mov    %eax,-0x150(%ebp)
   11674:	0f 92 c0             	setb   %al
   11677:	72 02                	jb     1167b <device.screen.println+0x4cb>
   11679:	eb 23                	jmp    1169e <device.screen.println+0x4ee>
   1167b:	8d 0d d3 ee 03 00    	lea    0x3eed3,%ecx
   11681:	ba 10 00 00 00       	mov    $0x10,%edx
   11686:	31 c0                	xor    %eax,%eax
   11688:	8d 05 b8 ea 03 00    	lea    0x3eab8,%eax
   1168e:	c7 04 24 00 00 00 00 	movl   $0x0,(%esp)
   11695:	89 44 24 04          	mov    %eax,0x4(%esp)
   11699:	e8 12 06 00 00       	call   11cb0 <builtin.default_panic>
   1169e:	8b 85 b0 fe ff ff    	mov    -0x150(%ebp),%eax
   116a4:	89 85 a4 fe ff ff    	mov    %eax,-0x15c(%ebp)
   116aa:	8b 8d 18 ff ff ff    	mov    -0xe8(%ebp),%ecx
   116b0:	89 8d a8 fe ff ff    	mov    %ecx,-0x158(%ebp)
   116b6:	8b 8d 1c ff ff ff    	mov    -0xe4(%ebp),%ecx
   116bc:	89 8d ac fe ff ff    	mov    %ecx,-0x154(%ebp)
   116c2:	39 c8                	cmp    %ecx,%eax
   116c4:	72 17                	jb     116dd <device.screen.println+0x52d>
   116c6:	eb 17                	jmp    116df <device.screen.println+0x52f>
   116c8:	8b 85 a8 fe ff ff    	mov    -0x158(%ebp),%eax
   116ce:	8b 8d a4 fe ff ff    	mov    -0x15c(%ebp),%ecx
   116d4:	c6 04 08 0f          	movb   $0xf,(%eax,%ecx,1)
   116d8:	e9 32 ff ff ff       	jmp    1160f <device.screen.println+0x45f>
   116dd:	eb e9                	jmp    116c8 <device.screen.println+0x518>
   116df:	8b 95 ac fe ff ff    	mov    -0x154(%ebp),%edx
   116e5:	8b 8d a4 fe ff ff    	mov    -0x15c(%ebp),%ecx
   116eb:	e8 e0 05 00 00       	call   11cd0 <builtin.panicOutOfBounds>
   116f0:	31 d2                	xor    %edx,%edx
   116f2:	0f b7 0d 2e 0d 04 00 	movzwl 0x40d2e,%ecx
   116f9:	e8 12 09 00 00       	call   12010 <device.screen.get_video_mode_3_byte_offset>
   116fe:	66 89 85 a0 fe ff ff 	mov    %ax,-0x160(%ebp)
   11705:	66 89 45 ee          	mov    %ax,-0x12(%ebp)
   11709:	66 05 a0 00          	add    $0xa0,%ax
   1170d:	66 89 85 a2 fe ff ff 	mov    %ax,-0x15e(%ebp)
   11714:	0f 92 c0             	setb   %al
   11717:	a8 01                	test   $0x1,%al
   11719:	0f 85 b3 01 00 00    	jne    118d2 <device.screen.println+0x722>
   1171f:	e9 d1 01 00 00       	jmp    118f5 <device.screen.println+0x745>
   11724:	8b 45 dc             	mov    -0x24(%ebp),%eax
   11727:	89 85 9c fe ff ff    	mov    %eax,-0x164(%ebp)
   1172d:	83 f8 4a             	cmp    $0x4a,%eax
   11730:	72 10                	jb     11742 <device.screen.println+0x592>
   11732:	eb 23                	jmp    11757 <device.screen.println+0x5a7>
   11734:	8b 85 9c fe ff ff    	mov    -0x164(%ebp),%eax
   1173a:	83 c0 01             	add    $0x1,%eax
   1173d:	89 45 dc             	mov    %eax,-0x24(%ebp)
   11740:	eb e2                	jmp    11724 <device.screen.println+0x574>
   11742:	8b 85 9c fe ff ff    	mov    -0x164(%ebp),%eax
   11748:	8b 8d fc fe ff ff    	mov    -0x104(%ebp),%ecx
   1174e:	89 45 e0             	mov    %eax,-0x20(%ebp)
   11751:	39 c8                	cmp    %ecx,%eax
   11753:	72 39                	jb     1178e <device.screen.println+0x5de>
   11755:	eb 49                	jmp    117a0 <device.screen.println+0x5f0>
   11757:	eb 97                	jmp    116f0 <device.screen.println+0x540>
   11759:	8a 85 96 fe ff ff    	mov    -0x16a(%ebp),%al
   1175f:	88 85 97 fe ff ff    	mov    %al,-0x169(%ebp)
   11765:	88 45 e7             	mov    %al,-0x19(%ebp)
   11768:	ba a0 00 00 00       	mov    $0xa0,%edx
   1176d:	8d 8d 3c ff ff ff    	lea    -0xc4(%ebp),%ecx
   11773:	e8 28 09 00 00       	call   120a0 <device.screen.write_line_number>
   11778:	8b 85 9c fe ff ff    	mov    -0x164(%ebp),%eax
   1177e:	83 c0 06             	add    $0x6,%eax
   11781:	89 85 98 fe ff ff    	mov    %eax,-0x168(%ebp)
   11787:	0f 92 c0             	setb   %al
   1178a:	72 48                	jb     117d4 <device.screen.println+0x624>
   1178c:	eb 69                	jmp    117f7 <device.screen.println+0x647>
   1178e:	8b 85 9c fe ff ff    	mov    -0x164(%ebp),%eax
   11794:	8b 8d fc fe ff ff    	mov    -0x104(%ebp),%ecx
   1179a:	39 c8                	cmp    %ecx,%eax
   1179c:	72 23                	jb     117c1 <device.screen.println+0x611>
   1179e:	eb 23                	jmp    117c3 <device.screen.println+0x613>
   117a0:	b0 20                	mov    $0x20,%al
   117a2:	88 85 96 fe ff ff    	mov    %al,-0x16a(%ebp)
   117a8:	eb af                	jmp    11759 <device.screen.println+0x5a9>
   117aa:	8b 85 00 ff ff ff    	mov    -0x100(%ebp),%eax
   117b0:	8b 8d 9c fe ff ff    	mov    -0x164(%ebp),%ecx
   117b6:	8a 04 08             	mov    (%eax,%ecx,1),%al
   117b9:	88 85 96 fe ff ff    	mov    %al,-0x16a(%ebp)
   117bf:	eb 98                	jmp    11759 <device.screen.println+0x5a9>
   117c1:	eb e7                	jmp    117aa <device.screen.println+0x5fa>
   117c3:	8b 95 fc fe ff ff    	mov    -0x104(%ebp),%edx
   117c9:	8b 8d 9c fe ff ff    	mov    -0x164(%ebp),%ecx
   117cf:	e8 fc 04 00 00       	call   11cd0 <builtin.panicOutOfBounds>
   117d4:	8d 0d d3 ee 03 00    	lea    0x3eed3,%ecx
   117da:	ba 10 00 00 00       	mov    $0x10,%edx
   117df:	31 c0                	xor    %eax,%eax
   117e1:	8d 05 b8 ea 03 00    	lea    0x3eab8,%eax
   117e7:	c7 04 24 00 00 00 00 	movl   $0x0,(%esp)
   117ee:	89 44 24 04          	mov    %eax,0x4(%esp)
   117f2:	e8 b9 04 00 00       	call   11cb0 <builtin.default_panic>
   117f7:	8b 85 98 fe ff ff    	mov    -0x168(%ebp),%eax
   117fd:	b9 02 00 00 00       	mov    $0x2,%ecx
   11802:	f7 e1                	mul    %ecx
   11804:	89 85 90 fe ff ff    	mov    %eax,-0x170(%ebp)
   1180a:	0f 90 c0             	seto   %al
   1180d:	70 02                	jo     11811 <device.screen.println+0x661>
   1180f:	eb 23                	jmp    11834 <device.screen.println+0x684>
   11811:	8d 0d d3 ee 03 00    	lea    0x3eed3,%ecx
   11817:	ba 10 00 00 00       	mov    $0x10,%edx
   1181c:	31 c0                	xor    %eax,%eax
   1181e:	8d 05 b8 ea 03 00    	lea    0x3eab8,%eax
   11824:	c7 04 24 00 00 00 00 	movl   $0x0,(%esp)
   1182b:	89 44 24 04          	mov    %eax,0x4(%esp)
   1182f:	e8 7c 04 00 00       	call   11cb0 <builtin.default_panic>
   11834:	8b 85 90 fe ff ff    	mov    -0x170(%ebp),%eax
   1183a:	89 45 e8             	mov    %eax,-0x18(%ebp)
   1183d:	3d a0 00 00 00       	cmp    $0xa0,%eax
   11842:	72 25                	jb     11869 <device.screen.println+0x6b9>
   11844:	eb 25                	jmp    1186b <device.screen.println+0x6bb>
   11846:	8b 85 90 fe ff ff    	mov    -0x170(%ebp),%eax
   1184c:	8a 8d 97 fe ff ff    	mov    -0x169(%ebp),%cl
   11852:	88 8c 05 3c ff ff ff 	mov    %cl,-0xc4(%ebp,%eax,1)
   11859:	83 c0 01             	add    $0x1,%eax
   1185c:	89 85 8c fe ff ff    	mov    %eax,-0x174(%ebp)
   11862:	0f 92 c0             	setb   %al
   11865:	72 14                	jb     1187b <device.screen.println+0x6cb>
   11867:	eb 35                	jmp    1189e <device.screen.println+0x6ee>
   11869:	eb db                	jmp    11846 <device.screen.println+0x696>
   1186b:	8b 8d 90 fe ff ff    	mov    -0x170(%ebp),%ecx
   11871:	ba a0 00 00 00       	mov    $0xa0,%edx
   11876:	e8 55 04 00 00       	call   11cd0 <builtin.panicOutOfBounds>
   1187b:	8d 0d d3 ee 03 00    	lea    0x3eed3,%ecx
   11881:	ba 10 00 00 00       	mov    $0x10,%edx
   11886:	31 c0                	xor    %eax,%eax
   11888:	8d 05 b8 ea 03 00    	lea    0x3eab8,%eax
   1188e:	c7 04 24 00 00 00 00 	movl   $0x0,(%esp)
   11895:	89 44 24 04          	mov    %eax,0x4(%esp)
   11899:	e8 12 04 00 00       	call   11cb0 <builtin.default_panic>
   1189e:	8b 85 8c fe ff ff    	mov    -0x174(%ebp),%eax
   118a4:	3d a0 00 00 00       	cmp    $0xa0,%eax
   118a9:	72 15                	jb     118c0 <device.screen.println+0x710>
   118ab:	eb 15                	jmp    118c2 <device.screen.println+0x712>
   118ad:	8b 85 8c fe ff ff    	mov    -0x174(%ebp),%eax
   118b3:	c6 84 05 3c ff ff ff 	movb   $0xf,-0xc4(%ebp,%eax,1)
   118ba:	0f 
   118bb:	e9 74 fe ff ff       	jmp    11734 <device.screen.println+0x584>
   118c0:	eb eb                	jmp    118ad <device.screen.println+0x6fd>
   118c2:	8b 8d 8c fe ff ff    	mov    -0x174(%ebp),%ecx
   118c8:	ba a0 00 00 00       	mov    $0xa0,%edx
   118cd:	e8 fe 03 00 00       	call   11cd0 <builtin.panicOutOfBounds>
   118d2:	8d 0d d3 ee 03 00    	lea    0x3eed3,%ecx
   118d8:	ba 10 00 00 00       	mov    $0x10,%edx
   118dd:	31 c0                	xor    %eax,%eax
   118df:	8d 05 b8 ea 03 00    	lea    0x3eab8,%eax
   118e5:	c7 04 24 00 00 00 00 	movl   $0x0,(%esp)
   118ec:	89 44 24 04          	mov    %eax,0x4(%esp)
   118f0:	e8 bb 03 00 00       	call   11cb0 <builtin.default_panic>
   118f5:	66 8b 8d a2 fe ff ff 	mov    -0x15e(%ebp),%cx
   118fc:	66 8b 85 a0 fe ff ff 	mov    -0x160(%ebp),%ax
   11903:	0f b7 c0             	movzwl %ax,%eax
   11906:	89 85 80 fe ff ff    	mov    %eax,-0x180(%ebp)
   1190c:	ba 00 80 0b 00       	mov    $0xb8000,%edx
   11911:	01 c2                	add    %eax,%edx
   11913:	89 95 84 fe ff ff    	mov    %edx,-0x17c(%ebp)
   11919:	0f b7 c9             	movzwl %cx,%ecx
   1191c:	89 8d 88 fe ff ff    	mov    %ecx,-0x178(%ebp)
   11922:	39 c8                	cmp    %ecx,%eax
   11924:	76 21                	jbe    11947 <device.screen.println+0x797>
   11926:	eb 21                	jmp    11949 <device.screen.println+0x799>
   11928:	8b 85 88 fe ff ff    	mov    -0x178(%ebp),%eax
   1192e:	8b 95 80 fe ff ff    	mov    -0x180(%ebp),%edx
   11934:	89 c1                	mov    %eax,%ecx
   11936:	29 d1                	sub    %edx,%ecx
   11938:	89 8d 7c fe ff ff    	mov    %ecx,-0x184(%ebp)
   1193e:	3d a0 0f 00 00       	cmp    $0xfa0,%eax
   11943:	76 27                	jbe    1196c <device.screen.println+0x7bc>
   11945:	eb 27                	jmp    1196e <device.screen.println+0x7be>
   11947:	eb df                	jmp    11928 <device.screen.println+0x778>
   11949:	8b 95 88 fe ff ff    	mov    -0x178(%ebp),%edx
   1194f:	8b 8d 80 fe ff ff    	mov    -0x180(%ebp),%ecx
   11955:	e8 16 07 00 00       	call   12070 <builtin.panicStartGreaterThanEnd>
   1195a:	8b 85 80 fe ff ff    	mov    -0x180(%ebp),%eax
   11960:	8b 8d 88 fe ff ff    	mov    -0x178(%ebp),%ecx
   11966:	39 c8                	cmp    %ecx,%eax
   11968:	76 39                	jbe    119a3 <device.screen.println+0x7f3>
   1196a:	eb 39                	jmp    119a5 <device.screen.println+0x7f5>
   1196c:	eb ec                	jmp    1195a <device.screen.println+0x7aa>
   1196e:	8b 8d 88 fe ff ff    	mov    -0x178(%ebp),%ecx
   11974:	ba a0 0f 00 00       	mov    $0xfa0,%edx
   11979:	e8 52 03 00 00       	call   11cd0 <builtin.panicOutOfBounds>
   1197e:	8b 8d 84 fe ff ff    	mov    -0x17c(%ebp),%ecx
   11984:	8b 95 7c fe ff ff    	mov    -0x184(%ebp),%edx
   1198a:	89 d0                	mov    %edx,%eax
   1198c:	89 ce                	mov    %ecx,%esi
   1198e:	89 b5 78 fe ff ff    	mov    %esi,-0x188(%ebp)
   11994:	89 55 f4             	mov    %edx,-0xc(%ebp)
   11997:	89 4d f0             	mov    %ecx,-0x10(%ebp)
   1199a:	3d a0 00 00 00       	cmp    $0xa0,%eax
   1199f:	74 47                	je     119e8 <device.screen.println+0x838>
   119a1:	eb 47                	jmp    119ea <device.screen.println+0x83a>
   119a3:	eb d9                	jmp    1197e <device.screen.println+0x7ce>
   119a5:	8b 95 88 fe ff ff    	mov    -0x178(%ebp),%edx
   119ab:	8b 8d 80 fe ff ff    	mov    -0x180(%ebp),%ecx
   119b1:	e8 1a 03 00 00       	call   11cd0 <builtin.panicOutOfBounds>
   119b6:	8b 85 78 fe ff ff    	mov    -0x188(%ebp),%eax
   119bc:	8d 8d 3c ff ff ff    	lea    -0xc4(%ebp),%ecx
   119c2:	81 c1 a0 00 00 00    	add    $0xa0,%ecx
   119c8:	89 c2                	mov    %eax,%edx
   119ca:	81 c2 a0 00 00 00    	add    $0xa0,%edx
   119d0:	39 c8                	cmp    %ecx,%eax
   119d2:	0f 93 c0             	setae  %al
   119d5:	8d 8d 3c ff ff ff    	lea    -0xc4(%ebp),%ecx
   119db:	39 d1                	cmp    %edx,%ecx
   119dd:	0f 93 c1             	setae  %cl
   119e0:	08 c8                	or     %cl,%al
   119e2:	a8 01                	test   $0x1,%al
   119e4:	75 51                	jne    11a37 <device.screen.println+0x887>
   119e6:	eb 51                	jmp    11a39 <device.screen.println+0x889>
   119e8:	eb cc                	jmp    119b6 <device.screen.println+0x806>
   119ea:	b9 c8 ef 03 00       	mov    $0x3efc8,%ecx
   119ef:	ba 28 00 00 00       	mov    $0x28,%edx
   119f4:	31 c0                	xor    %eax,%eax
   119f6:	8d 05 b8 ea 03 00    	lea    0x3eab8,%eax
   119fc:	c7 04 24 00 00 00 00 	movl   $0x0,(%esp)
   11a03:	89 44 24 04          	mov    %eax,0x4(%esp)
   11a07:	e8 a4 02 00 00       	call   11cb0 <builtin.default_panic>
   11a0c:	8b 8d 78 fe ff ff    	mov    -0x188(%ebp),%ecx
   11a12:	89 e0                	mov    %esp,%eax
   11a14:	8d 95 3c ff ff ff    	lea    -0xc4(%ebp),%edx
   11a1a:	89 50 04             	mov    %edx,0x4(%eax)
   11a1d:	89 08                	mov    %ecx,(%eax)
   11a1f:	c7 40 08 a0 00 00 00 	movl   $0xa0,0x8(%eax)
   11a26:	e8 e5 a9 02 00       	call   3c410 <memcpy>
   11a2b:	66 83 3d 2e 0d 04 00 	cmpw   $0x18,0x40d2e
   11a32:	18 
   11a33:	72 40                	jb     11a75 <device.screen.println+0x8c5>
   11a35:	eb 58                	jmp    11a8f <device.screen.println+0x8df>
   11a37:	eb d3                	jmp    11a0c <device.screen.println+0x85c>
   11a39:	b9 13 f0 03 00       	mov    $0x3f013,%ecx
   11a3e:	ba 17 00 00 00       	mov    $0x17,%edx
   11a43:	31 c0                	xor    %eax,%eax
   11a45:	8d 05 b8 ea 03 00    	lea    0x3eab8,%eax
   11a4b:	c7 04 24 00 00 00 00 	movl   $0x0,(%esp)
   11a52:	89 44 24 04          	mov    %eax,0x4(%esp)
   11a56:	e8 55 02 00 00       	call   11cb0 <builtin.default_panic>
   11a5b:	66 a1 30 0d 04 00    	mov    0x40d30,%ax
   11a61:	66 83 c0 01          	add    $0x1,%ax
   11a65:	66 89 85 76 fe ff ff 	mov    %ax,-0x18a(%ebp)
   11a6c:	0f 92 c0             	setb   %al
   11a6f:	a8 01                	test   $0x1,%al
   11a71:	75 57                	jne    11aca <device.screen.println+0x91a>
   11a73:	eb 78                	jmp    11aed <device.screen.println+0x93d>
   11a75:	66 a1 2e 0d 04 00    	mov    0x40d2e,%ax
   11a7b:	66 83 c0 01          	add    $0x1,%ax
   11a7f:	66 89 85 74 fe ff ff 	mov    %ax,-0x18c(%ebp)
   11a86:	0f 92 c0             	setb   %al
   11a89:	a8 01                	test   $0x1,%al
   11a8b:	75 0b                	jne    11a98 <device.screen.println+0x8e8>
   11a8d:	eb 2c                	jmp    11abb <device.screen.println+0x90b>
   11a8f:	c6 05 2c 0d 04 00 01 	movb   $0x1,0x40d2c
   11a96:	eb c3                	jmp    11a5b <device.screen.println+0x8ab>
   11a98:	8d 0d d3 ee 03 00    	lea    0x3eed3,%ecx
   11a9e:	ba 10 00 00 00       	mov    $0x10,%edx
   11aa3:	31 c0                	xor    %eax,%eax
   11aa5:	8d 05 b8 ea 03 00    	lea    0x3eab8,%eax
   11aab:	c7 04 24 00 00 00 00 	movl   $0x0,(%esp)
   11ab2:	89 44 24 04          	mov    %eax,0x4(%esp)
   11ab6:	e8 f5 01 00 00       	call   11cb0 <builtin.default_panic>
   11abb:	66 8b 85 74 fe ff ff 	mov    -0x18c(%ebp),%ax
   11ac2:	66 a3 2e 0d 04 00    	mov    %ax,0x40d2e
   11ac8:	eb 91                	jmp    11a5b <device.screen.println+0x8ab>
   11aca:	8d 0d d3 ee 03 00    	lea    0x3eed3,%ecx
   11ad0:	ba 10 00 00 00       	mov    $0x10,%edx
   11ad5:	31 c0                	xor    %eax,%eax
   11ad7:	8d 05 b8 ea 03 00    	lea    0x3eab8,%eax
   11add:	c7 04 24 00 00 00 00 	movl   $0x0,(%esp)
   11ae4:	89 44 24 04          	mov    %eax,0x4(%esp)
   11ae8:	e8 c3 01 00 00       	call   11cb0 <builtin.default_panic>
   11aed:	66 8b 85 76 fe ff ff 	mov    -0x18a(%ebp),%ax
   11af4:	66 a3 30 0d 04 00    	mov    %ax,0x40d30
   11afa:	66 81 3d 30 0d 04 00 	cmpw   $0x270f,0x40d30
   11b01:	0f 27 
   11b03:	77 18                	ja     11b1d <device.screen.println+0x96d>
   11b05:	eb 21                	jmp    11b28 <device.screen.println+0x978>
   11b07:	8b 85 fc fe ff ff    	mov    -0x104(%ebp),%eax
   11b0d:	83 c0 06             	add    $0x6,%eax
   11b10:	89 85 70 fe ff ff    	mov    %eax,-0x190(%ebp)
   11b16:	0f 92 c0             	setb   %al
   11b19:	72 0f                	jb     11b2a <device.screen.println+0x97a>
   11b1b:	eb 30                	jmp    11b4d <device.screen.println+0x99d>
   11b1d:	66 c7 05 30 0d 04 00 	movw   $0x0,0x40d30
   11b24:	00 00 
   11b26:	eb df                	jmp    11b07 <device.screen.println+0x957>
   11b28:	eb dd                	jmp    11b07 <device.screen.println+0x957>
   11b2a:	8d 0d d3 ee 03 00    	lea    0x3eed3,%ecx
   11b30:	ba 10 00 00 00       	mov    $0x10,%edx
   11b35:	31 c0                	xor    %eax,%eax
   11b37:	8d 05 b8 ea 03 00    	lea    0x3eab8,%eax
   11b3d:	c7 04 24 00 00 00 00 	movl   $0x0,(%esp)
   11b44:	89 44 24 04          	mov    %eax,0x4(%esp)
   11b48:	e8 63 01 00 00       	call   11cb0 <builtin.default_panic>
   11b4d:	8b 8d 70 fe ff ff    	mov    -0x190(%ebp),%ecx
   11b53:	e8 b8 06 00 00       	call   12210 <device.screen.update_cursor>
   11b58:	81 c4 94 01 00 00    	add    $0x194,%esp
   11b5e:	5e                   	pop    %esi
   11b5f:	5f                   	pop    %edi
   11b60:	5d                   	pop    %ebp
   11b61:	c3                   	ret
   11b62:	66 2e 0f 1f 84 00 00 	nopw   %cs:0x0(%eax,%eax,1)
   11b69:	00 00 00 
   11b6c:	0f 1f 40 00          	nopl   0x0(%eax)

00011b70 <debug.print__anon_990>:
   11b70:	55                   	push   %ebp
   11b71:	89 e5                	mov    %esp,%ebp
   11b73:	56                   	push   %esi
   11b74:	83 e4 f0             	and    $0xfffffff0,%esp
   11b77:	81 ec 20 01 00 00    	sub    $0x120,%esp
   11b7d:	8d 44 24 14          	lea    0x14(%esp),%eax
   11b81:	89 84 24 98 00 00 00 	mov    %eax,0x98(%esp)
   11b88:	c7 84 24 9c 00 00 00 	movl   $0x20,0x9c(%esp)
   11b8f:	20 00 00 00 
   11b93:	c7 84 24 94 00 00 00 	movl   $0x0,0x94(%esp)
   11b9a:	00 00 00 00 
   11b9e:	8b 84 24 94 00 00 00 	mov    0x94(%esp),%eax
   11ba5:	89 44 24 10          	mov    %eax,0x10(%esp)
   11ba9:	0f 57 c0             	xorps  %xmm0,%xmm0
   11bac:	0f 29 84 24 e0 00 00 	movaps %xmm0,0xe0(%esp)
   11bb3:	00 
   11bb4:	0f 29 84 24 d0 00 00 	movaps %xmm0,0xd0(%esp)
   11bbb:	00 
   11bbc:	0f 29 84 24 c0 00 00 	movaps %xmm0,0xc0(%esp)
   11bc3:	00 
   11bc4:	0f 29 84 24 b0 00 00 	movaps %xmm0,0xb0(%esp)
   11bcb:	00 
   11bcc:	0f 29 84 24 a0 00 00 	movaps %xmm0,0xa0(%esp)
   11bd3:	00 
   11bd4:	b8 50 00 00 00       	mov    $0x50,%eax
   11bd9:	8d b4 24 a0 00 00 00 	lea    0xa0(%esp),%esi
   11be0:	8d 8c 24 f8 00 00 00 	lea    0xf8(%esp),%ecx
   11be7:	8d 94 24 94 00 00 00 	lea    0x94(%esp),%edx
   11bee:	89 34 24             	mov    %esi,(%esp)
   11bf1:	89 44 24 04          	mov    %eax,0x4(%esp)
   11bf5:	e8 36 07 00 00       	call   12330 <fmt.bufPrint__anon_1412>
   11bfa:	66 83 bc 24 00 01 00 	cmpw   $0x0,0x100(%esp)
   11c01:	00 00 
   11c03:	74 23                	je     11c28 <debug.print__anon_990+0xb8>
   11c05:	eb 55                	jmp    11c5c <debug.print__anon_990+0xec>
   11c07:	8b 4c 24 0c          	mov    0xc(%esp),%ecx
   11c0b:	8b 54 24 08          	mov    0x8(%esp),%edx
   11c0f:	89 8c 24 0c 01 00 00 	mov    %ecx,0x10c(%esp)
   11c16:	89 94 24 10 01 00 00 	mov    %edx,0x110(%esp)
   11c1d:	e8 8e f5 ff ff       	call   111b0 <device.screen.println>
   11c22:	8d 65 fc             	lea    -0x4(%ebp),%esp
   11c25:	5e                   	pop    %esi
   11c26:	5d                   	pop    %ebp
   11c27:	c3                   	ret
   11c28:	8b 84 24 f8 00 00 00 	mov    0xf8(%esp),%eax
   11c2f:	8b 8c 24 fc 00 00 00 	mov    0xfc(%esp),%ecx
   11c36:	89 8c 24 08 01 00 00 	mov    %ecx,0x108(%esp)
   11c3d:	89 84 24 04 01 00 00 	mov    %eax,0x104(%esp)
   11c44:	8b 8c 24 04 01 00 00 	mov    0x104(%esp),%ecx
   11c4b:	8b 84 24 08 01 00 00 	mov    0x108(%esp),%eax
   11c52:	89 4c 24 0c          	mov    %ecx,0xc(%esp)
   11c56:	89 44 24 08          	mov    %eax,0x8(%esp)
   11c5a:	eb ab                	jmp    11c07 <debug.print__anon_990+0x97>
   11c5c:	66 8b 84 24 00 01 00 	mov    0x100(%esp),%ax
   11c63:	00 
   11c64:	66 83 e8 01          	sub    $0x1,%ax
   11c68:	74 24                	je     11c8e <debug.print__anon_990+0x11e>
   11c6a:	eb 00                	jmp    11c6c <debug.print__anon_990+0xfc>
   11c6c:	b9 aa f0 03 00       	mov    $0x3f0aa,%ecx
   11c71:	ba 17 00 00 00       	mov    $0x17,%edx
   11c76:	31 c0                	xor    %eax,%eax
   11c78:	8d 05 b8 ea 03 00    	lea    0x3eab8,%eax
   11c7e:	c7 04 24 00 00 00 00 	movl   $0x0,(%esp)
   11c85:	89 44 24 04          	mov    %eax,0x4(%esp)
   11c89:	e8 22 00 00 00       	call   11cb0 <builtin.default_panic>
   11c8e:	8b 44 24 10          	mov    0x10(%esp),%eax
   11c92:	89 84 24 94 00 00 00 	mov    %eax,0x94(%esp)
   11c99:	b8 0f 00 00 00       	mov    $0xf,%eax
   11c9e:	b9 98 ee 03 00       	mov    $0x3ee98,%ecx
   11ca3:	89 4c 24 0c          	mov    %ecx,0xc(%esp)
   11ca7:	89 44 24 08          	mov    %eax,0x8(%esp)
   11cab:	e9 57 ff ff ff       	jmp    11c07 <debug.print__anon_990+0x97>

00011cb0 <builtin.default_panic>:
   11cb0:	55                   	push   %ebp
   11cb1:	89 e5                	mov    %esp,%ebp
   11cb3:	83 ec 08             	sub    $0x8,%esp
   11cb6:	8b 45 08             	mov    0x8(%ebp),%eax
   11cb9:	89 55 fc             	mov    %edx,-0x4(%ebp)
   11cbc:	89 4d f8             	mov    %ecx,-0x8(%ebp)
   11cbf:	cc                   	int3
   11cc0:	eb fd                	jmp    11cbf <builtin.default_panic+0xf>
   11cc2:	66 2e 0f 1f 84 00 00 	nopw   %cs:0x0(%eax,%eax,1)
   11cc9:	00 00 00 
   11ccc:	0f 1f 40 00          	nopl   0x0(%eax)

00011cd0 <builtin.panicOutOfBounds>:
   11cd0:	55                   	push   %ebp
   11cd1:	89 e5                	mov    %esp,%ebp
   11cd3:	83 ec 1c             	sub    $0x1c,%esp
   11cd6:	89 4d e8             	mov    %ecx,-0x18(%ebp)
   11cd9:	89 55 ec             	mov    %edx,-0x14(%ebp)
   11cdc:	8b 45 04             	mov    0x4(%ebp),%eax
   11cdf:	89 45 f0             	mov    %eax,-0x10(%ebp)
   11ce2:	c6 45 f4 01          	movb   $0x1,-0xc(%ebp)
   11ce6:	89 4d f8             	mov    %ecx,-0x8(%ebp)
   11ce9:	89 55 fc             	mov    %edx,-0x4(%ebp)
   11cec:	31 c9                	xor    %ecx,%ecx
   11cee:	8d 55 f0             	lea    -0x10(%ebp),%edx
   11cf1:	8d 45 f8             	lea    -0x8(%ebp),%eax
   11cf4:	89 04 24             	mov    %eax,(%esp)
   11cf7:	e8 44 07 00 00       	call   12440 <debug.panicExtra__anon_1413>
   11cfc:	0f 1f 40 00          	nopl   0x0(%eax)

00011d00 <mem.eql__anon_1261>:
   11d00:	55                   	push   %ebp
   11d01:	89 e5                	mov    %esp,%ebp
   11d03:	57                   	push   %edi
   11d04:	56                   	push   %esi
   11d05:	83 ec 30             	sub    $0x30,%esp
   11d08:	89 d6                	mov    %edx,%esi
   11d0a:	89 ca                	mov    %ecx,%edx
   11d0c:	8b 4d 0c             	mov    0xc(%ebp),%ecx
   11d0f:	8b 45 08             	mov    0x8(%ebp),%eax
   11d12:	89 f7                	mov    %esi,%edi
   11d14:	89 7d d8             	mov    %edi,-0x28(%ebp)
   11d17:	89 d7                	mov    %edx,%edi
   11d19:	89 7d dc             	mov    %edi,-0x24(%ebp)
   11d1c:	89 cf                	mov    %ecx,%edi
   11d1e:	89 7d e0             	mov    %edi,-0x20(%ebp)
   11d21:	89 c7                	mov    %eax,%edi
   11d23:	89 7d e4             	mov    %edi,-0x1c(%ebp)
   11d26:	89 75 ec             	mov    %esi,-0x14(%ebp)
   11d29:	89 55 e8             	mov    %edx,-0x18(%ebp)
   11d2c:	89 4d f4             	mov    %ecx,-0xc(%ebp)
   11d2f:	89 45 f0             	mov    %eax,-0x10(%ebp)
   11d32:	eb 3b                	jmp    11d6f <mem.eql__anon_1261+0x6f>
   11d34:	8b 55 d8             	mov    -0x28(%ebp),%edx
   11d37:	8b 4d dc             	mov    -0x24(%ebp),%ecx
   11d3a:	e8 21 09 00 00       	call   12660 <mem.sliceAsBytes__anon_1414>
   11d3f:	8b 4d e4             	mov    -0x1c(%ebp),%ecx
   11d42:	89 45 d0             	mov    %eax,-0x30(%ebp)
   11d45:	89 d0                	mov    %edx,%eax
   11d47:	8b 55 e0             	mov    -0x20(%ebp),%edx
   11d4a:	89 45 d4             	mov    %eax,-0x2c(%ebp)
   11d4d:	e8 0e 09 00 00       	call   12660 <mem.sliceAsBytes__anon_1414>
   11d52:	8b 4d d0             	mov    -0x30(%ebp),%ecx
   11d55:	89 c6                	mov    %eax,%esi
   11d57:	89 d7                	mov    %edx,%edi
   11d59:	8b 55 d4             	mov    -0x2c(%ebp),%edx
   11d5c:	89 e0                	mov    %esp,%eax
   11d5e:	89 78 04             	mov    %edi,0x4(%eax)
   11d61:	89 30                	mov    %esi,(%eax)
   11d63:	e8 88 09 00 00       	call   126f0 <mem.eqlBytes>
   11d68:	83 c4 30             	add    $0x30,%esp
   11d6b:	5e                   	pop    %esi
   11d6c:	5f                   	pop    %edi
   11d6d:	5d                   	pop    %ebp
   11d6e:	c3                   	ret
   11d6f:	eb c3                	jmp    11d34 <mem.eql__anon_1261+0x34>
   11d71:	66 2e 0f 1f 84 00 00 	nopw   %cs:0x0(%eax,%eax,1)
   11d78:	00 00 00 
   11d7b:	0f 1f 44 00 00       	nopl   0x0(%eax,%eax,1)

00011d80 <debug.print__anon_1262>:
   11d80:	55                   	push   %ebp
   11d81:	89 e5                	mov    %esp,%ebp
   11d83:	57                   	push   %edi
   11d84:	56                   	push   %esi
   11d85:	83 e4 f0             	and    $0xfffffff0,%esp
   11d88:	81 ec 20 01 00 00    	sub    $0x120,%esp
   11d8e:	89 c8                	mov    %ecx,%eax
   11d90:	8d 4c 24 24          	lea    0x24(%esp),%ecx
   11d94:	89 8c 24 a8 00 00 00 	mov    %ecx,0xa8(%esp)
   11d9b:	c7 84 24 ac 00 00 00 	movl   $0x20,0xac(%esp)
   11da2:	20 00 00 00 
   11da6:	c7 84 24 a4 00 00 00 	movl   $0x0,0xa4(%esp)
   11dad:	00 00 00 00 
   11db1:	8b 8c 24 a4 00 00 00 	mov    0xa4(%esp),%ecx
   11db8:	89 4c 24 20          	mov    %ecx,0x20(%esp)
   11dbc:	0f 57 c0             	xorps  %xmm0,%xmm0
   11dbf:	0f 29 84 24 f0 00 00 	movaps %xmm0,0xf0(%esp)
   11dc6:	00 
   11dc7:	0f 29 84 24 e0 00 00 	movaps %xmm0,0xe0(%esp)
   11dce:	00 
   11dcf:	0f 29 84 24 d0 00 00 	movaps %xmm0,0xd0(%esp)
   11dd6:	00 
   11dd7:	0f 29 84 24 c0 00 00 	movaps %xmm0,0xc0(%esp)
   11dde:	00 
   11ddf:	0f 29 84 24 b0 00 00 	movaps %xmm0,0xb0(%esp)
   11de6:	00 
   11de7:	be 50 00 00 00       	mov    $0x50,%esi
   11dec:	8d bc 24 b0 00 00 00 	lea    0xb0(%esp),%edi
   11df3:	8d 8c 24 04 01 00 00 	lea    0x104(%esp),%ecx
   11dfa:	8d 94 24 a4 00 00 00 	lea    0xa4(%esp),%edx
   11e01:	89 3c 24             	mov    %edi,(%esp)
   11e04:	89 74 24 04          	mov    %esi,0x4(%esp)
   11e08:	89 44 24 08          	mov    %eax,0x8(%esp)
   11e0c:	e8 9f 12 00 00       	call   130b0 <fmt.bufPrint__anon_1415>
   11e11:	66 83 bc 24 0c 01 00 	cmpw   $0x0,0x10c(%esp)
   11e18:	00 00 
   11e1a:	74 24                	je     11e40 <debug.print__anon_1262+0xc0>
   11e1c:	eb 56                	jmp    11e74 <debug.print__anon_1262+0xf4>
   11e1e:	8b 4c 24 1c          	mov    0x1c(%esp),%ecx
   11e22:	8b 54 24 18          	mov    0x18(%esp),%edx
   11e26:	89 8c 24 18 01 00 00 	mov    %ecx,0x118(%esp)
   11e2d:	89 94 24 1c 01 00 00 	mov    %edx,0x11c(%esp)
   11e34:	e8 77 f3 ff ff       	call   111b0 <device.screen.println>
   11e39:	8d 65 f8             	lea    -0x8(%ebp),%esp
   11e3c:	5e                   	pop    %esi
   11e3d:	5f                   	pop    %edi
   11e3e:	5d                   	pop    %ebp
   11e3f:	c3                   	ret
   11e40:	8b 84 24 04 01 00 00 	mov    0x104(%esp),%eax
   11e47:	8b 8c 24 08 01 00 00 	mov    0x108(%esp),%ecx
   11e4e:	89 8c 24 14 01 00 00 	mov    %ecx,0x114(%esp)
   11e55:	89 84 24 10 01 00 00 	mov    %eax,0x110(%esp)
   11e5c:	8b 8c 24 10 01 00 00 	mov    0x110(%esp),%ecx
   11e63:	8b 84 24 14 01 00 00 	mov    0x114(%esp),%eax
   11e6a:	89 4c 24 1c          	mov    %ecx,0x1c(%esp)
   11e6e:	89 44 24 18          	mov    %eax,0x18(%esp)
   11e72:	eb aa                	jmp    11e1e <debug.print__anon_1262+0x9e>
   11e74:	66 8b 84 24 0c 01 00 	mov    0x10c(%esp),%ax
   11e7b:	00 
   11e7c:	66 83 e8 01          	sub    $0x1,%ax
   11e80:	74 24                	je     11ea6 <debug.print__anon_1262+0x126>
   11e82:	eb 00                	jmp    11e84 <debug.print__anon_1262+0x104>
   11e84:	b9 aa f0 03 00       	mov    $0x3f0aa,%ecx
   11e89:	ba 17 00 00 00       	mov    $0x17,%edx
   11e8e:	31 c0                	xor    %eax,%eax
   11e90:	8d 05 b8 ea 03 00    	lea    0x3eab8,%eax
   11e96:	c7 04 24 00 00 00 00 	movl   $0x0,(%esp)
   11e9d:	89 44 24 04          	mov    %eax,0x4(%esp)
   11ea1:	e8 0a fe ff ff       	call   11cb0 <builtin.default_panic>
   11ea6:	8b 44 24 20          	mov    0x20(%esp),%eax
   11eaa:	89 84 24 a4 00 00 00 	mov    %eax,0xa4(%esp)
   11eb1:	b8 0f 00 00 00       	mov    $0xf,%eax
   11eb6:	b9 98 ee 03 00       	mov    $0x3ee98,%ecx
   11ebb:	89 4c 24 1c          	mov    %ecx,0x1c(%esp)
   11ebf:	89 44 24 18          	mov    %eax,0x18(%esp)
   11ec3:	e9 56 ff ff ff       	jmp    11e1e <debug.print__anon_1262+0x9e>
   11ec8:	0f 1f 84 00 00 00 00 	nopl   0x0(%eax,%eax,1)
   11ecf:	00 

00011ed0 <debug.print__anon_1263>:
   11ed0:	55                   	push   %ebp
   11ed1:	89 e5                	mov    %esp,%ebp
   11ed3:	56                   	push   %esi
   11ed4:	83 e4 f0             	and    $0xfffffff0,%esp
   11ed7:	81 ec 20 01 00 00    	sub    $0x120,%esp
   11edd:	8d 44 24 14          	lea    0x14(%esp),%eax
   11ee1:	89 84 24 98 00 00 00 	mov    %eax,0x98(%esp)
   11ee8:	c7 84 24 9c 00 00 00 	movl   $0x20,0x9c(%esp)
   11eef:	20 00 00 00 
   11ef3:	c7 84 24 94 00 00 00 	movl   $0x0,0x94(%esp)
   11efa:	00 00 00 00 
   11efe:	8b 84 24 94 00 00 00 	mov    0x94(%esp),%eax
   11f05:	89 44 24 10          	mov    %eax,0x10(%esp)
   11f09:	0f 57 c0             	xorps  %xmm0,%xmm0
   11f0c:	0f 29 84 24 e0 00 00 	movaps %xmm0,0xe0(%esp)
   11f13:	00 
   11f14:	0f 29 84 24 d0 00 00 	movaps %xmm0,0xd0(%esp)
   11f1b:	00 
   11f1c:	0f 29 84 24 c0 00 00 	movaps %xmm0,0xc0(%esp)
   11f23:	00 
   11f24:	0f 29 84 24 b0 00 00 	movaps %xmm0,0xb0(%esp)
   11f2b:	00 
   11f2c:	0f 29 84 24 a0 00 00 	movaps %xmm0,0xa0(%esp)
   11f33:	00 
   11f34:	b8 50 00 00 00       	mov    $0x50,%eax
   11f39:	8d b4 24 a0 00 00 00 	lea    0xa0(%esp),%esi
   11f40:	8d 8c 24 f8 00 00 00 	lea    0xf8(%esp),%ecx
   11f47:	8d 94 24 94 00 00 00 	lea    0x94(%esp),%edx
   11f4e:	89 34 24             	mov    %esi,(%esp)
   11f51:	89 44 24 04          	mov    %eax,0x4(%esp)
   11f55:	e8 76 12 00 00       	call   131d0 <fmt.bufPrint__anon_1416>
   11f5a:	66 83 bc 24 00 01 00 	cmpw   $0x0,0x100(%esp)
   11f61:	00 00 
   11f63:	74 23                	je     11f88 <debug.print__anon_1263+0xb8>
   11f65:	eb 55                	jmp    11fbc <debug.print__anon_1263+0xec>
   11f67:	8b 4c 24 0c          	mov    0xc(%esp),%ecx
   11f6b:	8b 54 24 08          	mov    0x8(%esp),%edx
   11f6f:	89 8c 24 0c 01 00 00 	mov    %ecx,0x10c(%esp)
   11f76:	89 94 24 10 01 00 00 	mov    %edx,0x110(%esp)
   11f7d:	e8 2e f2 ff ff       	call   111b0 <device.screen.println>
   11f82:	8d 65 fc             	lea    -0x4(%ebp),%esp
   11f85:	5e                   	pop    %esi
   11f86:	5d                   	pop    %ebp
   11f87:	c3                   	ret
   11f88:	8b 84 24 f8 00 00 00 	mov    0xf8(%esp),%eax
   11f8f:	8b 8c 24 fc 00 00 00 	mov    0xfc(%esp),%ecx
   11f96:	89 8c 24 08 01 00 00 	mov    %ecx,0x108(%esp)
   11f9d:	89 84 24 04 01 00 00 	mov    %eax,0x104(%esp)
   11fa4:	8b 8c 24 04 01 00 00 	mov    0x104(%esp),%ecx
   11fab:	8b 84 24 08 01 00 00 	mov    0x108(%esp),%eax
   11fb2:	89 4c 24 0c          	mov    %ecx,0xc(%esp)
   11fb6:	89 44 24 08          	mov    %eax,0x8(%esp)
   11fba:	eb ab                	jmp    11f67 <debug.print__anon_1263+0x97>
   11fbc:	66 8b 84 24 00 01 00 	mov    0x100(%esp),%ax
   11fc3:	00 
   11fc4:	66 83 e8 01          	sub    $0x1,%ax
   11fc8:	74 24                	je     11fee <debug.print__anon_1263+0x11e>
   11fca:	eb 00                	jmp    11fcc <debug.print__anon_1263+0xfc>
   11fcc:	b9 aa f0 03 00       	mov    $0x3f0aa,%ecx
   11fd1:	ba 17 00 00 00       	mov    $0x17,%edx
   11fd6:	31 c0                	xor    %eax,%eax
   11fd8:	8d 05 b8 ea 03 00    	lea    0x3eab8,%eax
   11fde:	c7 04 24 00 00 00 00 	movl   $0x0,(%esp)
   11fe5:	89 44 24 04          	mov    %eax,0x4(%esp)
   11fe9:	e8 c2 fc ff ff       	call   11cb0 <builtin.default_panic>
   11fee:	8b 44 24 10          	mov    0x10(%esp),%eax
   11ff2:	89 84 24 94 00 00 00 	mov    %eax,0x94(%esp)
   11ff9:	b8 0f 00 00 00       	mov    $0xf,%eax
   11ffe:	b9 98 ee 03 00       	mov    $0x3ee98,%ecx
   12003:	89 4c 24 0c          	mov    %ecx,0xc(%esp)
   12007:	89 44 24 08          	mov    %eax,0x8(%esp)
   1200b:	e9 57 ff ff ff       	jmp    11f67 <debug.print__anon_1263+0x97>

00012010 <device.screen.get_video_mode_3_byte_offset>:
   12010:	55                   	push   %ebp
   12011:	89 e5                	mov    %esp,%ebp
   12013:	83 ec 10             	sub    $0x10,%esp
   12016:	66 89 d0             	mov    %dx,%ax
   12019:	66 89 4d fc          	mov    %cx,-0x4(%ebp)
   1201d:	66 89 45 fe          	mov    %ax,-0x2(%ebp)
   12021:	0f b7 c9             	movzwl %cx,%ecx
   12024:	0f b7 d0             	movzwl %ax,%edx
   12027:	e8 b4 12 00 00       	call   132e0 <device.screen.get_video_mode_3_offset>
   1202c:	66 b9 02 00          	mov    $0x2,%cx
   12030:	66 f7 e1             	mul    %cx
   12033:	66 89 45 fa          	mov    %ax,-0x6(%ebp)
   12037:	0f 90 c0             	seto   %al
   1203a:	a8 01                	test   $0x1,%al
   1203c:	75 02                	jne    12040 <device.screen.get_video_mode_3_byte_offset+0x30>
   1203e:	eb 23                	jmp    12063 <device.screen.get_video_mode_3_byte_offset+0x53>
   12040:	8d 0d d3 ee 03 00    	lea    0x3eed3,%ecx
   12046:	ba 10 00 00 00       	mov    $0x10,%edx
   1204b:	31 c0                	xor    %eax,%eax
   1204d:	8d 05 b8 ea 03 00    	lea    0x3eab8,%eax
   12053:	c7 04 24 00 00 00 00 	movl   $0x0,(%esp)
   1205a:	89 44 24 04          	mov    %eax,0x4(%esp)
   1205e:	e8 4d fc ff ff       	call   11cb0 <builtin.default_panic>
   12063:	66 8b 45 fa          	mov    -0x6(%ebp),%ax
   12067:	83 c4 10             	add    $0x10,%esp
   1206a:	5d                   	pop    %ebp
   1206b:	c3                   	ret
   1206c:	0f 1f 40 00          	nopl   0x0(%eax)

00012070 <builtin.panicStartGreaterThanEnd>:
   12070:	55                   	push   %ebp
   12071:	89 e5                	mov    %esp,%ebp
   12073:	83 ec 1c             	sub    $0x1c,%esp
   12076:	89 4d e8             	mov    %ecx,-0x18(%ebp)
   12079:	89 55 ec             	mov    %edx,-0x14(%ebp)
   1207c:	8b 45 04             	mov    0x4(%ebp),%eax
   1207f:	89 45 f0             	mov    %eax,-0x10(%ebp)
   12082:	c6 45 f4 01          	movb   $0x1,-0xc(%ebp)
   12086:	89 4d f8             	mov    %ecx,-0x8(%ebp)
   12089:	89 55 fc             	mov    %edx,-0x4(%ebp)
   1208c:	31 c9                	xor    %ecx,%ecx
   1208e:	8d 55 f0             	lea    -0x10(%ebp),%edx
   12091:	8d 45 f8             	lea    -0x8(%ebp),%eax
   12094:	89 04 24             	mov    %eax,(%esp)
   12097:	e8 e4 12 00 00       	call   13380 <debug.panicExtra__anon_1417>
   1209c:	0f 1f 40 00          	nopl   0x0(%eax)

000120a0 <device.screen.write_line_number>:
   120a0:	55                   	push   %ebp
   120a1:	89 e5                	mov    %esp,%ebp
   120a3:	53                   	push   %ebx
   120a4:	57                   	push   %edi
   120a5:	56                   	push   %esi
   120a6:	83 ec 6c             	sub    $0x6c,%esp
   120a9:	89 d0                	mov    %edx,%eax
   120ab:	89 45 b8             	mov    %eax,-0x48(%ebp)
   120ae:	89 c8                	mov    %ecx,%eax
   120b0:	89 45 bc             	mov    %eax,-0x44(%ebp)
   120b3:	89 55 cc             	mov    %edx,-0x34(%ebp)
   120b6:	89 4d c8             	mov    %ecx,-0x38(%ebp)
   120b9:	e8 e2 14 00 00       	call   135a0 <device.screen.get_line_number>
   120be:	89 d1                	mov    %edx,%ecx
   120c0:	89 4d c0             	mov    %ecx,-0x40(%ebp)
   120c3:	89 c1                	mov    %eax,%ecx
   120c5:	89 4d c4             	mov    %ecx,-0x3c(%ebp)
   120c8:	89 55 d4             	mov    %edx,-0x2c(%ebp)
   120cb:	89 45 d0             	mov    %eax,-0x30(%ebp)
   120ce:	c7 45 d8 00 00 00 00 	movl   $0x0,-0x28(%ebp)
   120d5:	eb 08                	jmp    120df <device.screen.write_line_number+0x3f>
   120d7:	83 c4 6c             	add    $0x6c,%esp
   120da:	5e                   	pop    %esi
   120db:	5f                   	pop    %edi
   120dc:	5b                   	pop    %ebx
   120dd:	5d                   	pop    %ebp
   120de:	c3                   	ret
   120df:	8b 45 d8             	mov    -0x28(%ebp),%eax
   120e2:	89 45 b4             	mov    %eax,-0x4c(%ebp)
   120e5:	83 f8 06             	cmp    $0x6,%eax
   120e8:	72 0d                	jb     120f7 <device.screen.write_line_number+0x57>
   120ea:	eb 22                	jmp    1210e <device.screen.write_line_number+0x6e>
   120ec:	8b 45 b4             	mov    -0x4c(%ebp),%eax
   120ef:	83 c0 01             	add    $0x1,%eax
   120f2:	89 45 d8             	mov    %eax,-0x28(%ebp)
   120f5:	eb e8                	jmp    120df <device.screen.write_line_number+0x3f>
   120f7:	8b 45 b4             	mov    -0x4c(%ebp),%eax
   120fa:	89 45 dc             	mov    %eax,-0x24(%ebp)
   120fd:	b9 02 00 00 00       	mov    $0x2,%ecx
   12102:	f7 e1                	mul    %ecx
   12104:	89 45 b0             	mov    %eax,-0x50(%ebp)
   12107:	0f 90 c0             	seto   %al
   1210a:	70 04                	jo     12110 <device.screen.write_line_number+0x70>
   1210c:	eb 25                	jmp    12133 <device.screen.write_line_number+0x93>
   1210e:	eb c7                	jmp    120d7 <device.screen.write_line_number+0x37>
   12110:	8d 0d d3 ee 03 00    	lea    0x3eed3,%ecx
   12116:	ba 10 00 00 00       	mov    $0x10,%edx
   1211b:	31 c0                	xor    %eax,%eax
   1211d:	8d 05 b8 ea 03 00    	lea    0x3eab8,%eax
   12123:	c7 04 24 00 00 00 00 	movl   $0x0,(%esp)
   1212a:	89 44 24 04          	mov    %eax,0x4(%esp)
   1212e:	e8 7d fb ff ff       	call   11cb0 <builtin.default_panic>
   12133:	8b 4d bc             	mov    -0x44(%ebp),%ecx
   12136:	8b 55 b8             	mov    -0x48(%ebp),%edx
   12139:	8b 75 b0             	mov    -0x50(%ebp),%esi
   1213c:	89 f0                	mov    %esi,%eax
   1213e:	89 45 a4             	mov    %eax,-0x5c(%ebp)
   12141:	89 75 e0             	mov    %esi,-0x20(%ebp)
   12144:	89 55 e8             	mov    %edx,-0x18(%ebp)
   12147:	89 4d e4             	mov    %ecx,-0x1c(%ebp)
   1214a:	8b 4d e4             	mov    -0x1c(%ebp),%ecx
   1214d:	89 4d a8             	mov    %ecx,-0x58(%ebp)
   12150:	8b 4d e8             	mov    -0x18(%ebp),%ecx
   12153:	89 4d ac             	mov    %ecx,-0x54(%ebp)
   12156:	39 c8                	cmp    %ecx,%eax
   12158:	72 19                	jb     12173 <device.screen.write_line_number+0xd3>
   1215a:	eb 19                	jmp    12175 <device.screen.write_line_number+0xd5>
   1215c:	8b 45 b4             	mov    -0x4c(%ebp),%eax
   1215f:	8b 4d c0             	mov    -0x40(%ebp),%ecx
   12162:	8b 75 a4             	mov    -0x5c(%ebp),%esi
   12165:	8b 55 a8             	mov    -0x58(%ebp),%edx
   12168:	01 f2                	add    %esi,%edx
   1216a:	89 55 a0             	mov    %edx,-0x60(%ebp)
   1216d:	39 c8                	cmp    %ecx,%eax
   1216f:	72 39                	jb     121aa <device.screen.write_line_number+0x10a>
   12171:	eb 39                	jmp    121ac <device.screen.write_line_number+0x10c>
   12173:	eb e7                	jmp    1215c <device.screen.write_line_number+0xbc>
   12175:	8b 55 ac             	mov    -0x54(%ebp),%edx
   12178:	8b 4d a4             	mov    -0x5c(%ebp),%ecx
   1217b:	e8 50 fb ff ff       	call   11cd0 <builtin.panicOutOfBounds>
   12180:	8b 45 a4             	mov    -0x5c(%ebp),%eax
   12183:	8b 4d bc             	mov    -0x44(%ebp),%ecx
   12186:	8b 55 b8             	mov    -0x48(%ebp),%edx
   12189:	8b 75 a0             	mov    -0x60(%ebp),%esi
   1218c:	8b 7d c4             	mov    -0x3c(%ebp),%edi
   1218f:	8b 5d b4             	mov    -0x4c(%ebp),%ebx
   12192:	8a 1c 1f             	mov    (%edi,%ebx,1),%bl
   12195:	88 1e                	mov    %bl,(%esi)
   12197:	89 55 f0             	mov    %edx,-0x10(%ebp)
   1219a:	89 4d ec             	mov    %ecx,-0x14(%ebp)
   1219d:	83 c0 01             	add    $0x1,%eax
   121a0:	89 45 9c             	mov    %eax,-0x64(%ebp)
   121a3:	0f 92 c0             	setb   %al
   121a6:	72 0f                	jb     121b7 <device.screen.write_line_number+0x117>
   121a8:	eb 30                	jmp    121da <device.screen.write_line_number+0x13a>
   121aa:	eb d4                	jmp    12180 <device.screen.write_line_number+0xe0>
   121ac:	8b 55 c0             	mov    -0x40(%ebp),%edx
   121af:	8b 4d b4             	mov    -0x4c(%ebp),%ecx
   121b2:	e8 19 fb ff ff       	call   11cd0 <builtin.panicOutOfBounds>
   121b7:	8d 0d d3 ee 03 00    	lea    0x3eed3,%ecx
   121bd:	ba 10 00 00 00       	mov    $0x10,%edx
   121c2:	31 c0                	xor    %eax,%eax
   121c4:	8d 05 b8 ea 03 00    	lea    0x3eab8,%eax
   121ca:	c7 04 24 00 00 00 00 	movl   $0x0,(%esp)
   121d1:	89 44 24 04          	mov    %eax,0x4(%esp)
   121d5:	e8 d6 fa ff ff       	call   11cb0 <builtin.default_panic>
   121da:	8b 45 9c             	mov    -0x64(%ebp),%eax
   121dd:	89 45 90             	mov    %eax,-0x70(%ebp)
   121e0:	8b 4d ec             	mov    -0x14(%ebp),%ecx
   121e3:	89 4d 94             	mov    %ecx,-0x6c(%ebp)
   121e6:	8b 4d f0             	mov    -0x10(%ebp),%ecx
   121e9:	89 4d 98             	mov    %ecx,-0x68(%ebp)
   121ec:	39 c8                	cmp    %ecx,%eax
   121ee:	72 11                	jb     12201 <device.screen.write_line_number+0x161>
   121f0:	eb 11                	jmp    12203 <device.screen.write_line_number+0x163>
   121f2:	8b 45 94             	mov    -0x6c(%ebp),%eax
   121f5:	8b 4d 90             	mov    -0x70(%ebp),%ecx
   121f8:	c6 04 08 0f          	movb   $0xf,(%eax,%ecx,1)
   121fc:	e9 eb fe ff ff       	jmp    120ec <device.screen.write_line_number+0x4c>
   12201:	eb ef                	jmp    121f2 <device.screen.write_line_number+0x152>
   12203:	8b 55 98             	mov    -0x68(%ebp),%edx
   12206:	8b 4d 90             	mov    -0x70(%ebp),%ecx
   12209:	e8 c2 fa ff ff       	call   11cd0 <builtin.panicOutOfBounds>
   1220e:	66 90                	xchg   %ax,%ax

00012210 <device.screen.update_cursor>:
   12210:	55                   	push   %ebp
   12211:	89 e5                	mov    %esp,%ebp
   12213:	83 ec 20             	sub    $0x20,%esp
   12216:	89 4d f0             	mov    %ecx,-0x10(%ebp)
   12219:	89 4d f8             	mov    %ecx,-0x8(%ebp)
   1221c:	66 a1 2e 0d 04 00    	mov    0x40d2e,%ax
   12222:	66 89 45 f6          	mov    %ax,-0xa(%ebp)
   12226:	81 f9 ff ff 00 00    	cmp    $0xffff,%ecx
   1222c:	76 3f                	jbe    1226d <device.screen.update_cursor+0x5d>
   1222e:	eb 3f                	jmp    1226f <device.screen.update_cursor+0x5f>
   12230:	66 8b 4d f6          	mov    -0xa(%ebp),%cx
   12234:	8b 45 f0             	mov    -0x10(%ebp),%eax
   12237:	0f b7 c9             	movzwl %cx,%ecx
   1223a:	0f b7 d0             	movzwl %ax,%edx
   1223d:	e8 9e 10 00 00       	call   132e0 <device.screen.get_video_mode_3_offset>
   12242:	66 89 45 ec          	mov    %ax,-0x14(%ebp)
   12246:	66 89 45 fe          	mov    %ax,-0x2(%ebp)
   1224a:	b9 d4 03 00 00       	mov    $0x3d4,%ecx
   1224f:	ba 0f 00 00 00       	mov    $0xf,%edx
   12254:	e8 47 14 00 00       	call   136a0 <io.ports.outb>
   12259:	66 8b 45 ec          	mov    -0x14(%ebp),%ax
   1225d:	66 25 ff 00          	and    $0xff,%ax
   12261:	66 89 45 ee          	mov    %ax,-0x12(%ebp)
   12265:	66 3d ff 00          	cmp    $0xff,%ax
   12269:	76 61                	jbe    122cc <device.screen.update_cursor+0xbc>
   1226b:	eb 61                	jmp    122ce <device.screen.update_cursor+0xbe>
   1226d:	eb c1                	jmp    12230 <device.screen.update_cursor+0x20>
   1226f:	b9 57 ef 03 00       	mov    $0x3ef57,%ecx
   12274:	ba 1b 00 00 00       	mov    $0x1b,%edx
   12279:	31 c0                	xor    %eax,%eax
   1227b:	8d 05 b8 ea 03 00    	lea    0x3eab8,%eax
   12281:	c7 04 24 00 00 00 00 	movl   $0x0,(%esp)
   12288:	89 44 24 04          	mov    %eax,0x4(%esp)
   1228c:	e8 1f fa ff ff       	call   11cb0 <builtin.default_panic>
   12291:	66 8b 45 ee          	mov    -0x12(%ebp),%ax
   12295:	66 89 c2             	mov    %ax,%dx
   12298:	b9 d5 03 00 00       	mov    $0x3d5,%ecx
   1229d:	e8 fe 13 00 00       	call   136a0 <io.ports.outb>
   122a2:	b9 d4 03 00 00       	mov    $0x3d4,%ecx
   122a7:	ba 0e 00 00 00       	mov    $0xe,%edx
   122ac:	e8 ef 13 00 00       	call   136a0 <io.ports.outb>
   122b1:	66 8b 45 ec          	mov    -0x14(%ebp),%ax
   122b5:	66 b9 08 00          	mov    $0x8,%cx
   122b9:	66 d3 e8             	shr    %cl,%ax
   122bc:	66 25 ff 00          	and    $0xff,%ax
   122c0:	66 89 45 ea          	mov    %ax,-0x16(%ebp)
   122c4:	66 3d ff 00          	cmp    $0xff,%ax
   122c8:	76 3c                	jbe    12306 <device.screen.update_cursor+0xf6>
   122ca:	eb 3c                	jmp    12308 <device.screen.update_cursor+0xf8>
   122cc:	eb c3                	jmp    12291 <device.screen.update_cursor+0x81>
   122ce:	b9 57 ef 03 00       	mov    $0x3ef57,%ecx
   122d3:	ba 1b 00 00 00       	mov    $0x1b,%edx
   122d8:	31 c0                	xor    %eax,%eax
   122da:	8d 05 b8 ea 03 00    	lea    0x3eab8,%eax
   122e0:	c7 04 24 00 00 00 00 	movl   $0x0,(%esp)
   122e7:	89 44 24 04          	mov    %eax,0x4(%esp)
   122eb:	e8 c0 f9 ff ff       	call   11cb0 <builtin.default_panic>
   122f0:	66 8b 45 ea          	mov    -0x16(%ebp),%ax
   122f4:	b9 d5 03 00 00       	mov    $0x3d5,%ecx
   122f9:	0f b6 d0             	movzbl %al,%edx
   122fc:	e8 9f 13 00 00       	call   136a0 <io.ports.outb>
   12301:	83 c4 20             	add    $0x20,%esp
   12304:	5d                   	pop    %ebp
   12305:	c3                   	ret
   12306:	eb e8                	jmp    122f0 <device.screen.update_cursor+0xe0>
   12308:	b9 57 ef 03 00       	mov    $0x3ef57,%ecx
   1230d:	ba 1b 00 00 00       	mov    $0x1b,%edx
   12312:	31 c0                	xor    %eax,%eax
   12314:	8d 05 b8 ea 03 00    	lea    0x3eab8,%eax
   1231a:	c7 04 24 00 00 00 00 	movl   $0x0,(%esp)
   12321:	89 44 24 04          	mov    %eax,0x4(%esp)
   12325:	e8 86 f9 ff ff       	call   11cb0 <builtin.default_panic>
   1232a:	66 0f 1f 44 00 00    	nopw   0x0(%eax,%eax,1)

00012330 <fmt.bufPrint__anon_1412>:
   12330:	55                   	push   %ebp
   12331:	89 e5                	mov    %esp,%ebp
   12333:	56                   	push   %esi
   12334:	83 ec 60             	sub    $0x60,%esp
   12337:	89 55 a8             	mov    %edx,-0x58(%ebp)
   1233a:	89 4d ac             	mov    %ecx,-0x54(%ebp)
   1233d:	89 4d b0             	mov    %ecx,-0x50(%ebp)
   12340:	8b 75 0c             	mov    0xc(%ebp),%esi
   12343:	8b 4d 08             	mov    0x8(%ebp),%ecx
   12346:	89 f0                	mov    %esi,%eax
   12348:	89 ca                	mov    %ecx,%edx
   1234a:	89 75 bc             	mov    %esi,-0x44(%ebp)
   1234d:	89 4d b8             	mov    %ecx,-0x48(%ebp)
   12350:	8d 4d cc             	lea    -0x34(%ebp),%ecx
   12353:	89 04 24             	mov    %eax,(%esp)
   12356:	e8 e5 17 00 00       	call   13b40 <io.fixed_buffer_stream.fixedBufferStream__anon_1519>
   1235b:	8b 45 cc             	mov    -0x34(%ebp),%eax
   1235e:	89 45 c0             	mov    %eax,-0x40(%ebp)
   12361:	8b 45 d0             	mov    -0x30(%ebp),%eax
   12364:	89 45 c4             	mov    %eax,-0x3c(%ebp)
   12367:	8b 45 d4             	mov    -0x2c(%ebp),%eax
   1236a:	89 45 c8             	mov    %eax,-0x38(%ebp)
   1236d:	8d 4d d8             	lea    -0x28(%ebp),%ecx
   12370:	8d 55 c0             	lea    -0x40(%ebp),%edx
   12373:	e8 f8 17 00 00       	call   13b70 <io.fixed_buffer_stream.FixedBufferStream([]u8).writer>
   12378:	8b 45 d8             	mov    -0x28(%ebp),%eax
   1237b:	89 45 dc             	mov    %eax,-0x24(%ebp)
   1237e:	8d 45 dc             	lea    -0x24(%ebp),%eax
   12381:	89 45 e0             	mov    %eax,-0x20(%ebp)
   12384:	8d 45 dc             	lea    -0x24(%ebp),%eax
   12387:	89 45 ec             	mov    %eax,-0x14(%ebp)
   1238a:	8b 45 ec             	mov    -0x14(%ebp),%eax
   1238d:	89 45 e4             	mov    %eax,-0x1c(%ebp)
   12390:	8d 05 80 3b 01 00    	lea    0x13b80,%eax
   12396:	89 45 e8             	mov    %eax,-0x18(%ebp)
   12399:	8d 45 e4             	lea    -0x1c(%ebp),%eax
   1239c:	89 45 b4             	mov    %eax,-0x4c(%ebp)
   1239f:	8b 4d a8             	mov    -0x58(%ebp),%ecx
   123a2:	8b 55 b4             	mov    -0x4c(%ebp),%edx
   123a5:	e8 16 13 00 00       	call   136c0 <fmt.format__anon_1552>
   123aa:	66 89 45 a6          	mov    %ax,-0x5a(%ebp)
   123ae:	66 83 f8 00          	cmp    $0x0,%ax
   123b2:	74 3d                	je     123f1 <fmt.bufPrint__anon_1412+0xc1>
   123b4:	eb 3d                	jmp    123f3 <fmt.bufPrint__anon_1412+0xc3>
   123b6:	8d 4d c0             	lea    -0x40(%ebp),%ecx
   123b9:	e8 c2 18 00 00       	call   13c80 <io.fixed_buffer_stream.FixedBufferStream([]u8).getWritten>
   123be:	8b 4d ac             	mov    -0x54(%ebp),%ecx
   123c1:	89 c6                	mov    %eax,%esi
   123c3:	8b 45 b0             	mov    -0x50(%ebp),%eax
   123c6:	89 75 a0             	mov    %esi,-0x60(%ebp)
   123c9:	89 d6                	mov    %edx,%esi
   123cb:	8b 55 a0             	mov    -0x60(%ebp),%edx
   123ce:	66 c7 45 f8 00 00    	movw   $0x0,-0x8(%ebp)
   123d4:	89 75 f4             	mov    %esi,-0xc(%ebp)
   123d7:	89 55 f0             	mov    %edx,-0x10(%ebp)
   123da:	8b 55 f0             	mov    -0x10(%ebp),%edx
   123dd:	89 11                	mov    %edx,(%ecx)
   123df:	8b 55 f4             	mov    -0xc(%ebp),%edx
   123e2:	89 51 04             	mov    %edx,0x4(%ecx)
   123e5:	8b 55 f8             	mov    -0x8(%ebp),%edx
   123e8:	89 51 08             	mov    %edx,0x8(%ecx)
   123eb:	83 c4 60             	add    $0x60,%esp
   123ee:	5e                   	pop    %esi
   123ef:	5d                   	pop    %ebp
   123f0:	c3                   	ret
   123f1:	eb c3                	jmp    123b6 <fmt.bufPrint__anon_1412+0x86>
   123f3:	66 8b 45 a6          	mov    -0x5a(%ebp),%ax
   123f7:	66 83 e8 01          	sub    $0x1,%ax
   123fb:	74 11                	je     1240e <fmt.bufPrint__anon_1412+0xde>
   123fd:	eb 00                	jmp    123ff <fmt.bufPrint__anon_1412+0xcf>
   123ff:	66 8b 45 a6          	mov    -0x5a(%ebp),%ax
   12403:	8b 4d a8             	mov    -0x58(%ebp),%ecx
   12406:	0f b7 d0             	movzwl %ax,%edx
   12409:	e8 32 18 00 00       	call   13c40 <builtin.panicUnwrapError>
   1240e:	8b 4d a8             	mov    -0x58(%ebp),%ecx
   12411:	e8 6a 15 00 00       	call   13980 <builtin.returnError>
   12416:	8b 4d ac             	mov    -0x54(%ebp),%ecx
   12419:	8b 45 b0             	mov    -0x50(%ebp),%eax
   1241c:	8b 15 18 e3 03 00    	mov    0x3e318,%edx
   12422:	89 11                	mov    %edx,(%ecx)
   12424:	8b 15 1c e3 03 00    	mov    0x3e31c,%edx
   1242a:	89 51 04             	mov    %edx,0x4(%ecx)
   1242d:	8b 15 20 e3 03 00    	mov    0x3e320,%edx
   12433:	89 51 08             	mov    %edx,0x8(%ecx)
   12436:	83 c4 60             	add    $0x60,%esp
   12439:	5e                   	pop    %esi
   1243a:	5d                   	pop    %ebp
   1243b:	c3                   	ret
   1243c:	0f 1f 40 00          	nopl   0x0(%eax)

00012440 <debug.panicExtra__anon_1413>:
   12440:	55                   	push   %ebp
   12441:	89 e5                	mov    %esp,%ebp
   12443:	57                   	push   %edi
   12444:	56                   	push   %esi
   12445:	b8 ec 10 00 00       	mov    $0x10ec,%eax
   1244a:	e8 91 9f 02 00       	call   3c3e0 <__zig_probe_stack>
   1244f:	29 c4                	sub    %eax,%esp
   12451:	89 95 24 ef ff ff    	mov    %edx,-0x10dc(%ebp)
   12457:	89 8d 28 ef ff ff    	mov    %ecx,-0x10d8(%ebp)
   1245d:	8b 45 08             	mov    0x8(%ebp),%eax
   12460:	89 85 2c ef ff ff    	mov    %eax,-0x10d4(%ebp)
   12466:	89 8d 38 ef ff ff    	mov    %ecx,-0x10c8(%ebp)
   1246c:	8d 85 3c ef ff ff    	lea    -0x10c4(%ebp),%eax
   12472:	89 85 c0 ef ff ff    	mov    %eax,-0x1040(%ebp)
   12478:	c7 85 c4 ef ff ff 20 	movl   $0x20,-0x103c(%ebp)
   1247f:	00 00 00 
   12482:	c7 85 bc ef ff ff 00 	movl   $0x0,-0x1044(%ebp)
   12489:	00 00 00 
   1248c:	8b 85 bc ef ff ff    	mov    -0x1044(%ebp),%eax
   12492:	89 85 30 ef ff ff    	mov    %eax,-0x10d0(%ebp)
   12498:	8d 05 73 ef 03 00    	lea    0x3ef73,%eax
   1249e:	89 85 c8 ef ff ff    	mov    %eax,-0x1038(%ebp)
   124a4:	8d 85 cd ef ff ff    	lea    -0x1033(%ebp),%eax
   124aa:	89 04 24             	mov    %eax,(%esp)
   124ad:	c7 44 24 04 aa 00 00 	movl   $0xaa,0x4(%esp)
   124b4:	00 
   124b5:	c7 44 24 08 0f 10 00 	movl   $0x100f,0x8(%esp)
   124bc:	00 
   124bd:	e8 3e a0 02 00       	call   3c500 <memset>
   124c2:	8d 85 cd ef ff ff    	lea    -0x1033(%ebp),%eax
   124c8:	89 85 34 ef ff ff    	mov    %eax,-0x10cc(%ebp)
   124ce:	b8 00 10 00 00       	mov    $0x1000,%eax
   124d3:	3d 0f 10 00 00       	cmp    $0x100f,%eax
   124d8:	76 35                	jbe    1250f <debug.panicExtra__anon_1413+0xcf>
   124da:	eb 35                	jmp    12511 <debug.panicExtra__anon_1413+0xd1>
   124dc:	8b 85 2c ef ff ff    	mov    -0x10d4(%ebp),%eax
   124e2:	8b bd 34 ef ff ff    	mov    -0x10cc(%ebp),%edi
   124e8:	be 00 10 00 00       	mov    $0x1000,%esi
   124ed:	8d 4d dc             	lea    -0x24(%ebp),%ecx
   124f0:	8d 95 bc ef ff ff    	lea    -0x1044(%ebp),%edx
   124f6:	89 3c 24             	mov    %edi,(%esp)
   124f9:	89 74 24 04          	mov    %esi,0x4(%esp)
   124fd:	89 44 24 08          	mov    %eax,0x8(%esp)
   12501:	e8 fa 17 00 00       	call   13d00 <fmt.bufPrint__anon_2036>
   12506:	66 83 7d e4 00       	cmpw   $0x0,-0x1c(%ebp)
   1250b:	74 49                	je     12556 <debug.panicExtra__anon_1413+0x116>
   1250d:	eb 5b                	jmp    1256a <debug.panicExtra__anon_1413+0x12a>
   1250f:	eb cb                	jmp    124dc <debug.panicExtra__anon_1413+0x9c>
   12511:	b9 00 10 00 00       	mov    $0x1000,%ecx
   12516:	ba 0f 10 00 00       	mov    $0x100f,%edx
   1251b:	e8 b0 f7 ff ff       	call   11cd0 <builtin.panicOutOfBounds>
   12520:	8b 85 24 ef ff ff    	mov    -0x10dc(%ebp),%eax
   12526:	8b b5 28 ef ff ff    	mov    -0x10d8(%ebp),%esi
   1252c:	8b 8d 20 ef ff ff    	mov    -0x10e0(%ebp),%ecx
   12532:	8b 95 1c ef ff ff    	mov    -0x10e4(%ebp),%edx
   12538:	89 4d e8             	mov    %ecx,-0x18(%ebp)
   1253b:	89 55 ec             	mov    %edx,-0x14(%ebp)
   1253e:	89 55 f4             	mov    %edx,-0xc(%ebp)
   12541:	89 4d f0             	mov    %ecx,-0x10(%ebp)
   12544:	8b 4d f0             	mov    -0x10(%ebp),%ecx
   12547:	8b 55 f4             	mov    -0xc(%ebp),%edx
   1254a:	89 34 24             	mov    %esi,(%esp)
   1254d:	89 44 24 04          	mov    %eax,0x4(%esp)
   12551:	e8 5a f7 ff ff       	call   11cb0 <builtin.default_panic>
   12556:	8b 4d dc             	mov    -0x24(%ebp),%ecx
   12559:	8b 45 e0             	mov    -0x20(%ebp),%eax
   1255c:	89 8d 20 ef ff ff    	mov    %ecx,-0x10e0(%ebp)
   12562:	89 85 1c ef ff ff    	mov    %eax,-0x10e4(%ebp)
   12568:	eb b6                	jmp    12520 <debug.panicExtra__anon_1413+0xe0>
   1256a:	66 8b 45 e4          	mov    -0x1c(%ebp),%ax
   1256e:	66 83 e8 01          	sub    $0x1,%ax
   12572:	74 24                	je     12598 <debug.panicExtra__anon_1413+0x158>
   12574:	eb 00                	jmp    12576 <debug.panicExtra__anon_1413+0x136>
   12576:	b9 aa f0 03 00       	mov    $0x3f0aa,%ecx
   1257b:	ba 17 00 00 00       	mov    $0x17,%edx
   12580:	31 c0                	xor    %eax,%eax
   12582:	8d 05 b8 ea 03 00    	lea    0x3eab8,%eax
   12588:	c7 04 24 00 00 00 00 	movl   $0x0,(%esp)
   1258f:	89 44 24 04          	mov    %eax,0x4(%esp)
   12593:	e8 18 f7 ff ff       	call   11cb0 <builtin.default_panic>
   12598:	8d 85 cd ef ff ff    	lea    -0x1033(%ebp),%eax
   1259e:	05 00 10 00 00       	add    $0x1000,%eax
   125a3:	89 85 18 ef ff ff    	mov    %eax,-0x10e8(%ebp)
   125a9:	eb 2c                	jmp    125d7 <debug.panicExtra__anon_1413+0x197>
   125ab:	8b 85 18 ef ff ff    	mov    -0x10e8(%ebp),%eax
   125b1:	89 c2                	mov    %eax,%edx
   125b3:	83 c2 0f             	add    $0xf,%edx
   125b6:	8d 0d 73 ef 03 00    	lea    0x3ef73,%ecx
   125bc:	83 c1 0f             	add    $0xf,%ecx
   125bf:	39 c8                	cmp    %ecx,%eax
   125c1:	0f 93 c0             	setae  %al
   125c4:	8d 0d 73 ef 03 00    	lea    0x3ef73,%ecx
   125ca:	39 d1                	cmp    %edx,%ecx
   125cc:	0f 93 c1             	setae  %cl
   125cf:	08 c8                	or     %cl,%al
   125d1:	a8 01                	test   $0x1,%al
   125d3:	75 59                	jne    1262e <debug.panicExtra__anon_1413+0x1ee>
   125d5:	eb 59                	jmp    12630 <debug.panicExtra__anon_1413+0x1f0>
   125d7:	eb d2                	jmp    125ab <debug.panicExtra__anon_1413+0x16b>
   125d9:	ba 0f 10 00 00       	mov    $0x100f,%edx
   125de:	89 d1                	mov    %edx,%ecx
   125e0:	e8 eb f6 ff ff       	call   11cd0 <builtin.panicOutOfBounds>
   125e5:	8b 85 30 ef ff ff    	mov    -0x10d0(%ebp),%eax
   125eb:	8b 8d 18 ef ff ff    	mov    -0x10e8(%ebp),%ecx
   125f1:	c7 41 0b 74 65 64 29 	movl   $0x29646574,0xb(%ecx)
   125f8:	c7 41 08 6e 63 61 74 	movl   $0x7461636e,0x8(%ecx)
   125ff:	c7 41 04 20 74 72 75 	movl   $0x75727420,0x4(%ecx)
   12606:	c7 01 28 6d 73 67    	movl   $0x67736d28,(%ecx)
   1260c:	89 85 bc ef ff ff    	mov    %eax,-0x1044(%ebp)
   12612:	b8 0f 10 00 00       	mov    $0x100f,%eax
   12617:	8d 8d cd ef ff ff    	lea    -0x1033(%ebp),%ecx
   1261d:	89 8d 20 ef ff ff    	mov    %ecx,-0x10e0(%ebp)
   12623:	89 85 1c ef ff ff    	mov    %eax,-0x10e4(%ebp)
   12629:	e9 f2 fe ff ff       	jmp    12520 <debug.panicExtra__anon_1413+0xe0>
   1262e:	eb b5                	jmp    125e5 <debug.panicExtra__anon_1413+0x1a5>
   12630:	b9 13 f0 03 00       	mov    $0x3f013,%ecx
   12635:	ba 17 00 00 00       	mov    $0x17,%edx
   1263a:	31 c0                	xor    %eax,%eax
   1263c:	8d 05 b8 ea 03 00    	lea    0x3eab8,%eax
   12642:	c7 04 24 00 00 00 00 	movl   $0x0,(%esp)
   12649:	89 44 24 04          	mov    %eax,0x4(%esp)
   1264d:	e8 5e f6 ff ff       	call   11cb0 <builtin.default_panic>
   12652:	66 2e 0f 1f 84 00 00 	nopw   %cs:0x0(%eax,%eax,1)
   12659:	00 00 00 
   1265c:	0f 1f 40 00          	nopl   0x0(%eax)

00012660 <mem.sliceAsBytes__anon_1414>:
   12660:	55                   	push   %ebp
   12661:	89 e5                	mov    %esp,%ebp
   12663:	56                   	push   %esi
   12664:	83 ec 1c             	sub    $0x1c,%esp
   12667:	89 d0                	mov    %edx,%eax
   12669:	89 c2                	mov    %eax,%edx
   1266b:	89 55 e8             	mov    %edx,-0x18(%ebp)
   1266e:	89 ce                	mov    %ecx,%esi
   12670:	89 75 ec             	mov    %esi,-0x14(%ebp)
   12673:	89 45 f4             	mov    %eax,-0xc(%ebp)
   12676:	89 4d f0             	mov    %ecx,-0x10(%ebp)
   12679:	83 fa 00             	cmp    $0x0,%edx
   1267c:	74 22                	je     126a0 <mem.sliceAsBytes__anon_1414+0x40>
   1267e:	eb 22                	jmp    126a2 <mem.sliceAsBytes__anon_1414+0x42>
   12680:	8b 4d e8             	mov    -0x18(%ebp),%ecx
   12683:	8b 45 ec             	mov    -0x14(%ebp),%eax
   12686:	89 45 f8             	mov    %eax,-0x8(%ebp)
   12689:	8b 45 f8             	mov    -0x8(%ebp),%eax
   1268c:	89 45 e4             	mov    %eax,-0x1c(%ebp)
   1268f:	31 c0                	xor    %eax,%eax
   12691:	39 c8                	cmp    %ecx,%eax
   12693:	76 35                	jbe    126ca <mem.sliceAsBytes__anon_1414+0x6a>
   12695:	eb 35                	jmp    126cc <mem.sliceAsBytes__anon_1414+0x6c>
   12697:	8a 45 e3             	mov    -0x1d(%ebp),%al
   1269a:	a8 01                	test   $0x1,%al
   1269c:	75 12                	jne    126b0 <mem.sliceAsBytes__anon_1414+0x50>
   1269e:	eb 1d                	jmp    126bd <mem.sliceAsBytes__anon_1414+0x5d>
   126a0:	eb 07                	jmp    126a9 <mem.sliceAsBytes__anon_1414+0x49>
   126a2:	31 c0                	xor    %eax,%eax
   126a4:	88 45 e3             	mov    %al,-0x1d(%ebp)
   126a7:	eb ee                	jmp    12697 <mem.sliceAsBytes__anon_1414+0x37>
   126a9:	b0 01                	mov    $0x1,%al
   126ab:	88 45 e3             	mov    %al,-0x1d(%ebp)
   126ae:	eb e7                	jmp    12697 <mem.sliceAsBytes__anon_1414+0x37>
   126b0:	b8 aa aa aa aa       	mov    $0xaaaaaaaa,%eax
   126b5:	31 d2                	xor    %edx,%edx
   126b7:	83 c4 1c             	add    $0x1c,%esp
   126ba:	5e                   	pop    %esi
   126bb:	5d                   	pop    %ebp
   126bc:	c3                   	ret
   126bd:	eb c1                	jmp    12680 <mem.sliceAsBytes__anon_1414+0x20>
   126bf:	8b 4d e8             	mov    -0x18(%ebp),%ecx
   126c2:	31 c0                	xor    %eax,%eax
   126c4:	39 c8                	cmp    %ecx,%eax
   126c6:	76 1a                	jbe    126e2 <mem.sliceAsBytes__anon_1414+0x82>
   126c8:	eb 1a                	jmp    126e4 <mem.sliceAsBytes__anon_1414+0x84>
   126ca:	eb f3                	jmp    126bf <mem.sliceAsBytes__anon_1414+0x5f>
   126cc:	8b 55 e8             	mov    -0x18(%ebp),%edx
   126cf:	31 c9                	xor    %ecx,%ecx
   126d1:	e8 9a f9 ff ff       	call   12070 <builtin.panicStartGreaterThanEnd>
   126d6:	8b 55 e8             	mov    -0x18(%ebp),%edx
   126d9:	8b 45 e4             	mov    -0x1c(%ebp),%eax
   126dc:	83 c4 1c             	add    $0x1c,%esp
   126df:	5e                   	pop    %esi
   126e0:	5d                   	pop    %ebp
   126e1:	c3                   	ret
   126e2:	eb f2                	jmp    126d6 <mem.sliceAsBytes__anon_1414+0x76>
   126e4:	8b 55 e8             	mov    -0x18(%ebp),%edx
   126e7:	31 c9                	xor    %ecx,%ecx
   126e9:	e8 e2 f5 ff ff       	call   11cd0 <builtin.panicOutOfBounds>
   126ee:	66 90                	xchg   %ax,%ax

000126f0 <mem.eqlBytes>:
   126f0:	55                   	push   %ebp
   126f1:	89 e5                	mov    %esp,%ebp
   126f3:	53                   	push   %ebx
   126f4:	57                   	push   %edi
   126f5:	56                   	push   %esi
   126f6:	83 e4 f0             	and    $0xfffffff0,%esp
   126f9:	81 ec 20 02 00 00    	sub    $0x220,%esp
   126ff:	89 d3                	mov    %edx,%ebx
   12701:	89 cf                	mov    %ecx,%edi
   12703:	8b 75 0c             	mov    0xc(%ebp),%esi
   12706:	8b 4d 08             	mov    0x8(%ebp),%ecx
   12709:	89 da                	mov    %ebx,%edx
   1270b:	89 94 24 ec 00 00 00 	mov    %edx,0xec(%esp)
   12712:	89 f8                	mov    %edi,%eax
   12714:	89 84 24 f0 00 00 00 	mov    %eax,0xf0(%esp)
   1271b:	89 f0                	mov    %esi,%eax
   1271d:	89 84 24 f8 00 00 00 	mov    %eax,0xf8(%esp)
   12724:	89 c8                	mov    %ecx,%eax
   12726:	89 84 24 f4 00 00 00 	mov    %eax,0xf4(%esp)
   1272d:	8b 84 24 f8 00 00 00 	mov    0xf8(%esp),%eax
   12734:	89 9c 24 00 01 00 00 	mov    %ebx,0x100(%esp)
   1273b:	89 bc 24 fc 00 00 00 	mov    %edi,0xfc(%esp)
   12742:	89 b4 24 08 01 00 00 	mov    %esi,0x108(%esp)
   12749:	89 8c 24 04 01 00 00 	mov    %ecx,0x104(%esp)
   12750:	39 c2                	cmp    %eax,%edx
   12752:	75 10                	jne    12764 <mem.eqlBytes+0x74>
   12754:	eb 18                	jmp    1276e <mem.eqlBytes+0x7e>
   12756:	8b 84 24 ec 00 00 00 	mov    0xec(%esp),%eax
   1275d:	83 f8 00             	cmp    $0x0,%eax
   12760:	74 29                	je     1278b <mem.eqlBytes+0x9b>
   12762:	eb 32                	jmp    12796 <mem.eqlBytes+0xa6>
   12764:	31 c0                	xor    %eax,%eax
   12766:	8d 65 f4             	lea    -0xc(%ebp),%esp
   12769:	5e                   	pop    %esi
   1276a:	5f                   	pop    %edi
   1276b:	5b                   	pop    %ebx
   1276c:	5d                   	pop    %ebp
   1276d:	c3                   	ret
   1276e:	eb e6                	jmp    12756 <mem.eqlBytes+0x66>
   12770:	8b 84 24 ec 00 00 00 	mov    0xec(%esp),%eax
   12777:	83 f8 10             	cmp    $0x10,%eax
   1277a:	76 52                	jbe    127ce <mem.eqlBytes+0xde>
   1277c:	eb 5e                	jmp    127dc <mem.eqlBytes+0xec>
   1277e:	8a 84 24 eb 00 00 00 	mov    0xeb(%esp),%al
   12785:	a8 01                	test   $0x1,%al
   12787:	75 29                	jne    127b2 <mem.eqlBytes+0xc2>
   12789:	eb 31                	jmp    127bc <mem.eqlBytes+0xcc>
   1278b:	b0 01                	mov    $0x1,%al
   1278d:	88 84 24 eb 00 00 00 	mov    %al,0xeb(%esp)
   12794:	eb e8                	jmp    1277e <mem.eqlBytes+0x8e>
   12796:	8b 84 24 f0 00 00 00 	mov    0xf0(%esp),%eax
   1279d:	8b 8c 24 f4 00 00 00 	mov    0xf4(%esp),%ecx
   127a4:	39 c8                	cmp    %ecx,%eax
   127a6:	0f 94 c0             	sete   %al
   127a9:	88 84 24 eb 00 00 00 	mov    %al,0xeb(%esp)
   127b0:	eb cc                	jmp    1277e <mem.eqlBytes+0x8e>
   127b2:	b0 01                	mov    $0x1,%al
   127b4:	8d 65 f4             	lea    -0xc(%ebp),%esp
   127b7:	5e                   	pop    %esi
   127b8:	5f                   	pop    %edi
   127b9:	5b                   	pop    %ebx
   127ba:	5d                   	pop    %ebp
   127bb:	c3                   	ret
   127bc:	eb b2                	jmp    12770 <mem.eqlBytes+0x80>
   127be:	c7 84 24 3c 01 00 00 	movl   $0x1,0x13c(%esp)
   127c5:	01 00 00 00 
   127c9:	e9 22 05 00 00       	jmp    12cf0 <mem.eqlBytes+0x600>
   127ce:	8b 84 24 ec 00 00 00 	mov    0xec(%esp),%eax
   127d5:	83 f8 04             	cmp    $0x4,%eax
   127d8:	72 39                	jb     12813 <mem.eqlBytes+0x123>
   127da:	eb 46                	jmp    12822 <mem.eqlBytes+0x132>
   127dc:	eb e0                	jmp    127be <mem.eqlBytes+0xce>
   127de:	8b 84 24 ec 00 00 00 	mov    0xec(%esp),%eax
   127e5:	c7 84 24 10 01 00 00 	movl   $0x0,0x110(%esp)
   127ec:	00 00 00 00 
   127f0:	c7 84 24 14 01 00 00 	movl   $0x0,0x114(%esp)
   127f7:	00 00 00 00 
   127fb:	83 e8 04             	sub    $0x4,%eax
   127fe:	89 84 24 e4 00 00 00 	mov    %eax,0xe4(%esp)
   12805:	0f 92 c0             	setb   %al
   12808:	0f 82 20 02 00 00    	jb     12a2e <mem.eqlBytes+0x33e>
   1280e:	e9 3e 02 00 00       	jmp    12a51 <mem.eqlBytes+0x361>
   12813:	8b 8c 24 ec 00 00 00 	mov    0xec(%esp),%ecx
   1281a:	31 c0                	xor    %eax,%eax
   1281c:	39 c8                	cmp    %ecx,%eax
   1281e:	72 23                	jb     12843 <mem.eqlBytes+0x153>
   12820:	eb 23                	jmp    12845 <mem.eqlBytes+0x155>
   12822:	eb ba                	jmp    127de <mem.eqlBytes+0xee>
   12824:	8b 8c 24 f8 00 00 00 	mov    0xf8(%esp),%ecx
   1282b:	8b 84 24 f0 00 00 00 	mov    0xf0(%esp),%eax
   12832:	8a 00                	mov    (%eax),%al
   12834:	88 84 24 e3 00 00 00 	mov    %al,0xe3(%esp)
   1283b:	31 c0                	xor    %eax,%eax
   1283d:	39 c8                	cmp    %ecx,%eax
   1283f:	72 41                	jb     12882 <mem.eqlBytes+0x192>
   12841:	eb 41                	jmp    12884 <mem.eqlBytes+0x194>
   12843:	eb df                	jmp    12824 <mem.eqlBytes+0x134>
   12845:	8b 94 24 ec 00 00 00 	mov    0xec(%esp),%edx
   1284c:	31 c9                	xor    %ecx,%ecx
   1284e:	e8 7d f4 ff ff       	call   11cd0 <builtin.panicOutOfBounds>
   12853:	8b 84 24 ec 00 00 00 	mov    0xec(%esp),%eax
   1285a:	8b 94 24 f4 00 00 00 	mov    0xf4(%esp),%edx
   12861:	8a 8c 24 e3 00 00 00 	mov    0xe3(%esp),%cl
   12868:	32 0a                	xor    (%edx),%cl
   1286a:	88 8c 24 db 00 00 00 	mov    %cl,0xdb(%esp)
   12871:	83 e8 01             	sub    $0x1,%eax
   12874:	89 84 24 dc 00 00 00 	mov    %eax,0xdc(%esp)
   1287b:	0f 92 c0             	setb   %al
   1287e:	72 12                	jb     12892 <mem.eqlBytes+0x1a2>
   12880:	eb 33                	jmp    128b5 <mem.eqlBytes+0x1c5>
   12882:	eb cf                	jmp    12853 <mem.eqlBytes+0x163>
   12884:	8b 94 24 f8 00 00 00 	mov    0xf8(%esp),%edx
   1288b:	31 c9                	xor    %ecx,%ecx
   1288d:	e8 3e f4 ff ff       	call   11cd0 <builtin.panicOutOfBounds>
   12892:	8d 0d d3 ee 03 00    	lea    0x3eed3,%ecx
   12898:	ba 10 00 00 00       	mov    $0x10,%edx
   1289d:	31 c0                	xor    %eax,%eax
   1289f:	8d 05 b8 ea 03 00    	lea    0x3eab8,%eax
   128a5:	c7 04 24 00 00 00 00 	movl   $0x0,(%esp)
   128ac:	89 44 24 04          	mov    %eax,0x4(%esp)
   128b0:	e8 fb f3 ff ff       	call   11cb0 <builtin.default_panic>
   128b5:	8b 84 24 dc 00 00 00 	mov    0xdc(%esp),%eax
   128bc:	8b 8c 24 ec 00 00 00 	mov    0xec(%esp),%ecx
   128c3:	39 c8                	cmp    %ecx,%eax
   128c5:	72 32                	jb     128f9 <mem.eqlBytes+0x209>
   128c7:	eb 32                	jmp    128fb <mem.eqlBytes+0x20b>
   128c9:	8b 84 24 ec 00 00 00 	mov    0xec(%esp),%eax
   128d0:	8b 8c 24 f0 00 00 00 	mov    0xf0(%esp),%ecx
   128d7:	8b 94 24 dc 00 00 00 	mov    0xdc(%esp),%edx
   128de:	8a 0c 11             	mov    (%ecx,%edx,1),%cl
   128e1:	88 8c 24 d3 00 00 00 	mov    %cl,0xd3(%esp)
   128e8:	83 e8 01             	sub    $0x1,%eax
   128eb:	89 84 24 d4 00 00 00 	mov    %eax,0xd4(%esp)
   128f2:	0f 92 c0             	setb   %al
   128f5:	72 17                	jb     1290e <mem.eqlBytes+0x21e>
   128f7:	eb 38                	jmp    12931 <mem.eqlBytes+0x241>
   128f9:	eb ce                	jmp    128c9 <mem.eqlBytes+0x1d9>
   128fb:	8b 94 24 ec 00 00 00 	mov    0xec(%esp),%edx
   12902:	8b 8c 24 dc 00 00 00 	mov    0xdc(%esp),%ecx
   12909:	e8 c2 f3 ff ff       	call   11cd0 <builtin.panicOutOfBounds>
   1290e:	8d 0d d3 ee 03 00    	lea    0x3eed3,%ecx
   12914:	ba 10 00 00 00       	mov    $0x10,%edx
   12919:	31 c0                	xor    %eax,%eax
   1291b:	8d 05 b8 ea 03 00    	lea    0x3eab8,%eax
   12921:	c7 04 24 00 00 00 00 	movl   $0x0,(%esp)
   12928:	89 44 24 04          	mov    %eax,0x4(%esp)
   1292c:	e8 7f f3 ff ff       	call   11cb0 <builtin.default_panic>
   12931:	8b 84 24 d4 00 00 00 	mov    0xd4(%esp),%eax
   12938:	8b 8c 24 f8 00 00 00 	mov    0xf8(%esp),%ecx
   1293f:	39 c8                	cmp    %ecx,%eax
   12941:	72 42                	jb     12985 <mem.eqlBytes+0x295>
   12943:	eb 42                	jmp    12987 <mem.eqlBytes+0x297>
   12945:	8b 8c 24 ec 00 00 00 	mov    0xec(%esp),%ecx
   1294c:	8a 84 24 db 00 00 00 	mov    0xdb(%esp),%al
   12953:	8b b4 24 f4 00 00 00 	mov    0xf4(%esp),%esi
   1295a:	8b bc 24 d4 00 00 00 	mov    0xd4(%esp),%edi
   12961:	8a 94 24 d3 00 00 00 	mov    0xd3(%esp),%dl
   12968:	32 14 3e             	xor    (%esi,%edi,1),%dl
   1296b:	08 d0                	or     %dl,%al
   1296d:	88 84 24 cb 00 00 00 	mov    %al,0xcb(%esp)
   12974:	89 c8                	mov    %ecx,%eax
   12976:	d1 e8                	shr    $1,%eax
   12978:	89 84 24 cc 00 00 00 	mov    %eax,0xcc(%esp)
   1297f:	39 c8                	cmp    %ecx,%eax
   12981:	72 4c                	jb     129cf <mem.eqlBytes+0x2df>
   12983:	eb 4c                	jmp    129d1 <mem.eqlBytes+0x2e1>
   12985:	eb be                	jmp    12945 <mem.eqlBytes+0x255>
   12987:	8b 94 24 f8 00 00 00 	mov    0xf8(%esp),%edx
   1298e:	8b 8c 24 d4 00 00 00 	mov    0xd4(%esp),%ecx
   12995:	e8 36 f3 ff ff       	call   11cd0 <builtin.panicOutOfBounds>
   1299a:	8b 8c 24 f8 00 00 00 	mov    0xf8(%esp),%ecx
   129a1:	8b 84 24 ec 00 00 00 	mov    0xec(%esp),%eax
   129a8:	8b 94 24 f0 00 00 00 	mov    0xf0(%esp),%edx
   129af:	8b b4 24 cc 00 00 00 	mov    0xcc(%esp),%esi
   129b6:	8a 14 32             	mov    (%edx,%esi,1),%dl
   129b9:	88 94 24 c3 00 00 00 	mov    %dl,0xc3(%esp)
   129c0:	d1 e8                	shr    $1,%eax
   129c2:	89 84 24 c4 00 00 00 	mov    %eax,0xc4(%esp)
   129c9:	39 c8                	cmp    %ecx,%eax
   129cb:	72 4c                	jb     12a19 <mem.eqlBytes+0x329>
   129cd:	eb 4c                	jmp    12a1b <mem.eqlBytes+0x32b>
   129cf:	eb c9                	jmp    1299a <mem.eqlBytes+0x2aa>
   129d1:	8b 94 24 ec 00 00 00 	mov    0xec(%esp),%edx
   129d8:	8b 8c 24 cc 00 00 00 	mov    0xcc(%esp),%ecx
   129df:	e8 ec f2 ff ff       	call   11cd0 <builtin.panicOutOfBounds>
   129e4:	8a 84 24 cb 00 00 00 	mov    0xcb(%esp),%al
   129eb:	8a 8c 24 c3 00 00 00 	mov    0xc3(%esp),%cl
   129f2:	8b 94 24 f4 00 00 00 	mov    0xf4(%esp),%edx
   129f9:	8b b4 24 c4 00 00 00 	mov    0xc4(%esp),%esi
   12a00:	8a 14 32             	mov    (%edx,%esi,1),%dl
   12a03:	30 d1                	xor    %dl,%cl
   12a05:	08 c8                	or     %cl,%al
   12a07:	88 84 24 0f 01 00 00 	mov    %al,0x10f(%esp)
   12a0e:	0f 94 c0             	sete   %al
   12a11:	8d 65 f4             	lea    -0xc(%ebp),%esp
   12a14:	5e                   	pop    %esi
   12a15:	5f                   	pop    %edi
   12a16:	5b                   	pop    %ebx
   12a17:	5d                   	pop    %ebp
   12a18:	c3                   	ret
   12a19:	eb c9                	jmp    129e4 <mem.eqlBytes+0x2f4>
   12a1b:	8b 94 24 f8 00 00 00 	mov    0xf8(%esp),%edx
   12a22:	8b 8c 24 c4 00 00 00 	mov    0xc4(%esp),%ecx
   12a29:	e8 a2 f2 ff ff       	call   11cd0 <builtin.panicOutOfBounds>
   12a2e:	8d 0d d3 ee 03 00    	lea    0x3eed3,%ecx
   12a34:	ba 10 00 00 00       	mov    $0x10,%edx
   12a39:	31 c0                	xor    %eax,%eax
   12a3b:	8d 05 b8 ea 03 00    	lea    0x3eab8,%eax
   12a41:	c7 04 24 00 00 00 00 	movl   $0x0,(%esp)
   12a48:	89 44 24 04          	mov    %eax,0x4(%esp)
   12a4c:	e8 5f f2 ff ff       	call   11cb0 <builtin.default_panic>
   12a51:	8b 84 24 ec 00 00 00 	mov    0xec(%esp),%eax
   12a58:	c1 e8 03             	shr    $0x3,%eax
   12a5b:	b9 04 00 00 00       	mov    $0x4,%ecx
   12a60:	f7 e1                	mul    %ecx
   12a62:	89 84 24 bc 00 00 00 	mov    %eax,0xbc(%esp)
   12a69:	0f 90 c0             	seto   %al
   12a6c:	70 02                	jo     12a70 <mem.eqlBytes+0x380>
   12a6e:	eb 23                	jmp    12a93 <mem.eqlBytes+0x3a3>
   12a70:	8d 0d d3 ee 03 00    	lea    0x3eed3,%ecx
   12a76:	ba 10 00 00 00       	mov    $0x10,%edx
   12a7b:	31 c0                	xor    %eax,%eax
   12a7d:	8d 05 b8 ea 03 00    	lea    0x3eab8,%eax
   12a83:	c7 04 24 00 00 00 00 	movl   $0x0,(%esp)
   12a8a:	89 44 24 04          	mov    %eax,0x4(%esp)
   12a8e:	e8 1d f2 ff ff       	call   11cb0 <builtin.default_panic>
   12a93:	8b 84 24 ec 00 00 00 	mov    0xec(%esp),%eax
   12a9a:	83 e8 04             	sub    $0x4,%eax
   12a9d:	89 84 24 b8 00 00 00 	mov    %eax,0xb8(%esp)
   12aa4:	0f 92 c0             	setb   %al
   12aa7:	72 02                	jb     12aab <mem.eqlBytes+0x3bb>
   12aa9:	eb 23                	jmp    12ace <mem.eqlBytes+0x3de>
   12aab:	8d 0d d3 ee 03 00    	lea    0x3eed3,%ecx
   12ab1:	ba 10 00 00 00       	mov    $0x10,%edx
   12ab6:	31 c0                	xor    %eax,%eax
   12ab8:	8d 05 b8 ea 03 00    	lea    0x3eab8,%eax
   12abe:	c7 04 24 00 00 00 00 	movl   $0x0,(%esp)
   12ac5:	89 44 24 04          	mov    %eax,0x4(%esp)
   12ac9:	e8 e2 f1 ff ff       	call   11cb0 <builtin.default_panic>
   12ace:	8b 84 24 ec 00 00 00 	mov    0xec(%esp),%eax
   12ad5:	c1 e8 03             	shr    $0x3,%eax
   12ad8:	b9 04 00 00 00       	mov    $0x4,%ecx
   12add:	f7 e1                	mul    %ecx
   12adf:	89 84 24 b4 00 00 00 	mov    %eax,0xb4(%esp)
   12ae6:	0f 90 c0             	seto   %al
   12ae9:	70 02                	jo     12aed <mem.eqlBytes+0x3fd>
   12aeb:	eb 23                	jmp    12b10 <mem.eqlBytes+0x420>
   12aed:	8d 0d d3 ee 03 00    	lea    0x3eed3,%ecx
   12af3:	ba 10 00 00 00       	mov    $0x10,%edx
   12af8:	31 c0                	xor    %eax,%eax
   12afa:	8d 05 b8 ea 03 00    	lea    0x3eab8,%eax
   12b00:	c7 04 24 00 00 00 00 	movl   $0x0,(%esp)
   12b07:	89 44 24 04          	mov    %eax,0x4(%esp)
   12b0b:	e8 a0 f1 ff ff       	call   11cb0 <builtin.default_panic>
   12b10:	8b 8c 24 b4 00 00 00 	mov    0xb4(%esp),%ecx
   12b17:	8b 84 24 b8 00 00 00 	mov    0xb8(%esp),%eax
   12b1e:	29 c8                	sub    %ecx,%eax
   12b20:	89 84 24 b0 00 00 00 	mov    %eax,0xb0(%esp)
   12b27:	0f 92 c0             	setb   %al
   12b2a:	72 02                	jb     12b2e <mem.eqlBytes+0x43e>
   12b2c:	eb 23                	jmp    12b51 <mem.eqlBytes+0x461>
   12b2e:	8d 0d d3 ee 03 00    	lea    0x3eed3,%ecx
   12b34:	ba 10 00 00 00       	mov    $0x10,%edx
   12b39:	31 c0                	xor    %eax,%eax
   12b3b:	8d 05 b8 ea 03 00    	lea    0x3eab8,%eax
   12b41:	c7 04 24 00 00 00 00 	movl   $0x0,(%esp)
   12b48:	89 44 24 04          	mov    %eax,0x4(%esp)
   12b4c:	e8 5f f1 ff ff       	call   11cb0 <builtin.default_panic>
   12b51:	8b 84 24 b0 00 00 00 	mov    0xb0(%esp),%eax
   12b58:	8b 8c 24 bc 00 00 00 	mov    0xbc(%esp),%ecx
   12b5f:	8b 94 24 e4 00 00 00 	mov    0xe4(%esp),%edx
   12b66:	c7 84 24 18 01 00 00 	movl   $0x0,0x118(%esp)
   12b6d:	00 00 00 00 
   12b71:	89 94 24 1c 01 00 00 	mov    %edx,0x11c(%esp)
   12b78:	89 8c 24 20 01 00 00 	mov    %ecx,0x120(%esp)
   12b7f:	89 84 24 24 01 00 00 	mov    %eax,0x124(%esp)
   12b86:	eb 14                	jmp    12b9c <mem.eqlBytes+0x4ac>
   12b88:	8b 84 24 10 01 00 00 	mov    0x110(%esp),%eax
   12b8f:	85 c0                	test   %eax,%eax
   12b91:	0f 94 c0             	sete   %al
   12b94:	8d 65 f4             	lea    -0xc(%ebp),%esp
   12b97:	5e                   	pop    %esi
   12b98:	5f                   	pop    %edi
   12b99:	5b                   	pop    %ebx
   12b9a:	5d                   	pop    %ebp
   12b9b:	c3                   	ret
   12b9c:	8b 84 24 14 01 00 00 	mov    0x114(%esp),%eax
   12ba3:	89 84 24 ac 00 00 00 	mov    %eax,0xac(%esp)
   12baa:	83 f8 04             	cmp    $0x4,%eax
   12bad:	72 18                	jb     12bc7 <mem.eqlBytes+0x4d7>
   12baf:	e9 87 00 00 00       	jmp    12c3b <mem.eqlBytes+0x54b>
   12bb4:	8b 84 24 ac 00 00 00 	mov    0xac(%esp),%eax
   12bbb:	83 c0 01             	add    $0x1,%eax
   12bbe:	89 84 24 14 01 00 00 	mov    %eax,0x114(%esp)
   12bc5:	eb d5                	jmp    12b9c <mem.eqlBytes+0x4ac>
   12bc7:	8b 8c 24 f0 00 00 00 	mov    0xf0(%esp),%ecx
   12bce:	8b 94 24 ec 00 00 00 	mov    0xec(%esp),%edx
   12bd5:	8b 84 24 ac 00 00 00 	mov    0xac(%esp),%eax
   12bdc:	8b 84 84 18 01 00 00 	mov    0x118(%esp,%eax,4),%eax
   12be3:	89 84 24 98 00 00 00 	mov    %eax,0x98(%esp)
   12bea:	89 84 24 28 01 00 00 	mov    %eax,0x128(%esp)
   12bf1:	8b b4 24 10 01 00 00 	mov    0x110(%esp),%esi
   12bf8:	89 b4 24 9c 00 00 00 	mov    %esi,0x9c(%esp)
   12bff:	89 94 24 30 01 00 00 	mov    %edx,0x130(%esp)
   12c06:	89 8c 24 2c 01 00 00 	mov    %ecx,0x12c(%esp)
   12c0d:	8b 94 24 2c 01 00 00 	mov    0x12c(%esp),%edx
   12c14:	8b 8c 24 30 01 00 00 	mov    0x130(%esp),%ecx
   12c1b:	89 8c 24 a0 00 00 00 	mov    %ecx,0xa0(%esp)
   12c22:	01 c2                	add    %eax,%edx
   12c24:	89 94 24 a4 00 00 00 	mov    %edx,0xa4(%esp)
   12c2b:	83 c0 04             	add    $0x4,%eax
   12c2e:	89 84 24 a8 00 00 00 	mov    %eax,0xa8(%esp)
   12c35:	39 c8                	cmp    %ecx,%eax
   12c37:	76 68                	jbe    12ca1 <mem.eqlBytes+0x5b1>
   12c39:	eb 68                	jmp    12ca3 <mem.eqlBytes+0x5b3>
   12c3b:	e9 48 ff ff ff       	jmp    12b88 <mem.eqlBytes+0x498>
   12c40:	8b 84 24 98 00 00 00 	mov    0x98(%esp),%eax
   12c47:	8b 8c 24 f4 00 00 00 	mov    0xf4(%esp),%ecx
   12c4e:	8b 94 24 f8 00 00 00 	mov    0xf8(%esp),%edx
   12c55:	8b b4 24 a4 00 00 00 	mov    0xa4(%esp),%esi
   12c5c:	8b 36                	mov    (%esi),%esi
   12c5e:	89 b4 24 88 00 00 00 	mov    %esi,0x88(%esp)
   12c65:	89 94 24 38 01 00 00 	mov    %edx,0x138(%esp)
   12c6c:	89 8c 24 34 01 00 00 	mov    %ecx,0x134(%esp)
   12c73:	8b 94 24 34 01 00 00 	mov    0x134(%esp),%edx
   12c7a:	8b 8c 24 38 01 00 00 	mov    0x138(%esp),%ecx
   12c81:	89 8c 24 8c 00 00 00 	mov    %ecx,0x8c(%esp)
   12c88:	01 c2                	add    %eax,%edx
   12c8a:	89 94 24 90 00 00 00 	mov    %edx,0x90(%esp)
   12c91:	83 c0 04             	add    $0x4,%eax
   12c94:	89 84 24 94 00 00 00 	mov    %eax,0x94(%esp)
   12c9b:	39 c8                	cmp    %ecx,%eax
   12c9d:	76 3c                	jbe    12cdb <mem.eqlBytes+0x5eb>
   12c9f:	eb 3c                	jmp    12cdd <mem.eqlBytes+0x5ed>
   12ca1:	eb 9d                	jmp    12c40 <mem.eqlBytes+0x550>
   12ca3:	8b 94 24 a0 00 00 00 	mov    0xa0(%esp),%edx
   12caa:	8b 8c 24 a8 00 00 00 	mov    0xa8(%esp),%ecx
   12cb1:	e8 1a f0 ff ff       	call   11cd0 <builtin.panicOutOfBounds>
   12cb6:	8b 84 24 9c 00 00 00 	mov    0x9c(%esp),%eax
   12cbd:	8b 94 24 90 00 00 00 	mov    0x90(%esp),%edx
   12cc4:	8b 8c 24 88 00 00 00 	mov    0x88(%esp),%ecx
   12ccb:	33 0a                	xor    (%edx),%ecx
   12ccd:	09 c8                	or     %ecx,%eax
   12ccf:	89 84 24 10 01 00 00 	mov    %eax,0x110(%esp)
   12cd6:	e9 d9 fe ff ff       	jmp    12bb4 <mem.eqlBytes+0x4c4>
   12cdb:	eb d9                	jmp    12cb6 <mem.eqlBytes+0x5c6>
   12cdd:	8b 94 24 8c 00 00 00 	mov    0x8c(%esp),%edx
   12ce4:	8b 8c 24 94 00 00 00 	mov    0x94(%esp),%ecx
   12ceb:	e8 e0 ef ff ff       	call   11cd0 <builtin.panicOutOfBounds>
   12cf0:	c7 84 24 40 01 00 00 	movl   $0x2,0x140(%esp)
   12cf7:	02 00 00 00 
   12cfb:	c7 84 24 44 01 00 00 	movl   $0x3,0x144(%esp)
   12d02:	03 00 00 00 
   12d06:	c7 84 24 48 01 00 00 	movl   $0x4,0x148(%esp)
   12d0d:	04 00 00 00 
   12d11:	c7 84 24 4c 01 00 00 	movl   $0x5,0x14c(%esp)
   12d18:	05 00 00 00 
   12d1c:	8b 84 24 ec 00 00 00 	mov    0xec(%esp),%eax
   12d23:	c7 84 24 50 01 00 00 	movl   $0x0,0x150(%esp)
   12d2a:	00 00 00 00 
   12d2e:	83 e8 01             	sub    $0x1,%eax
   12d31:	89 84 24 84 00 00 00 	mov    %eax,0x84(%esp)
   12d38:	0f 92 c0             	setb   %al
   12d3b:	72 02                	jb     12d3f <mem.eqlBytes+0x64f>
   12d3d:	eb 23                	jmp    12d62 <mem.eqlBytes+0x672>
   12d3f:	8d 0d d3 ee 03 00    	lea    0x3eed3,%ecx
   12d45:	ba 10 00 00 00       	mov    $0x10,%edx
   12d4a:	31 c0                	xor    %eax,%eax
   12d4c:	8d 05 b8 ea 03 00    	lea    0x3eab8,%eax
   12d52:	c7 04 24 00 00 00 00 	movl   $0x0,(%esp)
   12d59:	89 44 24 04          	mov    %eax,0x4(%esp)
   12d5d:	e8 4e ef ff ff       	call   11cb0 <builtin.default_panic>
   12d62:	8b 84 24 84 00 00 00 	mov    0x84(%esp),%eax
   12d69:	c1 e8 04             	shr    $0x4,%eax
   12d6c:	89 84 24 80 00 00 00 	mov    %eax,0x80(%esp)
   12d73:	eb 31                	jmp    12da6 <mem.eqlBytes+0x6b6>
   12d75:	8b 84 24 ec 00 00 00 	mov    0xec(%esp),%eax
   12d7c:	8b 8c 24 f0 00 00 00 	mov    0xf0(%esp),%ecx
   12d83:	89 8c 24 b8 01 00 00 	mov    %ecx,0x1b8(%esp)
   12d8a:	89 84 24 bc 01 00 00 	mov    %eax,0x1bc(%esp)
   12d91:	83 e8 10             	sub    $0x10,%eax
   12d94:	89 44 24 7c          	mov    %eax,0x7c(%esp)
   12d98:	0f 92 c0             	setb   %al
   12d9b:	0f 82 bd 01 00 00    	jb     12f5e <mem.eqlBytes+0x86e>
   12da1:	e9 db 01 00 00       	jmp    12f81 <mem.eqlBytes+0x891>
   12da6:	8b 8c 24 80 00 00 00 	mov    0x80(%esp),%ecx
   12dad:	8b 84 24 50 01 00 00 	mov    0x150(%esp),%eax
   12db4:	89 44 24 78          	mov    %eax,0x78(%esp)
   12db8:	39 c8                	cmp    %ecx,%eax
   12dba:	72 12                	jb     12dce <mem.eqlBytes+0x6de>
   12dbc:	eb 49                	jmp    12e07 <mem.eqlBytes+0x717>
   12dbe:	8b 44 24 78          	mov    0x78(%esp),%eax
   12dc2:	83 c0 01             	add    $0x1,%eax
   12dc5:	89 84 24 50 01 00 00 	mov    %eax,0x150(%esp)
   12dcc:	eb d8                	jmp    12da6 <mem.eqlBytes+0x6b6>
   12dce:	8b 44 24 78          	mov    0x78(%esp),%eax
   12dd2:	8b 8c 24 f0 00 00 00 	mov    0xf0(%esp),%ecx
   12dd9:	8b 94 24 ec 00 00 00 	mov    0xec(%esp),%edx
   12de0:	89 84 24 54 01 00 00 	mov    %eax,0x154(%esp)
   12de7:	89 94 24 5c 01 00 00 	mov    %edx,0x15c(%esp)
   12dee:	89 8c 24 58 01 00 00 	mov    %ecx,0x158(%esp)
   12df5:	b9 10 00 00 00       	mov    $0x10,%ecx
   12dfa:	f7 e1                	mul    %ecx
   12dfc:	89 44 24 74          	mov    %eax,0x74(%esp)
   12e00:	0f 90 c0             	seto   %al
   12e03:	70 07                	jo     12e0c <mem.eqlBytes+0x71c>
   12e05:	eb 28                	jmp    12e2f <mem.eqlBytes+0x73f>
   12e07:	e9 69 ff ff ff       	jmp    12d75 <mem.eqlBytes+0x685>
   12e0c:	8d 0d d3 ee 03 00    	lea    0x3eed3,%ecx
   12e12:	ba 10 00 00 00       	mov    $0x10,%edx
   12e17:	31 c0                	xor    %eax,%eax
   12e19:	8d 05 b8 ea 03 00    	lea    0x3eab8,%eax
   12e1f:	c7 04 24 00 00 00 00 	movl   $0x0,(%esp)
   12e26:	89 44 24 04          	mov    %eax,0x4(%esp)
   12e2a:	e8 81 ee ff ff       	call   11cb0 <builtin.default_panic>
   12e2f:	8b 44 24 74          	mov    0x74(%esp),%eax
   12e33:	8b 94 24 58 01 00 00 	mov    0x158(%esp),%edx
   12e3a:	8b 8c 24 5c 01 00 00 	mov    0x15c(%esp),%ecx
   12e41:	89 4c 24 68          	mov    %ecx,0x68(%esp)
   12e45:	01 c2                	add    %eax,%edx
   12e47:	89 54 24 6c          	mov    %edx,0x6c(%esp)
   12e4b:	83 c0 10             	add    $0x10,%eax
   12e4e:	89 44 24 70          	mov    %eax,0x70(%esp)
   12e52:	39 c8                	cmp    %ecx,%eax
   12e54:	76 48                	jbe    12e9e <mem.eqlBytes+0x7ae>
   12e56:	eb 48                	jmp    12ea0 <mem.eqlBytes+0x7b0>
   12e58:	8b 44 24 78          	mov    0x78(%esp),%eax
   12e5c:	8b 8c 24 f4 00 00 00 	mov    0xf4(%esp),%ecx
   12e63:	8b 94 24 f8 00 00 00 	mov    0xf8(%esp),%edx
   12e6a:	8b 74 24 6c          	mov    0x6c(%esp),%esi
   12e6e:	0f 10 06             	movups (%esi),%xmm0
   12e71:	0f 29 44 24 50       	movaps %xmm0,0x50(%esp)
   12e76:	0f 29 84 24 60 01 00 	movaps %xmm0,0x160(%esp)
   12e7d:	00 
   12e7e:	89 94 24 7c 01 00 00 	mov    %edx,0x17c(%esp)
   12e85:	89 8c 24 78 01 00 00 	mov    %ecx,0x178(%esp)
   12e8c:	b9 10 00 00 00       	mov    $0x10,%ecx
   12e91:	f7 e1                	mul    %ecx
   12e93:	89 44 24 64          	mov    %eax,0x64(%esp)
   12e97:	0f 90 c0             	seto   %al
   12e9a:	70 11                	jo     12ead <mem.eqlBytes+0x7bd>
   12e9c:	eb 32                	jmp    12ed0 <mem.eqlBytes+0x7e0>
   12e9e:	eb b8                	jmp    12e58 <mem.eqlBytes+0x768>
   12ea0:	8b 54 24 68          	mov    0x68(%esp),%edx
   12ea4:	8b 4c 24 70          	mov    0x70(%esp),%ecx
   12ea8:	e8 23 ee ff ff       	call   11cd0 <builtin.panicOutOfBounds>
   12ead:	8d 0d d3 ee 03 00    	lea    0x3eed3,%ecx
   12eb3:	ba 10 00 00 00       	mov    $0x10,%edx
   12eb8:	31 c0                	xor    %eax,%eax
   12eba:	8d 05 b8 ea 03 00    	lea    0x3eab8,%eax
   12ec0:	c7 04 24 00 00 00 00 	movl   $0x0,(%esp)
   12ec7:	89 44 24 04          	mov    %eax,0x4(%esp)
   12ecb:	e8 e0 ed ff ff       	call   11cb0 <builtin.default_panic>
   12ed0:	8b 44 24 64          	mov    0x64(%esp),%eax
   12ed4:	8b 94 24 78 01 00 00 	mov    0x178(%esp),%edx
   12edb:	8b 8c 24 7c 01 00 00 	mov    0x17c(%esp),%ecx
   12ee2:	89 4c 24 44          	mov    %ecx,0x44(%esp)
   12ee6:	01 c2                	add    %eax,%edx
   12ee8:	89 54 24 48          	mov    %edx,0x48(%esp)
   12eec:	83 c0 10             	add    $0x10,%eax
   12eef:	89 44 24 4c          	mov    %eax,0x4c(%esp)
   12ef3:	39 c8                	cmp    %ecx,%eax
   12ef5:	76 3d                	jbe    12f34 <mem.eqlBytes+0x844>
   12ef7:	eb 3d                	jmp    12f36 <mem.eqlBytes+0x846>
   12ef9:	0f 28 44 24 50       	movaps 0x50(%esp),%xmm0
   12efe:	8b 44 24 48          	mov    0x48(%esp),%eax
   12f02:	0f 10 08             	movups (%eax),%xmm1
   12f05:	0f 29 8c 24 80 01 00 	movaps %xmm1,0x180(%esp)
   12f0c:	00 
   12f0d:	0f 29 84 24 90 01 00 	movaps %xmm0,0x190(%esp)
   12f14:	00 
   12f15:	0f 29 8c 24 a0 01 00 	movaps %xmm1,0x1a0(%esp)
   12f1c:	00 
   12f1d:	66 0f 74 c1          	pcmpeqb %xmm1,%xmm0
   12f21:	66 0f d7 c0          	pmovmskb %xmm0,%eax
   12f25:	f7 d0                	not    %eax
   12f27:	66 83 f8 00          	cmp    $0x0,%ax
   12f2b:	0f 95 c0             	setne  %al
   12f2e:	88 44 24 43          	mov    %al,0x43(%esp)
   12f32:	eb 14                	jmp    12f48 <mem.eqlBytes+0x858>
   12f34:	eb c3                	jmp    12ef9 <mem.eqlBytes+0x809>
   12f36:	8b 54 24 44          	mov    0x44(%esp),%edx
   12f3a:	8b 4c 24 4c          	mov    0x4c(%esp),%ecx
   12f3e:	e8 8d ed ff ff       	call   11cd0 <builtin.panicOutOfBounds>
   12f43:	e9 76 fe ff ff       	jmp    12dbe <mem.eqlBytes+0x6ce>
   12f48:	8a 44 24 43          	mov    0x43(%esp),%al
   12f4c:	a8 01                	test   $0x1,%al
   12f4e:	75 02                	jne    12f52 <mem.eqlBytes+0x862>
   12f50:	eb 0a                	jmp    12f5c <mem.eqlBytes+0x86c>
   12f52:	31 c0                	xor    %eax,%eax
   12f54:	8d 65 f4             	lea    -0xc(%ebp),%esp
   12f57:	5e                   	pop    %esi
   12f58:	5f                   	pop    %edi
   12f59:	5b                   	pop    %ebx
   12f5a:	5d                   	pop    %ebp
   12f5b:	c3                   	ret
   12f5c:	eb e5                	jmp    12f43 <mem.eqlBytes+0x853>
   12f5e:	8d 0d d3 ee 03 00    	lea    0x3eed3,%ecx
   12f64:	ba 10 00 00 00       	mov    $0x10,%edx
   12f69:	31 c0                	xor    %eax,%eax
   12f6b:	8d 05 b8 ea 03 00    	lea    0x3eab8,%eax
   12f71:	c7 04 24 00 00 00 00 	movl   $0x0,(%esp)
   12f78:	89 44 24 04          	mov    %eax,0x4(%esp)
   12f7c:	e8 2f ed ff ff       	call   11cb0 <builtin.default_panic>
   12f81:	8b 44 24 7c          	mov    0x7c(%esp),%eax
   12f85:	8b 94 24 b8 01 00 00 	mov    0x1b8(%esp),%edx
   12f8c:	8b 8c 24 bc 01 00 00 	mov    0x1bc(%esp),%ecx
   12f93:	89 4c 24 34          	mov    %ecx,0x34(%esp)
   12f97:	01 c2                	add    %eax,%edx
   12f99:	89 54 24 38          	mov    %edx,0x38(%esp)
   12f9d:	83 c0 10             	add    $0x10,%eax
   12fa0:	89 44 24 3c          	mov    %eax,0x3c(%esp)
   12fa4:	39 c8                	cmp    %ecx,%eax
   12fa6:	76 47                	jbe    12fef <mem.eqlBytes+0x8ff>
   12fa8:	eb 47                	jmp    12ff1 <mem.eqlBytes+0x901>
   12faa:	8b 84 24 ec 00 00 00 	mov    0xec(%esp),%eax
   12fb1:	8b 8c 24 f4 00 00 00 	mov    0xf4(%esp),%ecx
   12fb8:	8b 94 24 f8 00 00 00 	mov    0xf8(%esp),%edx
   12fbf:	8b 74 24 38          	mov    0x38(%esp),%esi
   12fc3:	0f 10 06             	movups (%esi),%xmm0
   12fc6:	0f 29 44 24 20       	movaps %xmm0,0x20(%esp)
   12fcb:	0f 29 84 24 c0 01 00 	movaps %xmm0,0x1c0(%esp)
   12fd2:	00 
   12fd3:	89 94 24 dc 01 00 00 	mov    %edx,0x1dc(%esp)
   12fda:	89 8c 24 d8 01 00 00 	mov    %ecx,0x1d8(%esp)
   12fe1:	83 e8 10             	sub    $0x10,%eax
   12fe4:	89 44 24 30          	mov    %eax,0x30(%esp)
   12fe8:	0f 92 c0             	setb   %al
   12feb:	72 11                	jb     12ffe <mem.eqlBytes+0x90e>
   12fed:	eb 32                	jmp    13021 <mem.eqlBytes+0x931>
   12fef:	eb b9                	jmp    12faa <mem.eqlBytes+0x8ba>
   12ff1:	8b 54 24 34          	mov    0x34(%esp),%edx
   12ff5:	8b 4c 24 3c          	mov    0x3c(%esp),%ecx
   12ff9:	e8 d2 ec ff ff       	call   11cd0 <builtin.panicOutOfBounds>
   12ffe:	8d 0d d3 ee 03 00    	lea    0x3eed3,%ecx
   13004:	ba 10 00 00 00       	mov    $0x10,%edx
   13009:	31 c0                	xor    %eax,%eax
   1300b:	8d 05 b8 ea 03 00    	lea    0x3eab8,%eax
   13011:	c7 04 24 00 00 00 00 	movl   $0x0,(%esp)
   13018:	89 44 24 04          	mov    %eax,0x4(%esp)
   1301c:	e8 8f ec ff ff       	call   11cb0 <builtin.default_panic>
   13021:	8b 44 24 30          	mov    0x30(%esp),%eax
   13025:	8b 94 24 d8 01 00 00 	mov    0x1d8(%esp),%edx
   1302c:	8b 8c 24 dc 01 00 00 	mov    0x1dc(%esp),%ecx
   13033:	89 4c 24 14          	mov    %ecx,0x14(%esp)
   13037:	01 c2                	add    %eax,%edx
   13039:	89 54 24 18          	mov    %edx,0x18(%esp)
   1303d:	83 c0 10             	add    $0x10,%eax
   13040:	89 44 24 1c          	mov    %eax,0x1c(%esp)
   13044:	39 c8                	cmp    %ecx,%eax
   13046:	76 3d                	jbe    13085 <mem.eqlBytes+0x995>
   13048:	eb 3d                	jmp    13087 <mem.eqlBytes+0x997>
   1304a:	0f 28 44 24 20       	movaps 0x20(%esp),%xmm0
   1304f:	8b 44 24 18          	mov    0x18(%esp),%eax
   13053:	0f 10 08             	movups (%eax),%xmm1
   13056:	0f 29 8c 24 e0 01 00 	movaps %xmm1,0x1e0(%esp)
   1305d:	00 
   1305e:	0f 29 84 24 f0 01 00 	movaps %xmm0,0x1f0(%esp)
   13065:	00 
   13066:	0f 29 8c 24 00 02 00 	movaps %xmm1,0x200(%esp)
   1306d:	00 
   1306e:	66 0f 74 c1          	pcmpeqb %xmm1,%xmm0
   13072:	66 0f d7 c0          	pmovmskb %xmm0,%eax
   13076:	f7 d0                	not    %eax
   13078:	66 83 f8 00          	cmp    $0x0,%ax
   1307c:	0f 95 c0             	setne  %al
   1307f:	88 44 24 13          	mov    %al,0x13(%esp)
   13083:	eb 0f                	jmp    13094 <mem.eqlBytes+0x9a4>
   13085:	eb c3                	jmp    1304a <mem.eqlBytes+0x95a>
   13087:	8b 54 24 14          	mov    0x14(%esp),%edx
   1308b:	8b 4c 24 1c          	mov    0x1c(%esp),%ecx
   1308f:	e8 3c ec ff ff       	call   11cd0 <builtin.panicOutOfBounds>
   13094:	8a 44 24 13          	mov    0x13(%esp),%al
   13098:	34 01                	xor    $0x1,%al
   1309a:	8d 65 f4             	lea    -0xc(%ebp),%esp
   1309d:	5e                   	pop    %esi
   1309e:	5f                   	pop    %edi
   1309f:	5b                   	pop    %ebx
   130a0:	5d                   	pop    %ebp
   130a1:	c3                   	ret
   130a2:	66 2e 0f 1f 84 00 00 	nopw   %cs:0x0(%eax,%eax,1)
   130a9:	00 00 00 
   130ac:	0f 1f 40 00          	nopl   0x0(%eax)

000130b0 <fmt.bufPrint__anon_1415>:
   130b0:	55                   	push   %ebp
   130b1:	89 e5                	mov    %esp,%ebp
   130b3:	56                   	push   %esi
   130b4:	83 ec 64             	sub    $0x64,%esp
   130b7:	89 55 a4             	mov    %edx,-0x5c(%ebp)
   130ba:	89 4d a8             	mov    %ecx,-0x58(%ebp)
   130bd:	89 4d ac             	mov    %ecx,-0x54(%ebp)
   130c0:	8b 45 10             	mov    0x10(%ebp),%eax
   130c3:	89 45 b0             	mov    %eax,-0x50(%ebp)
   130c6:	8b 75 0c             	mov    0xc(%ebp),%esi
   130c9:	8b 4d 08             	mov    0x8(%ebp),%ecx
   130cc:	89 f0                	mov    %esi,%eax
   130ce:	89 ca                	mov    %ecx,%edx
   130d0:	89 75 bc             	mov    %esi,-0x44(%ebp)
   130d3:	89 4d b8             	mov    %ecx,-0x48(%ebp)
   130d6:	8d 4d cc             	lea    -0x34(%ebp),%ecx
   130d9:	89 04 24             	mov    %eax,(%esp)
   130dc:	e8 5f 0a 00 00       	call   13b40 <io.fixed_buffer_stream.fixedBufferStream__anon_1519>
   130e1:	8b 45 cc             	mov    -0x34(%ebp),%eax
   130e4:	89 45 c0             	mov    %eax,-0x40(%ebp)
   130e7:	8b 45 d0             	mov    -0x30(%ebp),%eax
   130ea:	89 45 c4             	mov    %eax,-0x3c(%ebp)
   130ed:	8b 45 d4             	mov    -0x2c(%ebp),%eax
   130f0:	89 45 c8             	mov    %eax,-0x38(%ebp)
   130f3:	8d 4d d8             	lea    -0x28(%ebp),%ecx
   130f6:	8d 55 c0             	lea    -0x40(%ebp),%edx
   130f9:	e8 72 0a 00 00       	call   13b70 <io.fixed_buffer_stream.FixedBufferStream([]u8).writer>
   130fe:	8b 45 d8             	mov    -0x28(%ebp),%eax
   13101:	89 45 dc             	mov    %eax,-0x24(%ebp)
   13104:	8d 45 dc             	lea    -0x24(%ebp),%eax
   13107:	89 45 e0             	mov    %eax,-0x20(%ebp)
   1310a:	8d 45 dc             	lea    -0x24(%ebp),%eax
   1310d:	89 45 ec             	mov    %eax,-0x14(%ebp)
   13110:	8b 45 ec             	mov    -0x14(%ebp),%eax
   13113:	89 45 e4             	mov    %eax,-0x1c(%ebp)
   13116:	8d 05 80 3b 01 00    	lea    0x13b80,%eax
   1311c:	89 45 e8             	mov    %eax,-0x18(%ebp)
   1311f:	8d 45 e4             	lea    -0x1c(%ebp),%eax
   13122:	89 45 b4             	mov    %eax,-0x4c(%ebp)
   13125:	8b 45 b0             	mov    -0x50(%ebp),%eax
   13128:	8b 4d a4             	mov    -0x5c(%ebp),%ecx
   1312b:	8b 55 b4             	mov    -0x4c(%ebp),%edx
   1312e:	89 04 24             	mov    %eax,(%esp)
   13131:	e8 ea 0c 00 00       	call   13e20 <fmt.format__anon_2042>
   13136:	66 89 45 a2          	mov    %ax,-0x5e(%ebp)
   1313a:	66 83 f8 00          	cmp    $0x0,%ax
   1313e:	74 3d                	je     1317d <fmt.bufPrint__anon_1415+0xcd>
   13140:	eb 3d                	jmp    1317f <fmt.bufPrint__anon_1415+0xcf>
   13142:	8d 4d c0             	lea    -0x40(%ebp),%ecx
   13145:	e8 36 0b 00 00       	call   13c80 <io.fixed_buffer_stream.FixedBufferStream([]u8).getWritten>
   1314a:	8b 4d a8             	mov    -0x58(%ebp),%ecx
   1314d:	89 c6                	mov    %eax,%esi
   1314f:	8b 45 ac             	mov    -0x54(%ebp),%eax
   13152:	89 75 9c             	mov    %esi,-0x64(%ebp)
   13155:	89 d6                	mov    %edx,%esi
   13157:	8b 55 9c             	mov    -0x64(%ebp),%edx
   1315a:	66 c7 45 f8 00 00    	movw   $0x0,-0x8(%ebp)
   13160:	89 75 f4             	mov    %esi,-0xc(%ebp)
   13163:	89 55 f0             	mov    %edx,-0x10(%ebp)
   13166:	8b 55 f0             	mov    -0x10(%ebp),%edx
   13169:	89 11                	mov    %edx,(%ecx)
   1316b:	8b 55 f4             	mov    -0xc(%ebp),%edx
   1316e:	89 51 04             	mov    %edx,0x4(%ecx)
   13171:	8b 55 f8             	mov    -0x8(%ebp),%edx
   13174:	89 51 08             	mov    %edx,0x8(%ecx)
   13177:	83 c4 64             	add    $0x64,%esp
   1317a:	5e                   	pop    %esi
   1317b:	5d                   	pop    %ebp
   1317c:	c3                   	ret
   1317d:	eb c3                	jmp    13142 <fmt.bufPrint__anon_1415+0x92>
   1317f:	66 8b 45 a2          	mov    -0x5e(%ebp),%ax
   13183:	66 83 e8 01          	sub    $0x1,%ax
   13187:	74 11                	je     1319a <fmt.bufPrint__anon_1415+0xea>
   13189:	eb 00                	jmp    1318b <fmt.bufPrint__anon_1415+0xdb>
   1318b:	66 8b 45 a2          	mov    -0x5e(%ebp),%ax
   1318f:	8b 4d a4             	mov    -0x5c(%ebp),%ecx
   13192:	0f b7 d0             	movzwl %ax,%edx
   13195:	e8 a6 0a 00 00       	call   13c40 <builtin.panicUnwrapError>
   1319a:	8b 4d a4             	mov    -0x5c(%ebp),%ecx
   1319d:	e8 de 07 00 00       	call   13980 <builtin.returnError>
   131a2:	8b 4d a8             	mov    -0x58(%ebp),%ecx
   131a5:	8b 45 ac             	mov    -0x54(%ebp),%eax
   131a8:	8b 15 78 e3 03 00    	mov    0x3e378,%edx
   131ae:	89 11                	mov    %edx,(%ecx)
   131b0:	8b 15 7c e3 03 00    	mov    0x3e37c,%edx
   131b6:	89 51 04             	mov    %edx,0x4(%ecx)
   131b9:	8b 15 80 e3 03 00    	mov    0x3e380,%edx
   131bf:	89 51 08             	mov    %edx,0x8(%ecx)
   131c2:	83 c4 64             	add    $0x64,%esp
   131c5:	5e                   	pop    %esi
   131c6:	5d                   	pop    %ebp
   131c7:	c3                   	ret
   131c8:	0f 1f 84 00 00 00 00 	nopl   0x0(%eax,%eax,1)
   131cf:	00 

000131d0 <fmt.bufPrint__anon_1416>:
   131d0:	55                   	push   %ebp
   131d1:	89 e5                	mov    %esp,%ebp
   131d3:	56                   	push   %esi
   131d4:	83 ec 60             	sub    $0x60,%esp
   131d7:	89 55 a8             	mov    %edx,-0x58(%ebp)
   131da:	89 4d ac             	mov    %ecx,-0x54(%ebp)
   131dd:	89 4d b0             	mov    %ecx,-0x50(%ebp)
   131e0:	8b 75 0c             	mov    0xc(%ebp),%esi
   131e3:	8b 4d 08             	mov    0x8(%ebp),%ecx
   131e6:	89 f0                	mov    %esi,%eax
   131e8:	89 ca                	mov    %ecx,%edx
   131ea:	89 75 bc             	mov    %esi,-0x44(%ebp)
   131ed:	89 4d b8             	mov    %ecx,-0x48(%ebp)
   131f0:	8d 4d cc             	lea    -0x34(%ebp),%ecx
   131f3:	89 04 24             	mov    %eax,(%esp)
   131f6:	e8 45 09 00 00       	call   13b40 <io.fixed_buffer_stream.fixedBufferStream__anon_1519>
   131fb:	8b 45 cc             	mov    -0x34(%ebp),%eax
   131fe:	89 45 c0             	mov    %eax,-0x40(%ebp)
   13201:	8b 45 d0             	mov    -0x30(%ebp),%eax
   13204:	89 45 c4             	mov    %eax,-0x3c(%ebp)
   13207:	8b 45 d4             	mov    -0x2c(%ebp),%eax
   1320a:	89 45 c8             	mov    %eax,-0x38(%ebp)
   1320d:	8d 4d d8             	lea    -0x28(%ebp),%ecx
   13210:	8d 55 c0             	lea    -0x40(%ebp),%edx
   13213:	e8 58 09 00 00       	call   13b70 <io.fixed_buffer_stream.FixedBufferStream([]u8).writer>
   13218:	8b 45 d8             	mov    -0x28(%ebp),%eax
   1321b:	89 45 dc             	mov    %eax,-0x24(%ebp)
   1321e:	8d 45 dc             	lea    -0x24(%ebp),%eax
   13221:	89 45 e0             	mov    %eax,-0x20(%ebp)
   13224:	8d 45 dc             	lea    -0x24(%ebp),%eax
   13227:	89 45 ec             	mov    %eax,-0x14(%ebp)
   1322a:	8b 45 ec             	mov    -0x14(%ebp),%eax
   1322d:	89 45 e4             	mov    %eax,-0x1c(%ebp)
   13230:	8d 05 80 3b 01 00    	lea    0x13b80,%eax
   13236:	89 45 e8             	mov    %eax,-0x18(%ebp)
   13239:	8d 45 e4             	lea    -0x1c(%ebp),%eax
   1323c:	89 45 b4             	mov    %eax,-0x4c(%ebp)
   1323f:	8b 4d a8             	mov    -0x58(%ebp),%ecx
   13242:	8b 55 b4             	mov    -0x4c(%ebp),%edx
   13245:	e8 e6 0c 00 00       	call   13f30 <fmt.format__anon_2044>
   1324a:	66 89 45 a6          	mov    %ax,-0x5a(%ebp)
   1324e:	66 83 f8 00          	cmp    $0x0,%ax
   13252:	74 3d                	je     13291 <fmt.bufPrint__anon_1416+0xc1>
   13254:	eb 3d                	jmp    13293 <fmt.bufPrint__anon_1416+0xc3>
   13256:	8d 4d c0             	lea    -0x40(%ebp),%ecx
   13259:	e8 22 0a 00 00       	call   13c80 <io.fixed_buffer_stream.FixedBufferStream([]u8).getWritten>
   1325e:	8b 4d ac             	mov    -0x54(%ebp),%ecx
   13261:	89 c6                	mov    %eax,%esi
   13263:	8b 45 b0             	mov    -0x50(%ebp),%eax
   13266:	89 75 a0             	mov    %esi,-0x60(%ebp)
   13269:	89 d6                	mov    %edx,%esi
   1326b:	8b 55 a0             	mov    -0x60(%ebp),%edx
   1326e:	66 c7 45 f8 00 00    	movw   $0x0,-0x8(%ebp)
   13274:	89 75 f4             	mov    %esi,-0xc(%ebp)
   13277:	89 55 f0             	mov    %edx,-0x10(%ebp)
   1327a:	8b 55 f0             	mov    -0x10(%ebp),%edx
   1327d:	89 11                	mov    %edx,(%ecx)
   1327f:	8b 55 f4             	mov    -0xc(%ebp),%edx
   13282:	89 51 04             	mov    %edx,0x4(%ecx)
   13285:	8b 55 f8             	mov    -0x8(%ebp),%edx
   13288:	89 51 08             	mov    %edx,0x8(%ecx)
   1328b:	83 c4 60             	add    $0x60,%esp
   1328e:	5e                   	pop    %esi
   1328f:	5d                   	pop    %ebp
   13290:	c3                   	ret
   13291:	eb c3                	jmp    13256 <fmt.bufPrint__anon_1416+0x86>
   13293:	66 8b 45 a6          	mov    -0x5a(%ebp),%ax
   13297:	66 83 e8 01          	sub    $0x1,%ax
   1329b:	74 11                	je     132ae <fmt.bufPrint__anon_1416+0xde>
   1329d:	eb 00                	jmp    1329f <fmt.bufPrint__anon_1416+0xcf>
   1329f:	66 8b 45 a6          	mov    -0x5a(%ebp),%ax
   132a3:	8b 4d a8             	mov    -0x58(%ebp),%ecx
   132a6:	0f b7 d0             	movzwl %ax,%edx
   132a9:	e8 92 09 00 00       	call   13c40 <builtin.panicUnwrapError>
   132ae:	8b 4d a8             	mov    -0x58(%ebp),%ecx
   132b1:	e8 ca 06 00 00       	call   13980 <builtin.returnError>
   132b6:	8b 4d ac             	mov    -0x54(%ebp),%ecx
   132b9:	8b 45 b0             	mov    -0x50(%ebp),%eax
   132bc:	8b 15 84 e3 03 00    	mov    0x3e384,%edx
   132c2:	89 11                	mov    %edx,(%ecx)
   132c4:	8b 15 88 e3 03 00    	mov    0x3e388,%edx
   132ca:	89 51 04             	mov    %edx,0x4(%ecx)
   132cd:	8b 15 8c e3 03 00    	mov    0x3e38c,%edx
   132d3:	89 51 08             	mov    %edx,0x8(%ecx)
   132d6:	83 c4 60             	add    $0x60,%esp
   132d9:	5e                   	pop    %esi
   132da:	5d                   	pop    %ebp
   132db:	c3                   	ret
   132dc:	0f 1f 40 00          	nopl   0x0(%eax)

000132e0 <device.screen.get_video_mode_3_offset>:
   132e0:	55                   	push   %ebp
   132e1:	89 e5                	mov    %esp,%ebp
   132e3:	83 ec 14             	sub    $0x14,%esp
   132e6:	89 c8                	mov    %ecx,%eax
   132e8:	66 89 d1             	mov    %dx,%cx
   132eb:	66 89 4d f8          	mov    %cx,-0x8(%ebp)
   132ef:	66 89 45 fc          	mov    %ax,-0x4(%ebp)
   132f3:	66 89 4d fe          	mov    %cx,-0x2(%ebp)
   132f7:	66 b9 50 00          	mov    $0x50,%cx
   132fb:	66 f7 e1             	mul    %cx
   132fe:	66 89 45 fa          	mov    %ax,-0x6(%ebp)
   13302:	0f 90 c0             	seto   %al
   13305:	a8 01                	test   $0x1,%al
   13307:	75 02                	jne    1330b <device.screen.get_video_mode_3_offset+0x2b>
   13309:	eb 23                	jmp    1332e <device.screen.get_video_mode_3_offset+0x4e>
   1330b:	8d 0d d3 ee 03 00    	lea    0x3eed3,%ecx
   13311:	ba 10 00 00 00       	mov    $0x10,%edx
   13316:	31 c0                	xor    %eax,%eax
   13318:	8d 05 b8 ea 03 00    	lea    0x3eab8,%eax
   1331e:	c7 04 24 00 00 00 00 	movl   $0x0,(%esp)
   13325:	89 44 24 04          	mov    %eax,0x4(%esp)
   13329:	e8 82 e9 ff ff       	call   11cb0 <builtin.default_panic>
   1332e:	66 8b 4d f8          	mov    -0x8(%ebp),%cx
   13332:	66 8b 45 fa          	mov    -0x6(%ebp),%ax
   13336:	66 01 c8             	add    %cx,%ax
   13339:	66 89 45 f6          	mov    %ax,-0xa(%ebp)
   1333d:	0f 92 c0             	setb   %al
   13340:	a8 01                	test   $0x1,%al
   13342:	75 02                	jne    13346 <device.screen.get_video_mode_3_offset+0x66>
   13344:	eb 23                	jmp    13369 <device.screen.get_video_mode_3_offset+0x89>
   13346:	8d 0d d3 ee 03 00    	lea    0x3eed3,%ecx
   1334c:	ba 10 00 00 00       	mov    $0x10,%edx
   13351:	31 c0                	xor    %eax,%eax
   13353:	8d 05 b8 ea 03 00    	lea    0x3eab8,%eax
   13359:	c7 04 24 00 00 00 00 	movl   $0x0,(%esp)
   13360:	89 44 24 04          	mov    %eax,0x4(%esp)
   13364:	e8 47 e9 ff ff       	call   11cb0 <builtin.default_panic>
   13369:	66 8b 45 f6          	mov    -0xa(%ebp),%ax
   1336d:	83 c4 14             	add    $0x14,%esp
   13370:	5d                   	pop    %ebp
   13371:	c3                   	ret
   13372:	66 2e 0f 1f 84 00 00 	nopw   %cs:0x0(%eax,%eax,1)
   13379:	00 00 00 
   1337c:	0f 1f 40 00          	nopl   0x0(%eax)

00013380 <debug.panicExtra__anon_1417>:
   13380:	55                   	push   %ebp
   13381:	89 e5                	mov    %esp,%ebp
   13383:	57                   	push   %edi
   13384:	56                   	push   %esi
   13385:	b8 ec 10 00 00       	mov    $0x10ec,%eax
   1338a:	e8 51 90 02 00       	call   3c3e0 <__zig_probe_stack>
   1338f:	29 c4                	sub    %eax,%esp
   13391:	89 95 24 ef ff ff    	mov    %edx,-0x10dc(%ebp)
   13397:	89 8d 28 ef ff ff    	mov    %ecx,-0x10d8(%ebp)
   1339d:	8b 45 08             	mov    0x8(%ebp),%eax
   133a0:	89 85 2c ef ff ff    	mov    %eax,-0x10d4(%ebp)
   133a6:	89 8d 38 ef ff ff    	mov    %ecx,-0x10c8(%ebp)
   133ac:	8d 85 3c ef ff ff    	lea    -0x10c4(%ebp),%eax
   133b2:	89 85 c0 ef ff ff    	mov    %eax,-0x1040(%ebp)
   133b8:	c7 85 c4 ef ff ff 20 	movl   $0x20,-0x103c(%ebp)
   133bf:	00 00 00 
   133c2:	c7 85 bc ef ff ff 00 	movl   $0x0,-0x1044(%ebp)
   133c9:	00 00 00 
   133cc:	8b 85 bc ef ff ff    	mov    -0x1044(%ebp),%eax
   133d2:	89 85 30 ef ff ff    	mov    %eax,-0x10d0(%ebp)
   133d8:	8d 05 73 ef 03 00    	lea    0x3ef73,%eax
   133de:	89 85 c8 ef ff ff    	mov    %eax,-0x1038(%ebp)
   133e4:	8d 85 cd ef ff ff    	lea    -0x1033(%ebp),%eax
   133ea:	89 04 24             	mov    %eax,(%esp)
   133ed:	c7 44 24 04 aa 00 00 	movl   $0xaa,0x4(%esp)
   133f4:	00 
   133f5:	c7 44 24 08 0f 10 00 	movl   $0x100f,0x8(%esp)
   133fc:	00 
   133fd:	e8 fe 90 02 00       	call   3c500 <memset>
   13402:	8d 85 cd ef ff ff    	lea    -0x1033(%ebp),%eax
   13408:	89 85 34 ef ff ff    	mov    %eax,-0x10cc(%ebp)
   1340e:	b8 00 10 00 00       	mov    $0x1000,%eax
   13413:	3d 0f 10 00 00       	cmp    $0x100f,%eax
   13418:	76 35                	jbe    1344f <debug.panicExtra__anon_1417+0xcf>
   1341a:	eb 35                	jmp    13451 <debug.panicExtra__anon_1417+0xd1>
   1341c:	8b 85 2c ef ff ff    	mov    -0x10d4(%ebp),%eax
   13422:	8b bd 34 ef ff ff    	mov    -0x10cc(%ebp),%edi
   13428:	be 00 10 00 00       	mov    $0x1000,%esi
   1342d:	8d 4d dc             	lea    -0x24(%ebp),%ecx
   13430:	8d 95 bc ef ff ff    	lea    -0x1044(%ebp),%edx
   13436:	89 3c 24             	mov    %edi,(%esp)
   13439:	89 74 24 04          	mov    %esi,0x4(%esp)
   1343d:	89 44 24 08          	mov    %eax,0x8(%esp)
   13441:	e8 3a 0b 00 00       	call   13f80 <fmt.bufPrint__anon_2045>
   13446:	66 83 7d e4 00       	cmpw   $0x0,-0x1c(%ebp)
   1344b:	74 49                	je     13496 <debug.panicExtra__anon_1417+0x116>
   1344d:	eb 5b                	jmp    134aa <debug.panicExtra__anon_1417+0x12a>
   1344f:	eb cb                	jmp    1341c <debug.panicExtra__anon_1417+0x9c>
   13451:	b9 00 10 00 00       	mov    $0x1000,%ecx
   13456:	ba 0f 10 00 00       	mov    $0x100f,%edx
   1345b:	e8 70 e8 ff ff       	call   11cd0 <builtin.panicOutOfBounds>
   13460:	8b 85 24 ef ff ff    	mov    -0x10dc(%ebp),%eax
   13466:	8b b5 28 ef ff ff    	mov    -0x10d8(%ebp),%esi
   1346c:	8b 8d 20 ef ff ff    	mov    -0x10e0(%ebp),%ecx
   13472:	8b 95 1c ef ff ff    	mov    -0x10e4(%ebp),%edx
   13478:	89 4d e8             	mov    %ecx,-0x18(%ebp)
   1347b:	89 55 ec             	mov    %edx,-0x14(%ebp)
   1347e:	89 55 f4             	mov    %edx,-0xc(%ebp)
   13481:	89 4d f0             	mov    %ecx,-0x10(%ebp)
   13484:	8b 4d f0             	mov    -0x10(%ebp),%ecx
   13487:	8b 55 f4             	mov    -0xc(%ebp),%edx
   1348a:	89 34 24             	mov    %esi,(%esp)
   1348d:	89 44 24 04          	mov    %eax,0x4(%esp)
   13491:	e8 1a e8 ff ff       	call   11cb0 <builtin.default_panic>
   13496:	8b 4d dc             	mov    -0x24(%ebp),%ecx
   13499:	8b 45 e0             	mov    -0x20(%ebp),%eax
   1349c:	89 8d 20 ef ff ff    	mov    %ecx,-0x10e0(%ebp)
   134a2:	89 85 1c ef ff ff    	mov    %eax,-0x10e4(%ebp)
   134a8:	eb b6                	jmp    13460 <debug.panicExtra__anon_1417+0xe0>
   134aa:	66 8b 45 e4          	mov    -0x1c(%ebp),%ax
   134ae:	66 83 e8 01          	sub    $0x1,%ax
   134b2:	74 24                	je     134d8 <debug.panicExtra__anon_1417+0x158>
   134b4:	eb 00                	jmp    134b6 <debug.panicExtra__anon_1417+0x136>
   134b6:	b9 aa f0 03 00       	mov    $0x3f0aa,%ecx
   134bb:	ba 17 00 00 00       	mov    $0x17,%edx
   134c0:	31 c0                	xor    %eax,%eax
   134c2:	8d 05 b8 ea 03 00    	lea    0x3eab8,%eax
   134c8:	c7 04 24 00 00 00 00 	movl   $0x0,(%esp)
   134cf:	89 44 24 04          	mov    %eax,0x4(%esp)
   134d3:	e8 d8 e7 ff ff       	call   11cb0 <builtin.default_panic>
   134d8:	8d 85 cd ef ff ff    	lea    -0x1033(%ebp),%eax
   134de:	05 00 10 00 00       	add    $0x1000,%eax
   134e3:	89 85 18 ef ff ff    	mov    %eax,-0x10e8(%ebp)
   134e9:	eb 2c                	jmp    13517 <debug.panicExtra__anon_1417+0x197>
   134eb:	8b 85 18 ef ff ff    	mov    -0x10e8(%ebp),%eax
   134f1:	89 c2                	mov    %eax,%edx
   134f3:	83 c2 0f             	add    $0xf,%edx
   134f6:	8d 0d 73 ef 03 00    	lea    0x3ef73,%ecx
   134fc:	83 c1 0f             	add    $0xf,%ecx
   134ff:	39 c8                	cmp    %ecx,%eax
   13501:	0f 93 c0             	setae  %al
   13504:	8d 0d 73 ef 03 00    	lea    0x3ef73,%ecx
   1350a:	39 d1                	cmp    %edx,%ecx
   1350c:	0f 93 c1             	setae  %cl
   1350f:	08 c8                	or     %cl,%al
   13511:	a8 01                	test   $0x1,%al
   13513:	75 59                	jne    1356e <debug.panicExtra__anon_1417+0x1ee>
   13515:	eb 59                	jmp    13570 <debug.panicExtra__anon_1417+0x1f0>
   13517:	eb d2                	jmp    134eb <debug.panicExtra__anon_1417+0x16b>
   13519:	ba 0f 10 00 00       	mov    $0x100f,%edx
   1351e:	89 d1                	mov    %edx,%ecx
   13520:	e8 ab e7 ff ff       	call   11cd0 <builtin.panicOutOfBounds>
   13525:	8b 85 30 ef ff ff    	mov    -0x10d0(%ebp),%eax
   1352b:	8b 8d 18 ef ff ff    	mov    -0x10e8(%ebp),%ecx
   13531:	c7 41 0b 74 65 64 29 	movl   $0x29646574,0xb(%ecx)
   13538:	c7 41 08 6e 63 61 74 	movl   $0x7461636e,0x8(%ecx)
   1353f:	c7 41 04 20 74 72 75 	movl   $0x75727420,0x4(%ecx)
   13546:	c7 01 28 6d 73 67    	movl   $0x67736d28,(%ecx)
   1354c:	89 85 bc ef ff ff    	mov    %eax,-0x1044(%ebp)
   13552:	b8 0f 10 00 00       	mov    $0x100f,%eax
   13557:	8d 8d cd ef ff ff    	lea    -0x1033(%ebp),%ecx
   1355d:	89 8d 20 ef ff ff    	mov    %ecx,-0x10e0(%ebp)
   13563:	89 85 1c ef ff ff    	mov    %eax,-0x10e4(%ebp)
   13569:	e9 f2 fe ff ff       	jmp    13460 <debug.panicExtra__anon_1417+0xe0>
   1356e:	eb b5                	jmp    13525 <debug.panicExtra__anon_1417+0x1a5>
   13570:	b9 13 f0 03 00       	mov    $0x3f013,%ecx
   13575:	ba 17 00 00 00       	mov    $0x17,%edx
   1357a:	31 c0                	xor    %eax,%eax
   1357c:	8d 05 b8 ea 03 00    	lea    0x3eab8,%eax
   13582:	c7 04 24 00 00 00 00 	movl   $0x0,(%esp)
   13589:	89 44 24 04          	mov    %eax,0x4(%esp)
   1358d:	e8 1e e7 ff ff       	call   11cb0 <builtin.default_panic>
   13592:	66 2e 0f 1f 84 00 00 	nopw   %cs:0x0(%eax,%eax,1)
   13599:	00 00 00 
   1359c:	0f 1f 40 00          	nopl   0x0(%eax)

000135a0 <device.screen.get_line_number>:
   135a0:	55                   	push   %ebp
   135a1:	89 e5                	mov    %esp,%ebp
   135a3:	57                   	push   %edi
   135a4:	56                   	push   %esi
   135a5:	81 ec c8 00 00 00    	sub    $0xc8,%esp
   135ab:	8d 85 48 ff ff ff    	lea    -0xb8(%ebp),%eax
   135b1:	89 45 cc             	mov    %eax,-0x34(%ebp)
   135b4:	c7 45 d0 20 00 00 00 	movl   $0x20,-0x30(%ebp)
   135bb:	c7 45 c8 00 00 00 00 	movl   $0x0,-0x38(%ebp)
   135c2:	8b 45 c8             	mov    -0x38(%ebp),%eax
   135c5:	89 85 44 ff ff ff    	mov    %eax,-0xbc(%ebp)
   135cb:	66 c7 45 d8 00 00    	movw   $0x0,-0x28(%ebp)
   135d1:	c7 45 d4 00 00 00 00 	movl   $0x0,-0x2c(%ebp)
   135d8:	be 06 00 00 00       	mov    $0x6,%esi
   135dd:	8d 7d d4             	lea    -0x2c(%ebp),%edi
   135e0:	66 a1 30 0d 04 00    	mov    0x40d30,%ax
   135e6:	66 89 45 da          	mov    %ax,-0x26(%ebp)
   135ea:	8d 4d dc             	lea    -0x24(%ebp),%ecx
   135ed:	8d 55 c8             	lea    -0x38(%ebp),%edx
   135f0:	8d 45 da             	lea    -0x26(%ebp),%eax
   135f3:	89 3c 24             	mov    %edi,(%esp)
   135f6:	89 74 24 04          	mov    %esi,0x4(%esp)
   135fa:	89 44 24 08          	mov    %eax,0x8(%esp)
   135fe:	e8 9d 0a 00 00       	call   140a0 <fmt.bufPrint__anon_2046>
   13603:	66 83 7d e4 00       	cmpw   $0x0,-0x1c(%ebp)
   13608:	74 1e                	je     13628 <device.screen.get_line_number+0x88>
   1360a:	eb 3c                	jmp    13648 <device.screen.get_line_number+0xa8>
   1360c:	8b 85 40 ff ff ff    	mov    -0xc0(%ebp),%eax
   13612:	8b 95 3c ff ff ff    	mov    -0xc4(%ebp),%edx
   13618:	89 45 f0             	mov    %eax,-0x10(%ebp)
   1361b:	89 55 f4             	mov    %edx,-0xc(%ebp)
   1361e:	81 c4 c8 00 00 00    	add    $0xc8,%esp
   13624:	5e                   	pop    %esi
   13625:	5f                   	pop    %edi
   13626:	5d                   	pop    %ebp
   13627:	c3                   	ret
   13628:	8b 45 dc             	mov    -0x24(%ebp),%eax
   1362b:	8b 4d e0             	mov    -0x20(%ebp),%ecx
   1362e:	89 4d ec             	mov    %ecx,-0x14(%ebp)
   13631:	89 45 e8             	mov    %eax,-0x18(%ebp)
   13634:	8b 4d e8             	mov    -0x18(%ebp),%ecx
   13637:	8b 45 ec             	mov    -0x14(%ebp),%eax
   1363a:	89 8d 40 ff ff ff    	mov    %ecx,-0xc0(%ebp)
   13640:	89 85 3c ff ff ff    	mov    %eax,-0xc4(%ebp)
   13646:	eb c4                	jmp    1360c <device.screen.get_line_number+0x6c>
   13648:	66 8b 45 e4          	mov    -0x1c(%ebp),%ax
   1364c:	66 83 e8 01          	sub    $0x1,%ax
   13650:	74 24                	je     13676 <device.screen.get_line_number+0xd6>
   13652:	eb 00                	jmp    13654 <device.screen.get_line_number+0xb4>
   13654:	b9 aa f0 03 00       	mov    $0x3f0aa,%ecx
   13659:	ba 17 00 00 00       	mov    $0x17,%edx
   1365e:	31 c0                	xor    %eax,%eax
   13660:	8d 05 b8 ea 03 00    	lea    0x3eab8,%eax
   13666:	c7 04 24 00 00 00 00 	movl   $0x0,(%esp)
   1366d:	89 44 24 04          	mov    %eax,0x4(%esp)
   13671:	e8 3a e6 ff ff       	call   11cb0 <builtin.default_panic>
   13676:	8b 85 44 ff ff ff    	mov    -0xbc(%ebp),%eax
   1367c:	89 45 c8             	mov    %eax,-0x38(%ebp)
   1367f:	b8 01 00 00 00       	mov    $0x1,%eax
   13684:	b9 11 f0 03 00       	mov    $0x3f011,%ecx
   13689:	89 8d 40 ff ff ff    	mov    %ecx,-0xc0(%ebp)
   1368f:	89 85 3c ff ff ff    	mov    %eax,-0xc4(%ebp)
   13695:	e9 72 ff ff ff       	jmp    1360c <device.screen.get_line_number+0x6c>
   1369a:	66 0f 1f 44 00 00    	nopw   0x0(%eax,%eax,1)

000136a0 <io.ports.outb>:
   136a0:	55                   	push   %ebp
   136a1:	89 e5                	mov    %esp,%ebp
   136a3:	50                   	push   %eax
   136a4:	89 d0                	mov    %edx,%eax
   136a6:	66 89 ca             	mov    %cx,%dx
   136a9:	66 89 55 fc          	mov    %dx,-0x4(%ebp)
   136ad:	88 45 ff             	mov    %al,-0x1(%ebp)
   136b0:	ee                   	out    %al,(%dx)
   136b1:	83 c4 04             	add    $0x4,%esp
   136b4:	5d                   	pop    %ebp
   136b5:	c3                   	ret
   136b6:	66 2e 0f 1f 84 00 00 	nopw   %cs:0x0(%eax,%eax,1)
   136bd:	00 00 00 

000136c0 <fmt.format__anon_1552>:
   136c0:	55                   	push   %ebp
   136c1:	89 e5                	mov    %esp,%ebp
   136c3:	56                   	push   %esi
   136c4:	83 ec 3c             	sub    $0x3c,%esp
   136c7:	89 55 d0             	mov    %edx,-0x30(%ebp)
   136ca:	89 4d d4             	mov    %ecx,-0x2c(%ebp)
   136cd:	f2 0f 10 02          	movsd  (%edx),%xmm0
   136d1:	f2 0f 11 45 dc       	movsd  %xmm0,-0x24(%ebp)
   136d6:	be 57 ee 03 00       	mov    $0x3ee57,%esi
   136db:	b8 16 00 00 00       	mov    $0x16,%eax
   136e0:	8d 55 dc             	lea    -0x24(%ebp),%edx
   136e3:	89 34 24             	mov    %esi,(%esp)
   136e6:	89 44 24 04          	mov    %eax,0x4(%esp)
   136ea:	e8 41 01 00 00       	call   13830 <io.Writer.writeAll>
   136ef:	66 89 45 da          	mov    %ax,-0x26(%ebp)
   136f3:	66 83 f8 00          	cmp    $0x0,%ax
   136f7:	75 3d                	jne    13736 <fmt.format__anon_1552+0x76>
   136f9:	eb 4d                	jmp    13748 <fmt.format__anon_1552+0x88>
   136fb:	8b 4d d4             	mov    -0x2c(%ebp),%ecx
   136fe:	8b 45 d0             	mov    -0x30(%ebp),%eax
   13701:	f2 0f 10 00          	movsd  (%eax),%xmm0
   13705:	f2 0f 11 45 e8       	movsd  %xmm0,-0x18(%ebp)
   1370a:	be 70 ee 03 00       	mov    $0x3ee70,%esi
   1370f:	b8 04 00 00 00       	mov    $0x4,%eax
   13714:	8d 55 e8             	lea    -0x18(%ebp),%edx
   13717:	89 34 24             	mov    %esi,(%esp)
   1371a:	89 44 24 04          	mov    %eax,0x4(%esp)
   1371e:	e8 0d 01 00 00       	call   13830 <io.Writer.writeAll>
   13723:	66 89 45 ce          	mov    %ax,-0x32(%ebp)
   13727:	66 83 f8 00          	cmp    $0x0,%ax
   1372b:	0f 85 8f 00 00 00    	jne    137c0 <fmt.format__anon_1552+0x100>
   13731:	e9 9c 00 00 00       	jmp    137d2 <fmt.format__anon_1552+0x112>
   13736:	8b 4d d4             	mov    -0x2c(%ebp),%ecx
   13739:	e8 42 02 00 00       	call   13980 <builtin.returnError>
   1373e:	66 8b 45 da          	mov    -0x26(%ebp),%ax
   13742:	83 c4 3c             	add    $0x3c,%esp
   13745:	5e                   	pop    %esi
   13746:	5d                   	pop    %ebp
   13747:	c3                   	ret
   13748:	8b 45 d0             	mov    -0x30(%ebp),%eax
   1374b:	8b 4d d4             	mov    -0x2c(%ebp),%ecx
   1374e:	c7 45 e4 00 00 00 00 	movl   $0x0,-0x1c(%ebp)
   13755:	8d 15 00 e3 03 00    	lea    0x3e300,%edx
   1375b:	89 04 24             	mov    %eax,(%esp)
   1375e:	c7 44 24 04 03 00 00 	movl   $0x3,0x4(%esp)
   13765:	00 
   13766:	e8 d5 02 00 00       	call   13a40 <fmt.formatType__anon_2034>
   1376b:	66 89 45 cc          	mov    %ax,-0x34(%ebp)
   1376f:	66 83 f8 00          	cmp    $0x0,%ax
   13773:	74 12                	je     13787 <fmt.format__anon_1552+0xc7>
   13775:	8b 4d d4             	mov    -0x2c(%ebp),%ecx
   13778:	e8 03 02 00 00       	call   13980 <builtin.returnError>
   1377d:	66 8b 45 cc          	mov    -0x34(%ebp),%ax
   13781:	83 c4 3c             	add    $0x3c,%esp
   13784:	5e                   	pop    %esi
   13785:	5d                   	pop    %ebp
   13786:	c3                   	ret
   13787:	e9 6f ff ff ff       	jmp    136fb <fmt.format__anon_1552+0x3b>
   1378c:	8b 4d d4             	mov    -0x2c(%ebp),%ecx
   1378f:	8b 45 d0             	mov    -0x30(%ebp),%eax
   13792:	f2 0f 10 00          	movsd  (%eax),%xmm0
   13796:	f2 0f 11 45 f4       	movsd  %xmm0,-0xc(%ebp)
   1379b:	be 77 ee 03 00       	mov    $0x3ee77,%esi
   137a0:	b8 01 00 00 00       	mov    $0x1,%eax
   137a5:	8d 55 f4             	lea    -0xc(%ebp),%edx
   137a8:	89 34 24             	mov    %esi,(%esp)
   137ab:	89 44 24 04          	mov    %eax,0x4(%esp)
   137af:	e8 7c 00 00 00       	call   13830 <io.Writer.writeAll>
   137b4:	66 89 45 ca          	mov    %ax,-0x36(%ebp)
   137b8:	66 83 f8 00          	cmp    $0x0,%ax
   137bc:	75 58                	jne    13816 <fmt.format__anon_1552+0x156>
   137be:	eb 68                	jmp    13828 <fmt.format__anon_1552+0x168>
   137c0:	8b 4d d4             	mov    -0x2c(%ebp),%ecx
   137c3:	e8 b8 01 00 00       	call   13980 <builtin.returnError>
   137c8:	66 8b 45 ce          	mov    -0x32(%ebp),%ax
   137cc:	83 c4 3c             	add    $0x3c,%esp
   137cf:	5e                   	pop    %esi
   137d0:	5d                   	pop    %ebp
   137d1:	c3                   	ret
   137d2:	8b 45 d0             	mov    -0x30(%ebp),%eax
   137d5:	8b 4d d4             	mov    -0x2c(%ebp),%ecx
   137d8:	c7 45 f0 01 00 00 00 	movl   $0x1,-0x10(%ebp)
   137df:	8d 15 00 e3 03 00    	lea    0x3e300,%edx
   137e5:	89 04 24             	mov    %eax,(%esp)
   137e8:	c7 44 24 04 03 00 00 	movl   $0x3,0x4(%esp)
   137ef:	00 
   137f0:	e8 cb 02 00 00       	call   13ac0 <fmt.formatType__anon_2035>
   137f5:	66 89 45 c8          	mov    %ax,-0x38(%ebp)
   137f9:	66 83 f8 00          	cmp    $0x0,%ax
   137fd:	74 12                	je     13811 <fmt.format__anon_1552+0x151>
   137ff:	8b 4d d4             	mov    -0x2c(%ebp),%ecx
   13802:	e8 79 01 00 00       	call   13980 <builtin.returnError>
   13807:	66 8b 45 c8          	mov    -0x38(%ebp),%ax
   1380b:	83 c4 3c             	add    $0x3c,%esp
   1380e:	5e                   	pop    %esi
   1380f:	5d                   	pop    %ebp
   13810:	c3                   	ret
   13811:	e9 76 ff ff ff       	jmp    1378c <fmt.format__anon_1552+0xcc>
   13816:	8b 4d d4             	mov    -0x2c(%ebp),%ecx
   13819:	e8 62 01 00 00       	call   13980 <builtin.returnError>
   1381e:	66 8b 45 ca          	mov    -0x36(%ebp),%ax
   13822:	83 c4 3c             	add    $0x3c,%esp
   13825:	5e                   	pop    %esi
   13826:	5d                   	pop    %ebp
   13827:	c3                   	ret
   13828:	31 c0                	xor    %eax,%eax
   1382a:	83 c4 3c             	add    $0x3c,%esp
   1382d:	5e                   	pop    %esi
   1382e:	5d                   	pop    %ebp
   1382f:	c3                   	ret

00013830 <io.Writer.writeAll>:
   13830:	55                   	push   %ebp
   13831:	89 e5                	mov    %esp,%ebp
   13833:	57                   	push   %edi
   13834:	56                   	push   %esi
   13835:	83 ec 64             	sub    $0x64,%esp
   13838:	89 55 bc             	mov    %edx,-0x44(%ebp)
   1383b:	89 4d c0             	mov    %ecx,-0x40(%ebp)
   1383e:	8b 4d 0c             	mov    0xc(%ebp),%ecx
   13841:	8b 45 08             	mov    0x8(%ebp),%eax
   13844:	89 ca                	mov    %ecx,%edx
   13846:	89 55 c4             	mov    %edx,-0x3c(%ebp)
   13849:	89 c2                	mov    %eax,%edx
   1384b:	89 55 c8             	mov    %edx,-0x38(%ebp)
   1384e:	89 4d d0             	mov    %ecx,-0x30(%ebp)
   13851:	89 45 cc             	mov    %eax,-0x34(%ebp)
   13854:	c7 45 d4 00 00 00 00 	movl   $0x0,-0x2c(%ebp)
   1385b:	eb 09                	jmp    13866 <io.Writer.writeAll+0x36>
   1385d:	31 c0                	xor    %eax,%eax
   1385f:	83 c4 64             	add    $0x64,%esp
   13862:	5e                   	pop    %esi
   13863:	5f                   	pop    %edi
   13864:	5d                   	pop    %ebp
   13865:	c3                   	ret
   13866:	8b 4d c4             	mov    -0x3c(%ebp),%ecx
   13869:	8b 45 d4             	mov    -0x2c(%ebp),%eax
   1386c:	39 c8                	cmp    %ecx,%eax
   1386e:	75 04                	jne    13874 <io.Writer.writeAll+0x44>
   13870:	eb 44                	jmp    138b6 <io.Writer.writeAll+0x86>
   13872:	eb f2                	jmp    13866 <io.Writer.writeAll+0x36>
   13874:	8b 45 c8             	mov    -0x38(%ebp),%eax
   13877:	8b 4d c4             	mov    -0x3c(%ebp),%ecx
   1387a:	8b 55 bc             	mov    -0x44(%ebp),%edx
   1387d:	8b 75 d4             	mov    -0x2c(%ebp),%esi
   13880:	89 75 ac             	mov    %esi,-0x54(%ebp)
   13883:	f2 0f 10 02          	movsd  (%edx),%xmm0
   13887:	f2 0f 11 45 d8       	movsd  %xmm0,-0x28(%ebp)
   1388c:	f2 0f 10 45 d8       	movsd  -0x28(%ebp),%xmm0
   13891:	f2 0f 11 45 e0       	movsd  %xmm0,-0x20(%ebp)
   13896:	89 4d ec             	mov    %ecx,-0x14(%ebp)
   13899:	89 45 e8             	mov    %eax,-0x18(%ebp)
   1389c:	8b 45 d4             	mov    -0x2c(%ebp),%eax
   1389f:	89 45 b0             	mov    %eax,-0x50(%ebp)
   138a2:	8b 55 e8             	mov    -0x18(%ebp),%edx
   138a5:	8b 4d ec             	mov    -0x14(%ebp),%ecx
   138a8:	89 4d b4             	mov    %ecx,-0x4c(%ebp)
   138ab:	01 c2                	add    %eax,%edx
   138ad:	89 55 b8             	mov    %edx,-0x48(%ebp)
   138b0:	39 c8                	cmp    %ecx,%eax
   138b2:	76 17                	jbe    138cb <io.Writer.writeAll+0x9b>
   138b4:	eb 17                	jmp    138cd <io.Writer.writeAll+0x9d>
   138b6:	eb a5                	jmp    1385d <io.Writer.writeAll+0x2d>
   138b8:	8b 45 b4             	mov    -0x4c(%ebp),%eax
   138bb:	8b 55 b0             	mov    -0x50(%ebp),%edx
   138be:	89 c1                	mov    %eax,%ecx
   138c0:	29 d1                	sub    %edx,%ecx
   138c2:	89 4d a8             	mov    %ecx,-0x58(%ebp)
   138c5:	39 c0                	cmp    %eax,%eax
   138c7:	76 1b                	jbe    138e4 <io.Writer.writeAll+0xb4>
   138c9:	eb 1b                	jmp    138e6 <io.Writer.writeAll+0xb6>
   138cb:	eb eb                	jmp    138b8 <io.Writer.writeAll+0x88>
   138cd:	8b 55 b4             	mov    -0x4c(%ebp),%edx
   138d0:	8b 4d b0             	mov    -0x50(%ebp),%ecx
   138d3:	e8 98 e7 ff ff       	call   12070 <builtin.panicStartGreaterThanEnd>
   138d8:	8b 45 b0             	mov    -0x50(%ebp),%eax
   138db:	8b 4d b4             	mov    -0x4c(%ebp),%ecx
   138de:	39 c8                	cmp    %ecx,%eax
   138e0:	76 36                	jbe    13918 <io.Writer.writeAll+0xe8>
   138e2:	eb 36                	jmp    1391a <io.Writer.writeAll+0xea>
   138e4:	eb f2                	jmp    138d8 <io.Writer.writeAll+0xa8>
   138e6:	8b 55 b4             	mov    -0x4c(%ebp),%edx
   138e9:	89 d1                	mov    %edx,%ecx
   138eb:	e8 e0 e3 ff ff       	call   11cd0 <builtin.panicOutOfBounds>
   138f0:	8b 55 c0             	mov    -0x40(%ebp),%edx
   138f3:	8b 75 b8             	mov    -0x48(%ebp),%esi
   138f6:	8b 45 a8             	mov    -0x58(%ebp),%eax
   138f9:	8d 4d f0             	lea    -0x10(%ebp),%ecx
   138fc:	8d 7d e0             	lea    -0x20(%ebp),%edi
   138ff:	89 3c 24             	mov    %edi,(%esp)
   13902:	89 74 24 04          	mov    %esi,0x4(%esp)
   13906:	89 44 24 08          	mov    %eax,0x8(%esp)
   1390a:	e8 81 0b 00 00       	call   14490 <io.Writer.write>
   1390f:	66 83 7d f4 00       	cmpw   $0x0,-0xc(%ebp)
   13914:	75 0f                	jne    13925 <io.Writer.writeAll+0xf5>
   13916:	eb 28                	jmp    13940 <io.Writer.writeAll+0x110>
   13918:	eb d6                	jmp    138f0 <io.Writer.writeAll+0xc0>
   1391a:	8b 55 b4             	mov    -0x4c(%ebp),%edx
   1391d:	8b 4d b0             	mov    -0x50(%ebp),%ecx
   13920:	e8 ab e3 ff ff       	call   11cd0 <builtin.panicOutOfBounds>
   13925:	8b 4d c0             	mov    -0x40(%ebp),%ecx
   13928:	66 8b 45 f4          	mov    -0xc(%ebp),%ax
   1392c:	66 89 45 a6          	mov    %ax,-0x5a(%ebp)
   13930:	e8 4b 00 00 00       	call   13980 <builtin.returnError>
   13935:	66 8b 45 a6          	mov    -0x5a(%ebp),%ax
   13939:	83 c4 64             	add    $0x64,%esp
   1393c:	5e                   	pop    %esi
   1393d:	5f                   	pop    %edi
   1393e:	5d                   	pop    %ebp
   1393f:	c3                   	ret
   13940:	8b 45 ac             	mov    -0x54(%ebp),%eax
   13943:	03 45 f0             	add    -0x10(%ebp),%eax
   13946:	89 45 a0             	mov    %eax,-0x60(%ebp)
   13949:	0f 92 c0             	setb   %al
   1394c:	72 02                	jb     13950 <io.Writer.writeAll+0x120>
   1394e:	eb 23                	jmp    13973 <io.Writer.writeAll+0x143>
   13950:	8d 0d d3 ee 03 00    	lea    0x3eed3,%ecx
   13956:	ba 10 00 00 00       	mov    $0x10,%edx
   1395b:	31 c0                	xor    %eax,%eax
   1395d:	8d 05 b8 ea 03 00    	lea    0x3eab8,%eax
   13963:	c7 04 24 00 00 00 00 	movl   $0x0,(%esp)
   1396a:	89 44 24 04          	mov    %eax,0x4(%esp)
   1396e:	e8 3d e3 ff ff       	call   11cb0 <builtin.default_panic>
   13973:	8b 45 a0             	mov    -0x60(%ebp),%eax
   13976:	89 45 d4             	mov    %eax,-0x2c(%ebp)
   13979:	e9 f4 fe ff ff       	jmp    13872 <io.Writer.writeAll+0x42>
   1397e:	66 90                	xchg   %ax,%ax

00013980 <builtin.returnError>:
   13980:	55                   	push   %ebp
   13981:	89 e5                	mov    %esp,%ebp
   13983:	83 ec 38             	sub    $0x38,%esp
   13986:	89 4d e4             	mov    %ecx,-0x1c(%ebp)
   13989:	89 4d ec             	mov    %ecx,-0x14(%ebp)
   1398c:	8b 45 04             	mov    0x4(%ebp),%eax
   1398f:	89 45 e8             	mov    %eax,-0x18(%ebp)
   13992:	89 4d f0             	mov    %ecx,-0x10(%ebp)
   13995:	89 45 f4             	mov    %eax,-0xc(%ebp)
   13998:	8b 01                	mov    (%ecx),%eax
   1399a:	8b 51 04             	mov    0x4(%ecx),%edx
   1399d:	8b 49 08             	mov    0x8(%ecx),%ecx
   139a0:	39 c8                	cmp    %ecx,%eax
   139a2:	72 22                	jb     139c6 <builtin.returnError+0x46>
   139a4:	eb 40                	jmp    139e6 <builtin.returnError+0x66>
   139a6:	83 c4 38             	add    $0x38,%esp
   139a9:	5d                   	pop    %ebp
   139aa:	c3                   	ret
   139ab:	8b 45 e4             	mov    -0x1c(%ebp),%eax
   139ae:	89 45 fc             	mov    %eax,-0x4(%ebp)
   139b1:	8b 45 fc             	mov    -0x4(%ebp),%eax
   139b4:	89 45 dc             	mov    %eax,-0x24(%ebp)
   139b7:	8b 00                	mov    (%eax),%eax
   139b9:	83 c0 01             	add    $0x1,%eax
   139bc:	89 45 e0             	mov    %eax,-0x20(%ebp)
   139bf:	0f 92 c0             	setb   %al
   139c2:	72 3f                	jb     13a03 <builtin.returnError+0x83>
   139c4:	eb 60                	jmp    13a26 <builtin.returnError+0xa6>
   139c6:	8b 45 e4             	mov    -0x1c(%ebp),%eax
   139c9:	89 45 f8             	mov    %eax,-0x8(%ebp)
   139cc:	8b 4d f8             	mov    -0x8(%ebp),%ecx
   139cf:	8b 00                	mov    (%eax),%eax
   139d1:	89 45 d0             	mov    %eax,-0x30(%ebp)
   139d4:	8b 51 04             	mov    0x4(%ecx),%edx
   139d7:	89 55 d4             	mov    %edx,-0x2c(%ebp)
   139da:	8b 49 08             	mov    0x8(%ecx),%ecx
   139dd:	89 4d d8             	mov    %ecx,-0x28(%ebp)
   139e0:	39 c8                	cmp    %ecx,%eax
   139e2:	72 12                	jb     139f6 <builtin.returnError+0x76>
   139e4:	eb 12                	jmp    139f8 <builtin.returnError+0x78>
   139e6:	eb c3                	jmp    139ab <builtin.returnError+0x2b>
   139e8:	8b 45 d4             	mov    -0x2c(%ebp),%eax
   139eb:	8b 4d d0             	mov    -0x30(%ebp),%ecx
   139ee:	8b 55 e8             	mov    -0x18(%ebp),%edx
   139f1:	89 14 88             	mov    %edx,(%eax,%ecx,4)
   139f4:	eb b5                	jmp    139ab <builtin.returnError+0x2b>
   139f6:	eb f0                	jmp    139e8 <builtin.returnError+0x68>
   139f8:	8b 55 d8             	mov    -0x28(%ebp),%edx
   139fb:	8b 4d d0             	mov    -0x30(%ebp),%ecx
   139fe:	e8 cd e2 ff ff       	call   11cd0 <builtin.panicOutOfBounds>
   13a03:	8d 0d d3 ee 03 00    	lea    0x3eed3,%ecx
   13a09:	ba 10 00 00 00       	mov    $0x10,%edx
   13a0e:	31 c0                	xor    %eax,%eax
   13a10:	8d 05 b8 ea 03 00    	lea    0x3eab8,%eax
   13a16:	c7 04 24 00 00 00 00 	movl   $0x0,(%esp)
   13a1d:	89 44 24 04          	mov    %eax,0x4(%esp)
   13a21:	e8 8a e2 ff ff       	call   11cb0 <builtin.default_panic>
   13a26:	8b 45 dc             	mov    -0x24(%ebp),%eax
   13a29:	8b 4d e0             	mov    -0x20(%ebp),%ecx
   13a2c:	89 08                	mov    %ecx,(%eax)
   13a2e:	e9 73 ff ff ff       	jmp    139a6 <builtin.returnError+0x26>
   13a33:	66 2e 0f 1f 84 00 00 	nopw   %cs:0x0(%eax,%eax,1)
   13a3a:	00 00 00 
   13a3d:	0f 1f 00             	nopl   (%eax)

00013a40 <fmt.formatType__anon_2034>:
   13a40:	55                   	push   %ebp
   13a41:	89 e5                	mov    %esp,%ebp
   13a43:	83 ec 2c             	sub    $0x2c,%esp
   13a46:	89 55 dc             	mov    %edx,-0x24(%ebp)
   13a49:	89 4d e0             	mov    %ecx,-0x20(%ebp)
   13a4c:	8b 45 0c             	mov    0xc(%ebp),%eax
   13a4f:	8b 45 08             	mov    0x8(%ebp),%eax
   13a52:	89 45 e4             	mov    %eax,-0x1c(%ebp)
   13a55:	c7 45 ec 01 00 00 00 	movl   $0x1,-0x14(%ebp)
   13a5c:	c7 45 e8 c8 e2 03 00 	movl   $0x3e2c8,-0x18(%ebp)
   13a63:	c7 45 f4 06 00 00 00 	movl   $0x6,-0xc(%ebp)
   13a6a:	c7 45 f0 fb ef 03 00 	movl   $0x3effb,-0x10(%ebp)
   13a71:	c7 45 fc 06 00 00 00 	movl   $0x6,-0x4(%ebp)
   13a78:	c7 45 f8 fb ef 03 00 	movl   $0x3effb,-0x8(%ebp)
   13a7f:	eb 1d                	jmp    13a9e <fmt.formatType__anon_2034+0x5e>
   13a81:	8b 45 e4             	mov    -0x1c(%ebp),%eax
   13a84:	8b 55 dc             	mov    -0x24(%ebp),%edx
   13a87:	8b 4d e0             	mov    -0x20(%ebp),%ecx
   13a8a:	89 04 24             	mov    %eax,(%esp)
   13a8d:	e8 8e 0a 00 00       	call   14520 <fmt.formatValue__anon_2047>
   13a92:	66 89 45 da          	mov    %ax,-0x26(%ebp)
   13a96:	66 83 f8 00          	cmp    $0x0,%ax
   13a9a:	74 04                	je     13aa0 <fmt.formatType__anon_2034+0x60>
   13a9c:	eb 0b                	jmp    13aa9 <fmt.formatType__anon_2034+0x69>
   13a9e:	eb e1                	jmp    13a81 <fmt.formatType__anon_2034+0x41>
   13aa0:	66 8b 45 da          	mov    -0x26(%ebp),%ax
   13aa4:	83 c4 2c             	add    $0x2c,%esp
   13aa7:	5d                   	pop    %ebp
   13aa8:	c3                   	ret
   13aa9:	8b 4d e0             	mov    -0x20(%ebp),%ecx
   13aac:	e8 cf fe ff ff       	call   13980 <builtin.returnError>
   13ab1:	66 8b 45 da          	mov    -0x26(%ebp),%ax
   13ab5:	83 c4 2c             	add    $0x2c,%esp
   13ab8:	5d                   	pop    %ebp
   13ab9:	c3                   	ret
   13aba:	66 0f 1f 44 00 00    	nopw   0x0(%eax,%eax,1)

00013ac0 <fmt.formatType__anon_2035>:
   13ac0:	55                   	push   %ebp
   13ac1:	89 e5                	mov    %esp,%ebp
   13ac3:	83 ec 2c             	sub    $0x2c,%esp
   13ac6:	89 55 dc             	mov    %edx,-0x24(%ebp)
   13ac9:	89 4d e0             	mov    %ecx,-0x20(%ebp)
   13acc:	8b 45 0c             	mov    0xc(%ebp),%eax
   13acf:	8b 45 08             	mov    0x8(%ebp),%eax
   13ad2:	89 45 e4             	mov    %eax,-0x1c(%ebp)
   13ad5:	c7 45 ec 01 00 00 00 	movl   $0x1,-0x14(%ebp)
   13adc:	c7 45 e8 c8 e2 03 00 	movl   $0x3e2c8,-0x18(%ebp)
   13ae3:	c7 45 f4 06 00 00 00 	movl   $0x6,-0xc(%ebp)
   13aea:	c7 45 f0 fb ef 03 00 	movl   $0x3effb,-0x10(%ebp)
   13af1:	c7 45 fc 06 00 00 00 	movl   $0x6,-0x4(%ebp)
   13af8:	c7 45 f8 fb ef 03 00 	movl   $0x3effb,-0x8(%ebp)
   13aff:	eb 1d                	jmp    13b1e <fmt.formatType__anon_2035+0x5e>
   13b01:	8b 45 e4             	mov    -0x1c(%ebp),%eax
   13b04:	8b 55 dc             	mov    -0x24(%ebp),%edx
   13b07:	8b 4d e0             	mov    -0x20(%ebp),%ecx
   13b0a:	89 04 24             	mov    %eax,(%esp)
   13b0d:	e8 4e 0a 00 00       	call   14560 <fmt.formatValue__anon_2048>
   13b12:	66 89 45 da          	mov    %ax,-0x26(%ebp)
   13b16:	66 83 f8 00          	cmp    $0x0,%ax
   13b1a:	74 04                	je     13b20 <fmt.formatType__anon_2035+0x60>
   13b1c:	eb 0b                	jmp    13b29 <fmt.formatType__anon_2035+0x69>
   13b1e:	eb e1                	jmp    13b01 <fmt.formatType__anon_2035+0x41>
   13b20:	66 8b 45 da          	mov    -0x26(%ebp),%ax
   13b24:	83 c4 2c             	add    $0x2c,%esp
   13b27:	5d                   	pop    %ebp
   13b28:	c3                   	ret
   13b29:	8b 4d e0             	mov    -0x20(%ebp),%ecx
   13b2c:	e8 4f fe ff ff       	call   13980 <builtin.returnError>
   13b31:	66 8b 45 da          	mov    -0x26(%ebp),%ax
   13b35:	83 c4 2c             	add    $0x2c,%esp
   13b38:	5d                   	pop    %ebp
   13b39:	c3                   	ret
   13b3a:	66 0f 1f 44 00 00    	nopw   0x0(%eax,%eax,1)

00013b40 <io.fixed_buffer_stream.fixedBufferStream__anon_1519>:
   13b40:	55                   	push   %ebp
   13b41:	89 e5                	mov    %esp,%ebp
   13b43:	56                   	push   %esi
   13b44:	83 ec 08             	sub    $0x8,%esp
   13b47:	89 c8                	mov    %ecx,%eax
   13b49:	8b 75 08             	mov    0x8(%ebp),%esi
   13b4c:	89 75 f8             	mov    %esi,-0x8(%ebp)
   13b4f:	89 55 f4             	mov    %edx,-0xc(%ebp)
   13b52:	89 71 04             	mov    %esi,0x4(%ecx)
   13b55:	89 11                	mov    %edx,(%ecx)
   13b57:	c7 41 08 00 00 00 00 	movl   $0x0,0x8(%ecx)
   13b5e:	83 c4 08             	add    $0x8,%esp
   13b61:	5e                   	pop    %esi
   13b62:	5d                   	pop    %ebp
   13b63:	c3                   	ret
   13b64:	66 2e 0f 1f 84 00 00 	nopw   %cs:0x0(%eax,%eax,1)
   13b6b:	00 00 00 
   13b6e:	66 90                	xchg   %ax,%ax

00013b70 <io.fixed_buffer_stream.FixedBufferStream([]u8).writer>:
   13b70:	55                   	push   %ebp
   13b71:	89 e5                	mov    %esp,%ebp
   13b73:	50                   	push   %eax
   13b74:	89 c8                	mov    %ecx,%eax
   13b76:	89 55 fc             	mov    %edx,-0x4(%ebp)
   13b79:	89 11                	mov    %edx,(%ecx)
   13b7b:	83 c4 04             	add    $0x4,%esp
   13b7e:	5d                   	pop    %ebp
   13b7f:	c3                   	ret

00013b80 <io.GenericWriter(*io.fixed_buffer_stream.FixedBufferStream([]u8),error{NoSpaceLeft},(function 'write')).typeErasedWriteFn>:
   13b80:	55                   	push   %ebp
   13b81:	89 e5                	mov    %esp,%ebp
   13b83:	57                   	push   %edi
   13b84:	56                   	push   %esi
   13b85:	83 ec 38             	sub    $0x38,%esp
   13b88:	89 55 cc             	mov    %edx,-0x34(%ebp)
   13b8b:	89 4d d0             	mov    %ecx,-0x30(%ebp)
   13b8e:	89 4d d4             	mov    %ecx,-0x2c(%ebp)
   13b91:	8b 55 10             	mov    0x10(%ebp),%edx
   13b94:	8b 4d 0c             	mov    0xc(%ebp),%ecx
   13b97:	8b 45 08             	mov    0x8(%ebp),%eax
   13b9a:	89 45 d8             	mov    %eax,-0x28(%ebp)
   13b9d:	89 d6                	mov    %edx,%esi
   13b9f:	89 75 dc             	mov    %esi,-0x24(%ebp)
   13ba2:	89 ce                	mov    %ecx,%esi
   13ba4:	89 75 e0             	mov    %esi,-0x20(%ebp)
   13ba7:	89 55 e8             	mov    %edx,-0x18(%ebp)
   13baa:	89 4d e4             	mov    %ecx,-0x1c(%ebp)
   13bad:	83 e0 03             	and    $0x3,%eax
   13bb0:	83 f8 00             	cmp    $0x0,%eax
   13bb3:	74 2f                	je     13be4 <io.GenericWriter(*io.fixed_buffer_stream.FixedBufferStream([]u8),error{NoSpaceLeft},(function 'write')).typeErasedWriteFn+0x64>
   13bb5:	eb 2f                	jmp    13be6 <io.GenericWriter(*io.fixed_buffer_stream.FixedBufferStream([]u8),error{NoSpaceLeft},(function 'write')).typeErasedWriteFn+0x66>
   13bb7:	8b 45 dc             	mov    -0x24(%ebp),%eax
   13bba:	8b 75 e0             	mov    -0x20(%ebp),%esi
   13bbd:	8b 55 cc             	mov    -0x34(%ebp),%edx
   13bc0:	8b 4d d8             	mov    -0x28(%ebp),%ecx
   13bc3:	89 4d ec             	mov    %ecx,-0x14(%ebp)
   13bc6:	8b 39                	mov    (%ecx),%edi
   13bc8:	8d 4d f0             	lea    -0x10(%ebp),%ecx
   13bcb:	89 3c 24             	mov    %edi,(%esp)
   13bce:	89 74 24 04          	mov    %esi,0x4(%esp)
   13bd2:	89 44 24 08          	mov    %eax,0x8(%esp)
   13bd6:	e8 e5 05 00 00       	call   141c0 <io.fixed_buffer_stream.FixedBufferStream([]u8).write>
   13bdb:	66 83 7d f4 00       	cmpw   $0x0,-0xc(%ebp)
   13be0:	74 26                	je     13c08 <io.GenericWriter(*io.fixed_buffer_stream.FixedBufferStream([]u8),error{NoSpaceLeft},(function 'write')).typeErasedWriteFn+0x88>
   13be2:	eb 3c                	jmp    13c20 <io.GenericWriter(*io.fixed_buffer_stream.FixedBufferStream([]u8),error{NoSpaceLeft},(function 'write')).typeErasedWriteFn+0xa0>
   13be4:	eb d1                	jmp    13bb7 <io.GenericWriter(*io.fixed_buffer_stream.FixedBufferStream([]u8),error{NoSpaceLeft},(function 'write')).typeErasedWriteFn+0x37>
   13be6:	b9 16 ee 03 00       	mov    $0x3ee16,%ecx
   13beb:	ba 13 00 00 00       	mov    $0x13,%edx
   13bf0:	31 c0                	xor    %eax,%eax
   13bf2:	8d 05 b8 ea 03 00    	lea    0x3eab8,%eax
   13bf8:	c7 04 24 00 00 00 00 	movl   $0x0,(%esp)
   13bff:	89 44 24 04          	mov    %eax,0x4(%esp)
   13c03:	e8 a8 e0 ff ff       	call   11cb0 <builtin.default_panic>
   13c08:	8b 45 d4             	mov    -0x2c(%ebp),%eax
   13c0b:	8b 4d d0             	mov    -0x30(%ebp),%ecx
   13c0e:	8b 55 f0             	mov    -0x10(%ebp),%edx
   13c11:	89 11                	mov    %edx,(%ecx)
   13c13:	8b 55 f4             	mov    -0xc(%ebp),%edx
   13c16:	89 51 04             	mov    %edx,0x4(%ecx)
   13c19:	83 c4 38             	add    $0x38,%esp
   13c1c:	5e                   	pop    %esi
   13c1d:	5f                   	pop    %edi
   13c1e:	5d                   	pop    %ebp
   13c1f:	c3                   	ret
   13c20:	8b 4d cc             	mov    -0x34(%ebp),%ecx
   13c23:	e8 58 fd ff ff       	call   13980 <builtin.returnError>
   13c28:	8b 4d d0             	mov    -0x30(%ebp),%ecx
   13c2b:	8b 45 d4             	mov    -0x2c(%ebp),%eax
   13c2e:	8b 55 f0             	mov    -0x10(%ebp),%edx
   13c31:	89 11                	mov    %edx,(%ecx)
   13c33:	8b 55 f4             	mov    -0xc(%ebp),%edx
   13c36:	89 51 04             	mov    %edx,0x4(%ecx)
   13c39:	83 c4 38             	add    $0x38,%esp
   13c3c:	5e                   	pop    %esi
   13c3d:	5f                   	pop    %edi
   13c3e:	5d                   	pop    %ebp
   13c3f:	c3                   	ret

00013c40 <builtin.panicUnwrapError>:
   13c40:	55                   	push   %ebp
   13c41:	89 e5                	mov    %esp,%ebp
   13c43:	56                   	push   %esi
   13c44:	83 ec 1c             	sub    $0x1c,%esp
   13c47:	66 89 d0             	mov    %dx,%ax
   13c4a:	89 4d e4             	mov    %ecx,-0x1c(%ebp)
   13c4d:	66 89 45 ea          	mov    %ax,-0x16(%ebp)
   13c51:	8b 55 04             	mov    0x4(%ebp),%edx
   13c54:	89 55 ec             	mov    %edx,-0x14(%ebp)
   13c57:	c6 45 f0 01          	movb   $0x1,-0x10(%ebp)
   13c5b:	8b 15 ac e3 03 00    	mov    0x3e3ac,%edx
   13c61:	0f bf f0             	movswl %ax,%esi
   13c64:	8b 04 f2             	mov    (%edx,%esi,8),%eax
   13c67:	8b 54 f2 04          	mov    0x4(%edx,%esi,8),%edx
   13c6b:	89 55 f8             	mov    %edx,-0x8(%ebp)
   13c6e:	89 45 f4             	mov    %eax,-0xc(%ebp)
   13c71:	8d 55 ec             	lea    -0x14(%ebp),%edx
   13c74:	8d 45 f4             	lea    -0xc(%ebp),%eax
   13c77:	89 04 24             	mov    %eax,(%esp)
   13c7a:	e8 21 09 00 00       	call   145a0 <debug.panicExtra__anon_2049>
   13c7f:	90                   	nop

00013c80 <io.fixed_buffer_stream.FixedBufferStream([]u8).getWritten>:
   13c80:	55                   	push   %ebp
   13c81:	89 e5                	mov    %esp,%ebp
   13c83:	83 ec 18             	sub    $0x18,%esp
   13c86:	8b 41 08             	mov    0x8(%ecx),%eax
   13c89:	89 45 fc             	mov    %eax,-0x4(%ebp)
   13c8c:	f2 0f 10 01          	movsd  (%ecx),%xmm0
   13c90:	f2 0f 11 45 f4       	movsd  %xmm0,-0xc(%ebp)
   13c95:	8b 49 08             	mov    0x8(%ecx),%ecx
   13c98:	89 4d e8             	mov    %ecx,-0x18(%ebp)
   13c9b:	8b 45 f4             	mov    -0xc(%ebp),%eax
   13c9e:	89 45 ec             	mov    %eax,-0x14(%ebp)
   13ca1:	8b 45 f8             	mov    -0x8(%ebp),%eax
   13ca4:	89 45 f0             	mov    %eax,-0x10(%ebp)
   13ca7:	31 c0                	xor    %eax,%eax
   13ca9:	39 c8                	cmp    %ecx,%eax
   13cab:	76 0e                	jbe    13cbb <io.fixed_buffer_stream.FixedBufferStream([]u8).getWritten+0x3b>
   13cad:	eb 0e                	jmp    13cbd <io.fixed_buffer_stream.FixedBufferStream([]u8).getWritten+0x3d>
   13caf:	8b 45 e8             	mov    -0x18(%ebp),%eax
   13cb2:	8b 4d f0             	mov    -0x10(%ebp),%ecx
   13cb5:	39 c8                	cmp    %ecx,%eax
   13cb7:	76 19                	jbe    13cd2 <io.fixed_buffer_stream.FixedBufferStream([]u8).getWritten+0x52>
   13cb9:	eb 19                	jmp    13cd4 <io.fixed_buffer_stream.FixedBufferStream([]u8).getWritten+0x54>
   13cbb:	eb f2                	jmp    13caf <io.fixed_buffer_stream.FixedBufferStream([]u8).getWritten+0x2f>
   13cbd:	8b 55 e8             	mov    -0x18(%ebp),%edx
   13cc0:	31 c9                	xor    %ecx,%ecx
   13cc2:	e8 a9 e3 ff ff       	call   12070 <builtin.panicStartGreaterThanEnd>
   13cc7:	8b 4d e8             	mov    -0x18(%ebp),%ecx
   13cca:	31 c0                	xor    %eax,%eax
   13ccc:	39 c8                	cmp    %ecx,%eax
   13cce:	76 1a                	jbe    13cea <io.fixed_buffer_stream.FixedBufferStream([]u8).getWritten+0x6a>
   13cd0:	eb 1a                	jmp    13cec <io.fixed_buffer_stream.FixedBufferStream([]u8).getWritten+0x6c>
   13cd2:	eb f3                	jmp    13cc7 <io.fixed_buffer_stream.FixedBufferStream([]u8).getWritten+0x47>
   13cd4:	8b 55 f0             	mov    -0x10(%ebp),%edx
   13cd7:	8b 4d e8             	mov    -0x18(%ebp),%ecx
   13cda:	e8 f1 df ff ff       	call   11cd0 <builtin.panicOutOfBounds>
   13cdf:	8b 55 e8             	mov    -0x18(%ebp),%edx
   13ce2:	8b 45 ec             	mov    -0x14(%ebp),%eax
   13ce5:	83 c4 18             	add    $0x18,%esp
   13ce8:	5d                   	pop    %ebp
   13ce9:	c3                   	ret
   13cea:	eb f3                	jmp    13cdf <io.fixed_buffer_stream.FixedBufferStream([]u8).getWritten+0x5f>
   13cec:	8b 55 e8             	mov    -0x18(%ebp),%edx
   13cef:	31 c9                	xor    %ecx,%ecx
   13cf1:	e8 da df ff ff       	call   11cd0 <builtin.panicOutOfBounds>
   13cf6:	66 2e 0f 1f 84 00 00 	nopw   %cs:0x0(%eax,%eax,1)
   13cfd:	00 00 00 

00013d00 <fmt.bufPrint__anon_2036>:
   13d00:	55                   	push   %ebp
   13d01:	89 e5                	mov    %esp,%ebp
   13d03:	56                   	push   %esi
   13d04:	83 ec 64             	sub    $0x64,%esp
   13d07:	89 55 a4             	mov    %edx,-0x5c(%ebp)
   13d0a:	89 4d a8             	mov    %ecx,-0x58(%ebp)
   13d0d:	89 4d ac             	mov    %ecx,-0x54(%ebp)
   13d10:	8b 45 10             	mov    0x10(%ebp),%eax
   13d13:	89 45 b0             	mov    %eax,-0x50(%ebp)
   13d16:	8b 75 0c             	mov    0xc(%ebp),%esi
   13d19:	8b 4d 08             	mov    0x8(%ebp),%ecx
   13d1c:	89 f0                	mov    %esi,%eax
   13d1e:	89 ca                	mov    %ecx,%edx
   13d20:	89 75 bc             	mov    %esi,-0x44(%ebp)
   13d23:	89 4d b8             	mov    %ecx,-0x48(%ebp)
   13d26:	8d 4d cc             	lea    -0x34(%ebp),%ecx
   13d29:	89 04 24             	mov    %eax,(%esp)
   13d2c:	e8 0f fe ff ff       	call   13b40 <io.fixed_buffer_stream.fixedBufferStream__anon_1519>
   13d31:	8b 45 cc             	mov    -0x34(%ebp),%eax
   13d34:	89 45 c0             	mov    %eax,-0x40(%ebp)
   13d37:	8b 45 d0             	mov    -0x30(%ebp),%eax
   13d3a:	89 45 c4             	mov    %eax,-0x3c(%ebp)
   13d3d:	8b 45 d4             	mov    -0x2c(%ebp),%eax
   13d40:	89 45 c8             	mov    %eax,-0x38(%ebp)
   13d43:	8d 4d d8             	lea    -0x28(%ebp),%ecx
   13d46:	8d 55 c0             	lea    -0x40(%ebp),%edx
   13d49:	e8 22 fe ff ff       	call   13b70 <io.fixed_buffer_stream.FixedBufferStream([]u8).writer>
   13d4e:	8b 45 d8             	mov    -0x28(%ebp),%eax
   13d51:	89 45 dc             	mov    %eax,-0x24(%ebp)
   13d54:	8d 45 dc             	lea    -0x24(%ebp),%eax
   13d57:	89 45 e0             	mov    %eax,-0x20(%ebp)
   13d5a:	8d 45 dc             	lea    -0x24(%ebp),%eax
   13d5d:	89 45 ec             	mov    %eax,-0x14(%ebp)
   13d60:	8b 45 ec             	mov    -0x14(%ebp),%eax
   13d63:	89 45 e4             	mov    %eax,-0x1c(%ebp)
   13d66:	8d 05 80 3b 01 00    	lea    0x13b80,%eax
   13d6c:	89 45 e8             	mov    %eax,-0x18(%ebp)
   13d6f:	8d 45 e4             	lea    -0x1c(%ebp),%eax
   13d72:	89 45 b4             	mov    %eax,-0x4c(%ebp)
   13d75:	8b 45 b0             	mov    -0x50(%ebp),%eax
   13d78:	8b 4d a4             	mov    -0x5c(%ebp),%ecx
   13d7b:	8b 55 b4             	mov    -0x4c(%ebp),%edx
   13d7e:	89 04 24             	mov    %eax,(%esp)
   13d81:	e8 3a 0a 00 00       	call   147c0 <fmt.format__anon_2050>
   13d86:	66 89 45 a2          	mov    %ax,-0x5e(%ebp)
   13d8a:	66 83 f8 00          	cmp    $0x0,%ax
   13d8e:	74 3d                	je     13dcd <fmt.bufPrint__anon_2036+0xcd>
   13d90:	eb 3d                	jmp    13dcf <fmt.bufPrint__anon_2036+0xcf>
   13d92:	8d 4d c0             	lea    -0x40(%ebp),%ecx
   13d95:	e8 e6 fe ff ff       	call   13c80 <io.fixed_buffer_stream.FixedBufferStream([]u8).getWritten>
   13d9a:	8b 4d a8             	mov    -0x58(%ebp),%ecx
   13d9d:	89 c6                	mov    %eax,%esi
   13d9f:	8b 45 ac             	mov    -0x54(%ebp),%eax
   13da2:	89 75 9c             	mov    %esi,-0x64(%ebp)
   13da5:	89 d6                	mov    %edx,%esi
   13da7:	8b 55 9c             	mov    -0x64(%ebp),%edx
   13daa:	66 c7 45 f8 00 00    	movw   $0x0,-0x8(%ebp)
   13db0:	89 75 f4             	mov    %esi,-0xc(%ebp)
   13db3:	89 55 f0             	mov    %edx,-0x10(%ebp)
   13db6:	8b 55 f0             	mov    -0x10(%ebp),%edx
   13db9:	89 11                	mov    %edx,(%ecx)
   13dbb:	8b 55 f4             	mov    -0xc(%ebp),%edx
   13dbe:	89 51 04             	mov    %edx,0x4(%ecx)
   13dc1:	8b 55 f8             	mov    -0x8(%ebp),%edx
   13dc4:	89 51 08             	mov    %edx,0x8(%ecx)
   13dc7:	83 c4 64             	add    $0x64,%esp
   13dca:	5e                   	pop    %esi
   13dcb:	5d                   	pop    %ebp
   13dcc:	c3                   	ret
   13dcd:	eb c3                	jmp    13d92 <fmt.bufPrint__anon_2036+0x92>
   13dcf:	66 8b 45 a2          	mov    -0x5e(%ebp),%ax
   13dd3:	66 83 e8 01          	sub    $0x1,%ax
   13dd7:	74 11                	je     13dea <fmt.bufPrint__anon_2036+0xea>
   13dd9:	eb 00                	jmp    13ddb <fmt.bufPrint__anon_2036+0xdb>
   13ddb:	66 8b 45 a2          	mov    -0x5e(%ebp),%ax
   13ddf:	8b 4d a4             	mov    -0x5c(%ebp),%ecx
   13de2:	0f b7 d0             	movzwl %ax,%edx
   13de5:	e8 56 fe ff ff       	call   13c40 <builtin.panicUnwrapError>
   13dea:	8b 4d a4             	mov    -0x5c(%ebp),%ecx
   13ded:	e8 8e fb ff ff       	call   13980 <builtin.returnError>
   13df2:	8b 4d a8             	mov    -0x58(%ebp),%ecx
   13df5:	8b 45 ac             	mov    -0x54(%ebp),%eax
   13df8:	8b 15 fc e3 03 00    	mov    0x3e3fc,%edx
   13dfe:	89 11                	mov    %edx,(%ecx)
   13e00:	8b 15 00 e4 03 00    	mov    0x3e400,%edx
   13e06:	89 51 04             	mov    %edx,0x4(%ecx)
   13e09:	8b 15 04 e4 03 00    	mov    0x3e404,%edx
   13e0f:	89 51 08             	mov    %edx,0x8(%ecx)
   13e12:	83 c4 64             	add    $0x64,%esp
   13e15:	5e                   	pop    %esi
   13e16:	5d                   	pop    %ebp
   13e17:	c3                   	ret
   13e18:	0f 1f 84 00 00 00 00 	nopl   0x0(%eax,%eax,1)
   13e1f:	00 

00013e20 <fmt.format__anon_2042>:
   13e20:	55                   	push   %ebp
   13e21:	89 e5                	mov    %esp,%ebp
   13e23:	56                   	push   %esi
   13e24:	83 ec 2c             	sub    $0x2c,%esp
   13e27:	89 55 e0             	mov    %edx,-0x20(%ebp)
   13e2a:	89 4d e4             	mov    %ecx,-0x1c(%ebp)
   13e2d:	8b 45 08             	mov    0x8(%ebp),%eax
   13e30:	89 45 e8             	mov    %eax,-0x18(%ebp)
   13e33:	f2 0f 10 02          	movsd  (%edx),%xmm0
   13e37:	f2 0f 11 45 f0       	movsd  %xmm0,-0x10(%ebp)
   13e3c:	be 9b f0 03 00       	mov    $0x3f09b,%esi
   13e41:	b8 0b 00 00 00       	mov    $0xb,%eax
   13e46:	8d 55 f0             	lea    -0x10(%ebp),%edx
   13e49:	89 34 24             	mov    %esi,(%esp)
   13e4c:	89 44 24 04          	mov    %eax,0x4(%esp)
   13e50:	e8 db f9 ff ff       	call   13830 <io.Writer.writeAll>
   13e55:	66 89 45 ee          	mov    %ax,-0x12(%ebp)
   13e59:	66 83 f8 00          	cmp    $0x0,%ax
   13e5d:	75 0a                	jne    13e69 <fmt.format__anon_2042+0x49>
   13e5f:	eb 1a                	jmp    13e7b <fmt.format__anon_2042+0x5b>
   13e61:	31 c0                	xor    %eax,%eax
   13e63:	83 c4 2c             	add    $0x2c,%esp
   13e66:	5e                   	pop    %esi
   13e67:	5d                   	pop    %ebp
   13e68:	c3                   	ret
   13e69:	8b 4d e4             	mov    -0x1c(%ebp),%ecx
   13e6c:	e8 0f fb ff ff       	call   13980 <builtin.returnError>
   13e71:	66 8b 45 ee          	mov    -0x12(%ebp),%ax
   13e75:	83 c4 2c             	add    $0x2c,%esp
   13e78:	5e                   	pop    %esi
   13e79:	5d                   	pop    %ebp
   13e7a:	c3                   	ret
   13e7b:	8b 45 e0             	mov    -0x20(%ebp),%eax
   13e7e:	8b 4d e4             	mov    -0x1c(%ebp),%ecx
   13e81:	8b 55 e8             	mov    -0x18(%ebp),%edx
   13e84:	c7 45 f8 00 00 00 00 	movl   $0x0,-0x8(%ebp)
   13e8b:	8b 12                	mov    (%edx),%edx
   13e8d:	8d 35 60 e3 03 00    	lea    0x3e360,%esi
   13e93:	89 34 24             	mov    %esi,(%esp)
   13e96:	89 44 24 04          	mov    %eax,0x4(%esp)
   13e9a:	c7 44 24 08 03 00 00 	movl   $0x3,0x8(%esp)
   13ea1:	00 
   13ea2:	e8 29 00 00 00       	call   13ed0 <fmt.formatType__anon_2043>
   13ea7:	66 89 45 de          	mov    %ax,-0x22(%ebp)
   13eab:	66 83 f8 00          	cmp    $0x0,%ax
   13eaf:	74 12                	je     13ec3 <fmt.format__anon_2042+0xa3>
   13eb1:	8b 4d e4             	mov    -0x1c(%ebp),%ecx
   13eb4:	e8 c7 fa ff ff       	call   13980 <builtin.returnError>
   13eb9:	66 8b 45 de          	mov    -0x22(%ebp),%ax
   13ebd:	83 c4 2c             	add    $0x2c,%esp
   13ec0:	5e                   	pop    %esi
   13ec1:	5d                   	pop    %ebp
   13ec2:	c3                   	ret
   13ec3:	eb 9c                	jmp    13e61 <fmt.format__anon_2042+0x41>
   13ec5:	66 2e 0f 1f 84 00 00 	nopw   %cs:0x0(%eax,%eax,1)
   13ecc:	00 00 00 
   13ecf:	90                   	nop

00013ed0 <fmt.formatType__anon_2043>:
   13ed0:	55                   	push   %ebp
   13ed1:	89 e5                	mov    %esp,%ebp
   13ed3:	56                   	push   %esi
   13ed4:	83 ec 1c             	sub    $0x1c,%esp
   13ed7:	89 4d e8             	mov    %ecx,-0x18(%ebp)
   13eda:	8b 45 10             	mov    0x10(%ebp),%eax
   13edd:	8b 45 0c             	mov    0xc(%ebp),%eax
   13ee0:	8b 75 08             	mov    0x8(%ebp),%esi
   13ee3:	89 55 f0             	mov    %edx,-0x10(%ebp)
   13ee6:	c7 45 f8 01 00 00 00 	movl   $0x1,-0x8(%ebp)
   13eed:	c7 45 f4 29 e3 03 00 	movl   $0x3e329,-0xc(%ebp)
   13ef4:	89 34 24             	mov    %esi,(%esp)
   13ef7:	89 44 24 04          	mov    %eax,0x4(%esp)
   13efb:	e8 90 0a 00 00       	call   14990 <fmt.formatAddress__anon_2052>
   13f00:	66 89 45 ee          	mov    %ax,-0x12(%ebp)
   13f04:	66 83 f8 00          	cmp    $0x0,%ax
   13f08:	75 0a                	jne    13f14 <fmt.formatType__anon_2043+0x44>
   13f0a:	66 8b 45 ee          	mov    -0x12(%ebp),%ax
   13f0e:	83 c4 1c             	add    $0x1c,%esp
   13f11:	5e                   	pop    %esi
   13f12:	5d                   	pop    %ebp
   13f13:	c3                   	ret
   13f14:	8b 4d e8             	mov    -0x18(%ebp),%ecx
   13f17:	e8 64 fa ff ff       	call   13980 <builtin.returnError>
   13f1c:	66 8b 45 ee          	mov    -0x12(%ebp),%ax
   13f20:	83 c4 1c             	add    $0x1c,%esp
   13f23:	5e                   	pop    %esi
   13f24:	5d                   	pop    %ebp
   13f25:	c3                   	ret
   13f26:	66 2e 0f 1f 84 00 00 	nopw   %cs:0x0(%eax,%eax,1)
   13f2d:	00 00 00 

00013f30 <fmt.format__anon_2044>:
   13f30:	55                   	push   %ebp
   13f31:	89 e5                	mov    %esp,%ebp
   13f33:	56                   	push   %esi
   13f34:	83 ec 18             	sub    $0x18,%esp
   13f37:	89 4d ec             	mov    %ecx,-0x14(%ebp)
   13f3a:	f2 0f 10 02          	movsd  (%edx),%xmm0
   13f3e:	f2 0f 11 45 f4       	movsd  %xmm0,-0xc(%ebp)
   13f43:	be 2b f0 03 00       	mov    $0x3f02b,%esi
   13f48:	b8 14 00 00 00       	mov    $0x14,%eax
   13f4d:	8d 55 f4             	lea    -0xc(%ebp),%edx
   13f50:	89 34 24             	mov    %esi,(%esp)
   13f53:	89 44 24 04          	mov    %eax,0x4(%esp)
   13f57:	e8 d4 f8 ff ff       	call   13830 <io.Writer.writeAll>
   13f5c:	66 89 45 f2          	mov    %ax,-0xe(%ebp)
   13f60:	66 83 f8 00          	cmp    $0x0,%ax
   13f64:	74 12                	je     13f78 <fmt.format__anon_2044+0x48>
   13f66:	8b 4d ec             	mov    -0x14(%ebp),%ecx
   13f69:	e8 12 fa ff ff       	call   13980 <builtin.returnError>
   13f6e:	66 8b 45 f2          	mov    -0xe(%ebp),%ax
   13f72:	83 c4 18             	add    $0x18,%esp
   13f75:	5e                   	pop    %esi
   13f76:	5d                   	pop    %ebp
   13f77:	c3                   	ret
   13f78:	31 c0                	xor    %eax,%eax
   13f7a:	83 c4 18             	add    $0x18,%esp
   13f7d:	5e                   	pop    %esi
   13f7e:	5d                   	pop    %ebp
   13f7f:	c3                   	ret

00013f80 <fmt.bufPrint__anon_2045>:
   13f80:	55                   	push   %ebp
   13f81:	89 e5                	mov    %esp,%ebp
   13f83:	56                   	push   %esi
   13f84:	83 ec 64             	sub    $0x64,%esp
   13f87:	89 55 a4             	mov    %edx,-0x5c(%ebp)
   13f8a:	89 4d a8             	mov    %ecx,-0x58(%ebp)
   13f8d:	89 4d ac             	mov    %ecx,-0x54(%ebp)
   13f90:	8b 45 10             	mov    0x10(%ebp),%eax
   13f93:	89 45 b0             	mov    %eax,-0x50(%ebp)
   13f96:	8b 75 0c             	mov    0xc(%ebp),%esi
   13f99:	8b 4d 08             	mov    0x8(%ebp),%ecx
   13f9c:	89 f0                	mov    %esi,%eax
   13f9e:	89 ca                	mov    %ecx,%edx
   13fa0:	89 75 bc             	mov    %esi,-0x44(%ebp)
   13fa3:	89 4d b8             	mov    %ecx,-0x48(%ebp)
   13fa6:	8d 4d cc             	lea    -0x34(%ebp),%ecx
   13fa9:	89 04 24             	mov    %eax,(%esp)
   13fac:	e8 8f fb ff ff       	call   13b40 <io.fixed_buffer_stream.fixedBufferStream__anon_1519>
   13fb1:	8b 45 cc             	mov    -0x34(%ebp),%eax
   13fb4:	89 45 c0             	mov    %eax,-0x40(%ebp)
   13fb7:	8b 45 d0             	mov    -0x30(%ebp),%eax
   13fba:	89 45 c4             	mov    %eax,-0x3c(%ebp)
   13fbd:	8b 45 d4             	mov    -0x2c(%ebp),%eax
   13fc0:	89 45 c8             	mov    %eax,-0x38(%ebp)
   13fc3:	8d 4d d8             	lea    -0x28(%ebp),%ecx
   13fc6:	8d 55 c0             	lea    -0x40(%ebp),%edx
   13fc9:	e8 a2 fb ff ff       	call   13b70 <io.fixed_buffer_stream.FixedBufferStream([]u8).writer>
   13fce:	8b 45 d8             	mov    -0x28(%ebp),%eax
   13fd1:	89 45 dc             	mov    %eax,-0x24(%ebp)
   13fd4:	8d 45 dc             	lea    -0x24(%ebp),%eax
   13fd7:	89 45 e0             	mov    %eax,-0x20(%ebp)
   13fda:	8d 45 dc             	lea    -0x24(%ebp),%eax
   13fdd:	89 45 ec             	mov    %eax,-0x14(%ebp)
   13fe0:	8b 45 ec             	mov    -0x14(%ebp),%eax
   13fe3:	89 45 e4             	mov    %eax,-0x1c(%ebp)
   13fe6:	8d 05 80 3b 01 00    	lea    0x13b80,%eax
   13fec:	89 45 e8             	mov    %eax,-0x18(%ebp)
   13fef:	8d 45 e4             	lea    -0x1c(%ebp),%eax
   13ff2:	89 45 b4             	mov    %eax,-0x4c(%ebp)
   13ff5:	8b 45 b0             	mov    -0x50(%ebp),%eax
   13ff8:	8b 4d a4             	mov    -0x5c(%ebp),%ecx
   13ffb:	8b 55 b4             	mov    -0x4c(%ebp),%edx
   13ffe:	89 04 24             	mov    %eax,(%esp)
   14001:	e8 3a 0a 00 00       	call   14a40 <fmt.format__anon_2053>
   14006:	66 89 45 a2          	mov    %ax,-0x5e(%ebp)
   1400a:	66 83 f8 00          	cmp    $0x0,%ax
   1400e:	74 3d                	je     1404d <fmt.bufPrint__anon_2045+0xcd>
   14010:	eb 3d                	jmp    1404f <fmt.bufPrint__anon_2045+0xcf>
   14012:	8d 4d c0             	lea    -0x40(%ebp),%ecx
   14015:	e8 66 fc ff ff       	call   13c80 <io.fixed_buffer_stream.FixedBufferStream([]u8).getWritten>
   1401a:	8b 4d a8             	mov    -0x58(%ebp),%ecx
   1401d:	89 c6                	mov    %eax,%esi
   1401f:	8b 45 ac             	mov    -0x54(%ebp),%eax
   14022:	89 75 9c             	mov    %esi,-0x64(%ebp)
   14025:	89 d6                	mov    %edx,%esi
   14027:	8b 55 9c             	mov    -0x64(%ebp),%edx
   1402a:	66 c7 45 f8 00 00    	movw   $0x0,-0x8(%ebp)
   14030:	89 75 f4             	mov    %esi,-0xc(%ebp)
   14033:	89 55 f0             	mov    %edx,-0x10(%ebp)
   14036:	8b 55 f0             	mov    -0x10(%ebp),%edx
   14039:	89 11                	mov    %edx,(%ecx)
   1403b:	8b 55 f4             	mov    -0xc(%ebp),%edx
   1403e:	89 51 04             	mov    %edx,0x4(%ecx)
   14041:	8b 55 f8             	mov    -0x8(%ebp),%edx
   14044:	89 51 08             	mov    %edx,0x8(%ecx)
   14047:	83 c4 64             	add    $0x64,%esp
   1404a:	5e                   	pop    %esi
   1404b:	5d                   	pop    %ebp
   1404c:	c3                   	ret
   1404d:	eb c3                	jmp    14012 <fmt.bufPrint__anon_2045+0x92>
   1404f:	66 8b 45 a2          	mov    -0x5e(%ebp),%ax
   14053:	66 83 e8 01          	sub    $0x1,%ax
   14057:	74 11                	je     1406a <fmt.bufPrint__anon_2045+0xea>
   14059:	eb 00                	jmp    1405b <fmt.bufPrint__anon_2045+0xdb>
   1405b:	66 8b 45 a2          	mov    -0x5e(%ebp),%ax
   1405f:	8b 4d a4             	mov    -0x5c(%ebp),%ecx
   14062:	0f b7 d0             	movzwl %ax,%edx
   14065:	e8 d6 fb ff ff       	call   13c40 <builtin.panicUnwrapError>
   1406a:	8b 4d a4             	mov    -0x5c(%ebp),%ecx
   1406d:	e8 0e f9 ff ff       	call   13980 <builtin.returnError>
   14072:	8b 4d a8             	mov    -0x58(%ebp),%ecx
   14075:	8b 45 ac             	mov    -0x54(%ebp),%eax
   14078:	8b 15 54 e4 03 00    	mov    0x3e454,%edx
   1407e:	89 11                	mov    %edx,(%ecx)
   14080:	8b 15 58 e4 03 00    	mov    0x3e458,%edx
   14086:	89 51 04             	mov    %edx,0x4(%ecx)
   14089:	8b 15 5c e4 03 00    	mov    0x3e45c,%edx
   1408f:	89 51 08             	mov    %edx,0x8(%ecx)
   14092:	83 c4 64             	add    $0x64,%esp
   14095:	5e                   	pop    %esi
   14096:	5d                   	pop    %ebp
   14097:	c3                   	ret
   14098:	0f 1f 84 00 00 00 00 	nopl   0x0(%eax,%eax,1)
   1409f:	00 

000140a0 <fmt.bufPrint__anon_2046>:
   140a0:	55                   	push   %ebp
   140a1:	89 e5                	mov    %esp,%ebp
   140a3:	56                   	push   %esi
   140a4:	83 ec 64             	sub    $0x64,%esp
   140a7:	89 55 a4             	mov    %edx,-0x5c(%ebp)
   140aa:	89 4d a8             	mov    %ecx,-0x58(%ebp)
   140ad:	89 4d ac             	mov    %ecx,-0x54(%ebp)
   140b0:	8b 45 10             	mov    0x10(%ebp),%eax
   140b3:	89 45 b0             	mov    %eax,-0x50(%ebp)
   140b6:	8b 75 0c             	mov    0xc(%ebp),%esi
   140b9:	8b 4d 08             	mov    0x8(%ebp),%ecx
   140bc:	89 f0                	mov    %esi,%eax
   140be:	89 ca                	mov    %ecx,%edx
   140c0:	89 75 bc             	mov    %esi,-0x44(%ebp)
   140c3:	89 4d b8             	mov    %ecx,-0x48(%ebp)
   140c6:	8d 4d cc             	lea    -0x34(%ebp),%ecx
   140c9:	89 04 24             	mov    %eax,(%esp)
   140cc:	e8 6f fa ff ff       	call   13b40 <io.fixed_buffer_stream.fixedBufferStream__anon_1519>
   140d1:	8b 45 cc             	mov    -0x34(%ebp),%eax
   140d4:	89 45 c0             	mov    %eax,-0x40(%ebp)
   140d7:	8b 45 d0             	mov    -0x30(%ebp),%eax
   140da:	89 45 c4             	mov    %eax,-0x3c(%ebp)
   140dd:	8b 45 d4             	mov    -0x2c(%ebp),%eax
   140e0:	89 45 c8             	mov    %eax,-0x38(%ebp)
   140e3:	8d 4d d8             	lea    -0x28(%ebp),%ecx
   140e6:	8d 55 c0             	lea    -0x40(%ebp),%edx
   140e9:	e8 82 fa ff ff       	call   13b70 <io.fixed_buffer_stream.FixedBufferStream([]u8).writer>
   140ee:	8b 45 d8             	mov    -0x28(%ebp),%eax
   140f1:	89 45 dc             	mov    %eax,-0x24(%ebp)
   140f4:	8d 45 dc             	lea    -0x24(%ebp),%eax
   140f7:	89 45 e0             	mov    %eax,-0x20(%ebp)
   140fa:	8d 45 dc             	lea    -0x24(%ebp),%eax
   140fd:	89 45 ec             	mov    %eax,-0x14(%ebp)
   14100:	8b 45 ec             	mov    -0x14(%ebp),%eax
   14103:	89 45 e4             	mov    %eax,-0x1c(%ebp)
   14106:	8d 05 80 3b 01 00    	lea    0x13b80,%eax
   1410c:	89 45 e8             	mov    %eax,-0x18(%ebp)
   1410f:	8d 45 e4             	lea    -0x1c(%ebp),%eax
   14112:	89 45 b4             	mov    %eax,-0x4c(%ebp)
   14115:	8b 45 b0             	mov    -0x50(%ebp),%eax
   14118:	8b 4d a4             	mov    -0x5c(%ebp),%ecx
   1411b:	8b 55 b4             	mov    -0x4c(%ebp),%edx
   1411e:	89 04 24             	mov    %eax,(%esp)
   14121:	e8 5a 0a 00 00       	call   14b80 <fmt.format__anon_2054>
   14126:	66 89 45 a2          	mov    %ax,-0x5e(%ebp)
   1412a:	66 83 f8 00          	cmp    $0x0,%ax
   1412e:	74 3d                	je     1416d <fmt.bufPrint__anon_2046+0xcd>
   14130:	eb 3d                	jmp    1416f <fmt.bufPrint__anon_2046+0xcf>
   14132:	8d 4d c0             	lea    -0x40(%ebp),%ecx
   14135:	e8 46 fb ff ff       	call   13c80 <io.fixed_buffer_stream.FixedBufferStream([]u8).getWritten>
   1413a:	8b 4d a8             	mov    -0x58(%ebp),%ecx
   1413d:	89 c6                	mov    %eax,%esi
   1413f:	8b 45 ac             	mov    -0x54(%ebp),%eax
   14142:	89 75 9c             	mov    %esi,-0x64(%ebp)
   14145:	89 d6                	mov    %edx,%esi
   14147:	8b 55 9c             	mov    -0x64(%ebp),%edx
   1414a:	66 c7 45 f8 00 00    	movw   $0x0,-0x8(%ebp)
   14150:	89 75 f4             	mov    %esi,-0xc(%ebp)
   14153:	89 55 f0             	mov    %edx,-0x10(%ebp)
   14156:	8b 55 f0             	mov    -0x10(%ebp),%edx
   14159:	89 11                	mov    %edx,(%ecx)
   1415b:	8b 55 f4             	mov    -0xc(%ebp),%edx
   1415e:	89 51 04             	mov    %edx,0x4(%ecx)
   14161:	8b 55 f8             	mov    -0x8(%ebp),%edx
   14164:	89 51 08             	mov    %edx,0x8(%ecx)
   14167:	83 c4 64             	add    $0x64,%esp
   1416a:	5e                   	pop    %esi
   1416b:	5d                   	pop    %ebp
   1416c:	c3                   	ret
   1416d:	eb c3                	jmp    14132 <fmt.bufPrint__anon_2046+0x92>
   1416f:	66 8b 45 a2          	mov    -0x5e(%ebp),%ax
   14173:	66 83 e8 01          	sub    $0x1,%ax
   14177:	74 11                	je     1418a <fmt.bufPrint__anon_2046+0xea>
   14179:	eb 00                	jmp    1417b <fmt.bufPrint__anon_2046+0xdb>
   1417b:	66 8b 45 a2          	mov    -0x5e(%ebp),%ax
   1417f:	8b 4d a4             	mov    -0x5c(%ebp),%ecx
   14182:	0f b7 d0             	movzwl %ax,%edx
   14185:	e8 b6 fa ff ff       	call   13c40 <builtin.panicUnwrapError>
   1418a:	8b 4d a4             	mov    -0x5c(%ebp),%ecx
   1418d:	e8 ee f7 ff ff       	call   13980 <builtin.returnError>
   14192:	8b 4d a8             	mov    -0x58(%ebp),%ecx
   14195:	8b 45 ac             	mov    -0x54(%ebp),%eax
   14198:	8b 15 ac e4 03 00    	mov    0x3e4ac,%edx
   1419e:	89 11                	mov    %edx,(%ecx)
   141a0:	8b 15 b0 e4 03 00    	mov    0x3e4b0,%edx
   141a6:	89 51 04             	mov    %edx,0x4(%ecx)
   141a9:	8b 15 b4 e4 03 00    	mov    0x3e4b4,%edx
   141af:	89 51 08             	mov    %edx,0x8(%ecx)
   141b2:	83 c4 64             	add    $0x64,%esp
   141b5:	5e                   	pop    %esi
   141b6:	5d                   	pop    %ebp
   141b7:	c3                   	ret
   141b8:	0f 1f 84 00 00 00 00 	nopl   0x0(%eax,%eax,1)
   141bf:	00 

000141c0 <io.fixed_buffer_stream.FixedBufferStream([]u8).write>:
   141c0:	55                   	push   %ebp
   141c1:	89 e5                	mov    %esp,%ebp
   141c3:	57                   	push   %edi
   141c4:	56                   	push   %esi
   141c5:	83 ec 7c             	sub    $0x7c,%esp
   141c8:	89 55 bc             	mov    %edx,-0x44(%ebp)
   141cb:	89 4d c0             	mov    %ecx,-0x40(%ebp)
   141ce:	89 4d c4             	mov    %ecx,-0x3c(%ebp)
   141d1:	8b 55 10             	mov    0x10(%ebp),%edx
   141d4:	8b 4d 0c             	mov    0xc(%ebp),%ecx
   141d7:	8b 45 08             	mov    0x8(%ebp),%eax
   141da:	89 45 c8             	mov    %eax,-0x38(%ebp)
   141dd:	89 d0                	mov    %edx,%eax
   141df:	89 45 cc             	mov    %eax,-0x34(%ebp)
   141e2:	89 ce                	mov    %ecx,%esi
   141e4:	89 75 d0             	mov    %esi,-0x30(%ebp)
   141e7:	89 55 d8             	mov    %edx,-0x28(%ebp)
   141ea:	89 4d d4             	mov    %ecx,-0x2c(%ebp)
   141ed:	83 f8 00             	cmp    $0x0,%eax
   141f0:	74 13                	je     14205 <io.fixed_buffer_stream.FixedBufferStream([]u8).write+0x45>
   141f2:	eb 2f                	jmp    14223 <io.fixed_buffer_stream.FixedBufferStream([]u8).write+0x63>
   141f4:	8b 4d c8             	mov    -0x38(%ebp),%ecx
   141f7:	8b 41 08             	mov    0x8(%ecx),%eax
   141fa:	8b 11                	mov    (%ecx),%edx
   141fc:	8b 49 04             	mov    0x4(%ecx),%ecx
   141ff:	39 c8                	cmp    %ecx,%eax
   14201:	73 37                	jae    1423a <io.fixed_buffer_stream.FixedBufferStream([]u8).write+0x7a>
   14203:	eb 5b                	jmp    14260 <io.fixed_buffer_stream.FixedBufferStream([]u8).write+0xa0>
   14205:	8b 45 c4             	mov    -0x3c(%ebp),%eax
   14208:	8b 4d c0             	mov    -0x40(%ebp),%ecx
   1420b:	8b 15 b8 ea 03 00    	mov    0x3eab8,%edx
   14211:	89 11                	mov    %edx,(%ecx)
   14213:	8b 15 bc ea 03 00    	mov    0x3eabc,%edx
   14219:	89 51 04             	mov    %edx,0x4(%ecx)
   1421c:	83 c4 7c             	add    $0x7c,%esp
   1421f:	5e                   	pop    %esi
   14220:	5f                   	pop    %edi
   14221:	5d                   	pop    %ebp
   14222:	c3                   	ret
   14223:	eb cf                	jmp    141f4 <io.fixed_buffer_stream.FixedBufferStream([]u8).write+0x34>
   14225:	8b 4d c8             	mov    -0x38(%ebp),%ecx
   14228:	8b 01                	mov    (%ecx),%eax
   1422a:	8b 41 04             	mov    0x4(%ecx),%eax
   1422d:	2b 41 08             	sub    0x8(%ecx),%eax
   14230:	89 45 b8             	mov    %eax,-0x48(%ebp)
   14233:	0f 92 c0             	setb   %al
   14236:	72 2a                	jb     14262 <io.fixed_buffer_stream.FixedBufferStream([]u8).write+0xa2>
   14238:	eb 4b                	jmp    14285 <io.fixed_buffer_stream.FixedBufferStream([]u8).write+0xc5>
   1423a:	8b 4d bc             	mov    -0x44(%ebp),%ecx
   1423d:	e8 3e f7 ff ff       	call   13980 <builtin.returnError>
   14242:	8b 4d c0             	mov    -0x40(%ebp),%ecx
   14245:	8b 45 c4             	mov    -0x3c(%ebp),%eax
   14248:	8b 15 80 eb 03 00    	mov    0x3eb80,%edx
   1424e:	89 11                	mov    %edx,(%ecx)
   14250:	8b 15 84 eb 03 00    	mov    0x3eb84,%edx
   14256:	89 51 04             	mov    %edx,0x4(%ecx)
   14259:	83 c4 7c             	add    $0x7c,%esp
   1425c:	5e                   	pop    %esi
   1425d:	5f                   	pop    %edi
   1425e:	5d                   	pop    %ebp
   1425f:	c3                   	ret
   14260:	eb c3                	jmp    14225 <io.fixed_buffer_stream.FixedBufferStream([]u8).write+0x65>
   14262:	8d 0d d3 ee 03 00    	lea    0x3eed3,%ecx
   14268:	ba 10 00 00 00       	mov    $0x10,%edx
   1426d:	31 c0                	xor    %eax,%eax
   1426f:	8d 05 b8 ea 03 00    	lea    0x3eab8,%eax
   14275:	c7 04 24 00 00 00 00 	movl   $0x0,(%esp)
   1427c:	89 44 24 04          	mov    %eax,0x4(%esp)
   14280:	e8 2b da ff ff       	call   11cb0 <builtin.default_panic>
   14285:	8b 45 c8             	mov    -0x38(%ebp),%eax
   14288:	8b 4d b8             	mov    -0x48(%ebp),%ecx
   1428b:	8b 55 cc             	mov    -0x34(%ebp),%edx
   1428e:	89 ce                	mov    %ecx,%esi
   14290:	29 d6                	sub    %edx,%esi
   14292:	0f 42 d1             	cmovb  %ecx,%edx
   14295:	89 55 a4             	mov    %edx,-0x5c(%ebp)
   14298:	89 55 dc             	mov    %edx,-0x24(%ebp)
   1429b:	89 45 e0             	mov    %eax,-0x20(%ebp)
   1429e:	8b 4d e0             	mov    -0x20(%ebp),%ecx
   142a1:	8b 40 08             	mov    0x8(%eax),%eax
   142a4:	89 45 a8             	mov    %eax,-0x58(%ebp)
   142a7:	8b 31                	mov    (%ecx),%esi
   142a9:	8b 49 04             	mov    0x4(%ecx),%ecx
   142ac:	89 4d ac             	mov    %ecx,-0x54(%ebp)
   142af:	01 c6                	add    %eax,%esi
   142b1:	89 75 b0             	mov    %esi,-0x50(%ebp)
   142b4:	01 d0                	add    %edx,%eax
   142b6:	89 45 b4             	mov    %eax,-0x4c(%ebp)
   142b9:	39 c8                	cmp    %ecx,%eax
   142bb:	76 0e                	jbe    142cb <io.fixed_buffer_stream.FixedBufferStream([]u8).write+0x10b>
   142bd:	eb 0e                	jmp    142cd <io.fixed_buffer_stream.FixedBufferStream([]u8).write+0x10d>
   142bf:	8b 45 a8             	mov    -0x58(%ebp),%eax
   142c2:	8b 4d b4             	mov    -0x4c(%ebp),%ecx
   142c5:	39 c8                	cmp    %ecx,%eax
   142c7:	76 3d                	jbe    14306 <io.fixed_buffer_stream.FixedBufferStream([]u8).write+0x146>
   142c9:	eb 3d                	jmp    14308 <io.fixed_buffer_stream.FixedBufferStream([]u8).write+0x148>
   142cb:	eb f2                	jmp    142bf <io.fixed_buffer_stream.FixedBufferStream([]u8).write+0xff>
   142cd:	8b 55 ac             	mov    -0x54(%ebp),%edx
   142d0:	8b 4d b4             	mov    -0x4c(%ebp),%ecx
   142d3:	e8 f8 d9 ff ff       	call   11cd0 <builtin.panicOutOfBounds>
   142d8:	8b 4d a4             	mov    -0x5c(%ebp),%ecx
   142db:	8b 45 cc             	mov    -0x34(%ebp),%eax
   142de:	8b 55 d0             	mov    -0x30(%ebp),%edx
   142e1:	8b 75 b0             	mov    -0x50(%ebp),%esi
   142e4:	89 cf                	mov    %ecx,%edi
   142e6:	89 7d 94             	mov    %edi,-0x6c(%ebp)
   142e9:	89 75 98             	mov    %esi,-0x68(%ebp)
   142ec:	89 55 e4             	mov    %edx,-0x1c(%ebp)
   142ef:	89 45 e8             	mov    %eax,-0x18(%ebp)
   142f2:	8b 45 e4             	mov    -0x1c(%ebp),%eax
   142f5:	89 45 9c             	mov    %eax,-0x64(%ebp)
   142f8:	8b 45 e8             	mov    -0x18(%ebp),%eax
   142fb:	89 45 a0             	mov    %eax,-0x60(%ebp)
   142fe:	31 c0                	xor    %eax,%eax
   14300:	39 c8                	cmp    %ecx,%eax
   14302:	76 1b                	jbe    1431f <io.fixed_buffer_stream.FixedBufferStream([]u8).write+0x15f>
   14304:	eb 1b                	jmp    14321 <io.fixed_buffer_stream.FixedBufferStream([]u8).write+0x161>
   14306:	eb d0                	jmp    142d8 <io.fixed_buffer_stream.FixedBufferStream([]u8).write+0x118>
   14308:	8b 55 b4             	mov    -0x4c(%ebp),%edx
   1430b:	8b 4d a8             	mov    -0x58(%ebp),%ecx
   1430e:	e8 bd d9 ff ff       	call   11cd0 <builtin.panicOutOfBounds>
   14313:	8b 45 a4             	mov    -0x5c(%ebp),%eax
   14316:	8b 4d a0             	mov    -0x60(%ebp),%ecx
   14319:	39 c8                	cmp    %ecx,%eax
   1431b:	76 19                	jbe    14336 <io.fixed_buffer_stream.FixedBufferStream([]u8).write+0x176>
   1431d:	eb 19                	jmp    14338 <io.fixed_buffer_stream.FixedBufferStream([]u8).write+0x178>
   1431f:	eb f2                	jmp    14313 <io.fixed_buffer_stream.FixedBufferStream([]u8).write+0x153>
   14321:	8b 55 a4             	mov    -0x5c(%ebp),%edx
   14324:	31 c9                	xor    %ecx,%ecx
   14326:	e8 45 dd ff ff       	call   12070 <builtin.panicStartGreaterThanEnd>
   1432b:	8b 4d a4             	mov    -0x5c(%ebp),%ecx
   1432e:	31 c0                	xor    %eax,%eax
   14330:	39 c8                	cmp    %ecx,%eax
   14332:	76 21                	jbe    14355 <io.fixed_buffer_stream.FixedBufferStream([]u8).write+0x195>
   14334:	eb 21                	jmp    14357 <io.fixed_buffer_stream.FixedBufferStream([]u8).write+0x197>
   14336:	eb f3                	jmp    1432b <io.fixed_buffer_stream.FixedBufferStream([]u8).write+0x16b>
   14338:	8b 55 a0             	mov    -0x60(%ebp),%edx
   1433b:	8b 4d a4             	mov    -0x5c(%ebp),%ecx
   1433e:	e8 8d d9 ff ff       	call   11cd0 <builtin.panicOutOfBounds>
   14343:	8b 45 94             	mov    -0x6c(%ebp),%eax
   14346:	8b 55 9c             	mov    -0x64(%ebp),%edx
   14349:	8b 4d a4             	mov    -0x5c(%ebp),%ecx
   1434c:	89 55 90             	mov    %edx,-0x70(%ebp)
   1434f:	39 c8                	cmp    %ecx,%eax
   14351:	74 31                	je     14384 <io.fixed_buffer_stream.FixedBufferStream([]u8).write+0x1c4>
   14353:	eb 31                	jmp    14386 <io.fixed_buffer_stream.FixedBufferStream([]u8).write+0x1c6>
   14355:	eb ec                	jmp    14343 <io.fixed_buffer_stream.FixedBufferStream([]u8).write+0x183>
   14357:	8b 55 a4             	mov    -0x5c(%ebp),%edx
   1435a:	31 c9                	xor    %ecx,%ecx
   1435c:	e8 6f d9 ff ff       	call   11cd0 <builtin.panicOutOfBounds>
   14361:	8b 4d 90             	mov    -0x70(%ebp),%ecx
   14364:	8b 45 98             	mov    -0x68(%ebp),%eax
   14367:	8b 7d 94             	mov    -0x6c(%ebp),%edi
   1436a:	89 ce                	mov    %ecx,%esi
   1436c:	01 fe                	add    %edi,%esi
   1436e:	89 c2                	mov    %eax,%edx
   14370:	01 fa                	add    %edi,%edx
   14372:	39 f0                	cmp    %esi,%eax
   14374:	0f 93 c0             	setae  %al
   14377:	39 d1                	cmp    %edx,%ecx
   14379:	0f 93 c1             	setae  %cl
   1437c:	08 c8                	or     %cl,%al
   1437e:	a8 01                	test   $0x1,%al
   14380:	75 60                	jne    143e2 <io.fixed_buffer_stream.FixedBufferStream([]u8).write+0x222>
   14382:	eb 60                	jmp    143e4 <io.fixed_buffer_stream.FixedBufferStream([]u8).write+0x224>
   14384:	eb db                	jmp    14361 <io.fixed_buffer_stream.FixedBufferStream([]u8).write+0x1a1>
   14386:	b9 c8 ef 03 00       	mov    $0x3efc8,%ecx
   1438b:	ba 28 00 00 00       	mov    $0x28,%edx
   14390:	31 c0                	xor    %eax,%eax
   14392:	8d 05 b8 ea 03 00    	lea    0x3eab8,%eax
   14398:	c7 04 24 00 00 00 00 	movl   $0x0,(%esp)
   1439f:	89 44 24 04          	mov    %eax,0x4(%esp)
   143a3:	e8 08 d9 ff ff       	call   11cb0 <builtin.default_panic>
   143a8:	8b 45 94             	mov    -0x6c(%ebp),%eax
   143ab:	8b 4d 90             	mov    -0x70(%ebp),%ecx
   143ae:	8b 55 98             	mov    -0x68(%ebp),%edx
   143b1:	89 14 24             	mov    %edx,(%esp)
   143b4:	89 4c 24 04          	mov    %ecx,0x4(%esp)
   143b8:	89 44 24 08          	mov    %eax,0x8(%esp)
   143bc:	e8 4f 80 02 00       	call   3c410 <memcpy>
   143c1:	8b 4d c8             	mov    -0x38(%ebp),%ecx
   143c4:	8b 45 a4             	mov    -0x5c(%ebp),%eax
   143c7:	89 4d ec             	mov    %ecx,-0x14(%ebp)
   143ca:	8b 4d ec             	mov    -0x14(%ebp),%ecx
   143cd:	89 ca                	mov    %ecx,%edx
   143cf:	83 c2 08             	add    $0x8,%edx
   143d2:	89 55 88             	mov    %edx,-0x78(%ebp)
   143d5:	03 41 08             	add    0x8(%ecx),%eax
   143d8:	89 45 8c             	mov    %eax,-0x74(%ebp)
   143db:	0f 92 c0             	setb   %al
   143de:	72 26                	jb     14406 <io.fixed_buffer_stream.FixedBufferStream([]u8).write+0x246>
   143e0:	eb 47                	jmp    14429 <io.fixed_buffer_stream.FixedBufferStream([]u8).write+0x269>
   143e2:	eb c4                	jmp    143a8 <io.fixed_buffer_stream.FixedBufferStream([]u8).write+0x1e8>
   143e4:	b9 13 f0 03 00       	mov    $0x3f013,%ecx
   143e9:	ba 17 00 00 00       	mov    $0x17,%edx
   143ee:	31 c0                	xor    %eax,%eax
   143f0:	8d 05 b8 ea 03 00    	lea    0x3eab8,%eax
   143f6:	c7 04 24 00 00 00 00 	movl   $0x0,(%esp)
   143fd:	89 44 24 04          	mov    %eax,0x4(%esp)
   14401:	e8 aa d8 ff ff       	call   11cb0 <builtin.default_panic>
   14406:	8d 0d d3 ee 03 00    	lea    0x3eed3,%ecx
   1440c:	ba 10 00 00 00       	mov    $0x10,%edx
   14411:	31 c0                	xor    %eax,%eax
   14413:	8d 05 b8 ea 03 00    	lea    0x3eab8,%eax
   14419:	c7 04 24 00 00 00 00 	movl   $0x0,(%esp)
   14420:	89 44 24 04          	mov    %eax,0x4(%esp)
   14424:	e8 87 d8 ff ff       	call   11cb0 <builtin.default_panic>
   14429:	8b 45 a4             	mov    -0x5c(%ebp),%eax
   1442c:	8b 4d 88             	mov    -0x78(%ebp),%ecx
   1442f:	8b 55 8c             	mov    -0x74(%ebp),%edx
   14432:	89 11                	mov    %edx,(%ecx)
   14434:	83 f8 00             	cmp    $0x0,%eax
   14437:	74 26                	je     1445f <io.fixed_buffer_stream.FixedBufferStream([]u8).write+0x29f>
   14439:	eb 4a                	jmp    14485 <io.fixed_buffer_stream.FixedBufferStream([]u8).write+0x2c5>
   1443b:	8b 45 c4             	mov    -0x3c(%ebp),%eax
   1443e:	8b 4d c0             	mov    -0x40(%ebp),%ecx
   14441:	8b 55 a4             	mov    -0x5c(%ebp),%edx
   14444:	66 c7 45 f4 00 00    	movw   $0x0,-0xc(%ebp)
   1444a:	89 55 f0             	mov    %edx,-0x10(%ebp)
   1444d:	8b 55 f0             	mov    -0x10(%ebp),%edx
   14450:	89 11                	mov    %edx,(%ecx)
   14452:	8b 55 f4             	mov    -0xc(%ebp),%edx
   14455:	89 51 04             	mov    %edx,0x4(%ecx)
   14458:	83 c4 7c             	add    $0x7c,%esp
   1445b:	5e                   	pop    %esi
   1445c:	5f                   	pop    %edi
   1445d:	5d                   	pop    %ebp
   1445e:	c3                   	ret
   1445f:	8b 4d bc             	mov    -0x44(%ebp),%ecx
   14462:	e8 19 f5 ff ff       	call   13980 <builtin.returnError>
   14467:	8b 4d c0             	mov    -0x40(%ebp),%ecx
   1446a:	8b 45 c4             	mov    -0x3c(%ebp),%eax
   1446d:	8b 15 80 eb 03 00    	mov    0x3eb80,%edx
   14473:	89 11                	mov    %edx,(%ecx)
   14475:	8b 15 84 eb 03 00    	mov    0x3eb84,%edx
   1447b:	89 51 04             	mov    %edx,0x4(%ecx)
   1447e:	83 c4 7c             	add    $0x7c,%esp
   14481:	5e                   	pop    %esi
   14482:	5f                   	pop    %edi
   14483:	5d                   	pop    %ebp
   14484:	c3                   	ret
   14485:	eb b4                	jmp    1443b <io.fixed_buffer_stream.FixedBufferStream([]u8).write+0x27b>
   14487:	66 0f 1f 84 00 00 00 	nopw   0x0(%eax,%eax,1)
   1448e:	00 00 

00014490 <io.Writer.write>:
   14490:	55                   	push   %ebp
   14491:	89 e5                	mov    %esp,%ebp
   14493:	53                   	push   %ebx
   14494:	57                   	push   %edi
   14495:	56                   	push   %esi
   14496:	83 ec 30             	sub    $0x30,%esp
   14499:	89 55 d0             	mov    %edx,-0x30(%ebp)
   1449c:	89 4d d4             	mov    %ecx,-0x2c(%ebp)
   1449f:	89 4d d8             	mov    %ecx,-0x28(%ebp)
   144a2:	8b 5d 10             	mov    0x10(%ebp),%ebx
   144a5:	8b 45 0c             	mov    0xc(%ebp),%eax
   144a8:	8b 4d 08             	mov    0x8(%ebp),%ecx
   144ab:	89 de                	mov    %ebx,%esi
   144ad:	89 c7                	mov    %eax,%edi
   144af:	89 5d e0             	mov    %ebx,-0x20(%ebp)
   144b2:	89 45 dc             	mov    %eax,-0x24(%ebp)
   144b5:	8b 01                	mov    (%ecx),%eax
   144b7:	89 45 e4             	mov    %eax,-0x1c(%ebp)
   144ba:	8b 41 04             	mov    0x4(%ecx),%eax
   144bd:	89 45 e8             	mov    %eax,-0x18(%ebp)
   144c0:	8b 45 e8             	mov    -0x18(%ebp),%eax
   144c3:	8b 19                	mov    (%ecx),%ebx
   144c5:	8d 4d ec             	lea    -0x14(%ebp),%ecx
   144c8:	89 1c 24             	mov    %ebx,(%esp)
   144cb:	89 7c 24 04          	mov    %edi,0x4(%esp)
   144cf:	89 74 24 08          	mov    %esi,0x8(%esp)
   144d3:	ff d0                	call   *%eax
   144d5:	66 83 7d f0 00       	cmpw   $0x0,-0x10(%ebp)
   144da:	75 19                	jne    144f5 <io.Writer.write+0x65>
   144dc:	8b 45 d8             	mov    -0x28(%ebp),%eax
   144df:	8b 4d d4             	mov    -0x2c(%ebp),%ecx
   144e2:	8b 55 ec             	mov    -0x14(%ebp),%edx
   144e5:	89 11                	mov    %edx,(%ecx)
   144e7:	8b 55 f0             	mov    -0x10(%ebp),%edx
   144ea:	89 51 04             	mov    %edx,0x4(%ecx)
   144ed:	83 c4 30             	add    $0x30,%esp
   144f0:	5e                   	pop    %esi
   144f1:	5f                   	pop    %edi
   144f2:	5b                   	pop    %ebx
   144f3:	5d                   	pop    %ebp
   144f4:	c3                   	ret
   144f5:	8b 4d d0             	mov    -0x30(%ebp),%ecx
   144f8:	e8 83 f4 ff ff       	call   13980 <builtin.returnError>
   144fd:	8b 4d d4             	mov    -0x2c(%ebp),%ecx
   14500:	8b 45 d8             	mov    -0x28(%ebp),%eax
   14503:	8b 55 ec             	mov    -0x14(%ebp),%edx
   14506:	89 11                	mov    %edx,(%ecx)
   14508:	8b 55 f0             	mov    -0x10(%ebp),%edx
   1450b:	89 51 04             	mov    %edx,0x4(%ecx)
   1450e:	83 c4 30             	add    $0x30,%esp
   14511:	5e                   	pop    %esi
   14512:	5f                   	pop    %edi
   14513:	5b                   	pop    %ebx
   14514:	5d                   	pop    %ebp
   14515:	c3                   	ret
   14516:	66 2e 0f 1f 84 00 00 	nopw   %cs:0x0(%eax,%eax,1)
   1451d:	00 00 00 

00014520 <fmt.formatValue__anon_2047>:
   14520:	55                   	push   %ebp
   14521:	89 e5                	mov    %esp,%ebp
   14523:	83 ec 0c             	sub    $0xc,%esp
   14526:	89 4d f8             	mov    %ecx,-0x8(%ebp)
   14529:	8b 45 08             	mov    0x8(%ebp),%eax
   1452c:	89 04 24             	mov    %eax,(%esp)
   1452f:	e8 4c 1f 00 00       	call   16480 <fmt.formatIntValue__anon_2056>
   14534:	66 89 45 fe          	mov    %ax,-0x2(%ebp)
   14538:	66 83 f8 00          	cmp    $0x0,%ax
   1453c:	75 09                	jne    14547 <fmt.formatValue__anon_2047+0x27>
   1453e:	66 8b 45 fe          	mov    -0x2(%ebp),%ax
   14542:	83 c4 0c             	add    $0xc,%esp
   14545:	5d                   	pop    %ebp
   14546:	c3                   	ret
   14547:	8b 4d f8             	mov    -0x8(%ebp),%ecx
   1454a:	e8 31 f4 ff ff       	call   13980 <builtin.returnError>
   1454f:	66 8b 45 fe          	mov    -0x2(%ebp),%ax
   14553:	83 c4 0c             	add    $0xc,%esp
   14556:	5d                   	pop    %ebp
   14557:	c3                   	ret
   14558:	0f 1f 84 00 00 00 00 	nopl   0x0(%eax,%eax,1)
   1455f:	00 

00014560 <fmt.formatValue__anon_2048>:
   14560:	55                   	push   %ebp
   14561:	89 e5                	mov    %esp,%ebp
   14563:	83 ec 0c             	sub    $0xc,%esp
   14566:	89 4d f8             	mov    %ecx,-0x8(%ebp)
   14569:	8b 45 08             	mov    0x8(%ebp),%eax
   1456c:	89 04 24             	mov    %eax,(%esp)
   1456f:	e8 7c 1f 00 00       	call   164f0 <fmt.formatIntValue__anon_2070>
   14574:	66 89 45 fe          	mov    %ax,-0x2(%ebp)
   14578:	66 83 f8 00          	cmp    $0x0,%ax
   1457c:	75 09                	jne    14587 <fmt.formatValue__anon_2048+0x27>
   1457e:	66 8b 45 fe          	mov    -0x2(%ebp),%ax
   14582:	83 c4 0c             	add    $0xc,%esp
   14585:	5d                   	pop    %ebp
   14586:	c3                   	ret
   14587:	8b 4d f8             	mov    -0x8(%ebp),%ecx
   1458a:	e8 f1 f3 ff ff       	call   13980 <builtin.returnError>
   1458f:	66 8b 45 fe          	mov    -0x2(%ebp),%ax
   14593:	83 c4 0c             	add    $0xc,%esp
   14596:	5d                   	pop    %ebp
   14597:	c3                   	ret
   14598:	0f 1f 84 00 00 00 00 	nopl   0x0(%eax,%eax,1)
   1459f:	00 

000145a0 <debug.panicExtra__anon_2049>:
   145a0:	55                   	push   %ebp
   145a1:	89 e5                	mov    %esp,%ebp
   145a3:	57                   	push   %edi
   145a4:	56                   	push   %esi
   145a5:	b8 ec 10 00 00       	mov    $0x10ec,%eax
   145aa:	e8 31 7e 02 00       	call   3c3e0 <__zig_probe_stack>
   145af:	29 c4                	sub    %eax,%esp
   145b1:	89 95 24 ef ff ff    	mov    %edx,-0x10dc(%ebp)
   145b7:	89 8d 28 ef ff ff    	mov    %ecx,-0x10d8(%ebp)
   145bd:	8b 45 08             	mov    0x8(%ebp),%eax
   145c0:	89 85 2c ef ff ff    	mov    %eax,-0x10d4(%ebp)
   145c6:	89 8d 38 ef ff ff    	mov    %ecx,-0x10c8(%ebp)
   145cc:	8d 85 3c ef ff ff    	lea    -0x10c4(%ebp),%eax
   145d2:	89 85 c0 ef ff ff    	mov    %eax,-0x1040(%ebp)
   145d8:	c7 85 c4 ef ff ff 20 	movl   $0x20,-0x103c(%ebp)
   145df:	00 00 00 
   145e2:	c7 85 bc ef ff ff 00 	movl   $0x0,-0x1044(%ebp)
   145e9:	00 00 00 
   145ec:	8b 85 bc ef ff ff    	mov    -0x1044(%ebp),%eax
   145f2:	89 85 30 ef ff ff    	mov    %eax,-0x10d0(%ebp)
   145f8:	8d 05 73 ef 03 00    	lea    0x3ef73,%eax
   145fe:	89 85 c8 ef ff ff    	mov    %eax,-0x1038(%ebp)
   14604:	8d 85 cd ef ff ff    	lea    -0x1033(%ebp),%eax
   1460a:	89 04 24             	mov    %eax,(%esp)
   1460d:	c7 44 24 04 aa 00 00 	movl   $0xaa,0x4(%esp)
   14614:	00 
   14615:	c7 44 24 08 0f 10 00 	movl   $0x100f,0x8(%esp)
   1461c:	00 
   1461d:	e8 de 7e 02 00       	call   3c500 <memset>
   14622:	8d 85 cd ef ff ff    	lea    -0x1033(%ebp),%eax
   14628:	89 85 34 ef ff ff    	mov    %eax,-0x10cc(%ebp)
   1462e:	b8 00 10 00 00       	mov    $0x1000,%eax
   14633:	3d 0f 10 00 00       	cmp    $0x100f,%eax
   14638:	76 35                	jbe    1466f <debug.panicExtra__anon_2049+0xcf>
   1463a:	eb 35                	jmp    14671 <debug.panicExtra__anon_2049+0xd1>
   1463c:	8b 85 2c ef ff ff    	mov    -0x10d4(%ebp),%eax
   14642:	8b bd 34 ef ff ff    	mov    -0x10cc(%ebp),%edi
   14648:	be 00 10 00 00       	mov    $0x1000,%esi
   1464d:	8d 4d dc             	lea    -0x24(%ebp),%ecx
   14650:	8d 95 bc ef ff ff    	lea    -0x1044(%ebp),%edx
   14656:	89 3c 24             	mov    %edi,(%esp)
   14659:	89 74 24 04          	mov    %esi,0x4(%esp)
   1465d:	89 44 24 08          	mov    %eax,0x8(%esp)
   14661:	e8 fa 1e 00 00       	call   16560 <fmt.bufPrint__anon_2071>
   14666:	66 83 7d e4 00       	cmpw   $0x0,-0x1c(%ebp)
   1466b:	74 49                	je     146b6 <debug.panicExtra__anon_2049+0x116>
   1466d:	eb 5b                	jmp    146ca <debug.panicExtra__anon_2049+0x12a>
   1466f:	eb cb                	jmp    1463c <debug.panicExtra__anon_2049+0x9c>
   14671:	b9 00 10 00 00       	mov    $0x1000,%ecx
   14676:	ba 0f 10 00 00       	mov    $0x100f,%edx
   1467b:	e8 50 d6 ff ff       	call   11cd0 <builtin.panicOutOfBounds>
   14680:	8b 85 24 ef ff ff    	mov    -0x10dc(%ebp),%eax
   14686:	8b b5 28 ef ff ff    	mov    -0x10d8(%ebp),%esi
   1468c:	8b 8d 20 ef ff ff    	mov    -0x10e0(%ebp),%ecx
   14692:	8b 95 1c ef ff ff    	mov    -0x10e4(%ebp),%edx
   14698:	89 4d e8             	mov    %ecx,-0x18(%ebp)
   1469b:	89 55 ec             	mov    %edx,-0x14(%ebp)
   1469e:	89 55 f4             	mov    %edx,-0xc(%ebp)
   146a1:	89 4d f0             	mov    %ecx,-0x10(%ebp)
   146a4:	8b 4d f0             	mov    -0x10(%ebp),%ecx
   146a7:	8b 55 f4             	mov    -0xc(%ebp),%edx
   146aa:	89 34 24             	mov    %esi,(%esp)
   146ad:	89 44 24 04          	mov    %eax,0x4(%esp)
   146b1:	e8 fa d5 ff ff       	call   11cb0 <builtin.default_panic>
   146b6:	8b 4d dc             	mov    -0x24(%ebp),%ecx
   146b9:	8b 45 e0             	mov    -0x20(%ebp),%eax
   146bc:	89 8d 20 ef ff ff    	mov    %ecx,-0x10e0(%ebp)
   146c2:	89 85 1c ef ff ff    	mov    %eax,-0x10e4(%ebp)
   146c8:	eb b6                	jmp    14680 <debug.panicExtra__anon_2049+0xe0>
   146ca:	66 8b 45 e4          	mov    -0x1c(%ebp),%ax
   146ce:	66 83 e8 01          	sub    $0x1,%ax
   146d2:	74 24                	je     146f8 <debug.panicExtra__anon_2049+0x158>
   146d4:	eb 00                	jmp    146d6 <debug.panicExtra__anon_2049+0x136>
   146d6:	b9 aa f0 03 00       	mov    $0x3f0aa,%ecx
   146db:	ba 17 00 00 00       	mov    $0x17,%edx
   146e0:	31 c0                	xor    %eax,%eax
   146e2:	8d 05 b8 ea 03 00    	lea    0x3eab8,%eax
   146e8:	c7 04 24 00 00 00 00 	movl   $0x0,(%esp)
   146ef:	89 44 24 04          	mov    %eax,0x4(%esp)
   146f3:	e8 b8 d5 ff ff       	call   11cb0 <builtin.default_panic>
   146f8:	8d 85 cd ef ff ff    	lea    -0x1033(%ebp),%eax
   146fe:	05 00 10 00 00       	add    $0x1000,%eax
   14703:	89 85 18 ef ff ff    	mov    %eax,-0x10e8(%ebp)
   14709:	eb 2c                	jmp    14737 <debug.panicExtra__anon_2049+0x197>
   1470b:	8b 85 18 ef ff ff    	mov    -0x10e8(%ebp),%eax
   14711:	89 c2                	mov    %eax,%edx
   14713:	83 c2 0f             	add    $0xf,%edx
   14716:	8d 0d 73 ef 03 00    	lea    0x3ef73,%ecx
   1471c:	83 c1 0f             	add    $0xf,%ecx
   1471f:	39 c8                	cmp    %ecx,%eax
   14721:	0f 93 c0             	setae  %al
   14724:	8d 0d 73 ef 03 00    	lea    0x3ef73,%ecx
   1472a:	39 d1                	cmp    %edx,%ecx
   1472c:	0f 93 c1             	setae  %cl
   1472f:	08 c8                	or     %cl,%al
   14731:	a8 01                	test   $0x1,%al
   14733:	75 59                	jne    1478e <debug.panicExtra__anon_2049+0x1ee>
   14735:	eb 59                	jmp    14790 <debug.panicExtra__anon_2049+0x1f0>
   14737:	eb d2                	jmp    1470b <debug.panicExtra__anon_2049+0x16b>
   14739:	ba 0f 10 00 00       	mov    $0x100f,%edx
   1473e:	89 d1                	mov    %edx,%ecx
   14740:	e8 8b d5 ff ff       	call   11cd0 <builtin.panicOutOfBounds>
   14745:	8b 85 30 ef ff ff    	mov    -0x10d0(%ebp),%eax
   1474b:	8b 8d 18 ef ff ff    	mov    -0x10e8(%ebp),%ecx
   14751:	c7 41 0b 74 65 64 29 	movl   $0x29646574,0xb(%ecx)
   14758:	c7 41 08 6e 63 61 74 	movl   $0x7461636e,0x8(%ecx)
   1475f:	c7 41 04 20 74 72 75 	movl   $0x75727420,0x4(%ecx)
   14766:	c7 01 28 6d 73 67    	movl   $0x67736d28,(%ecx)
   1476c:	89 85 bc ef ff ff    	mov    %eax,-0x1044(%ebp)
   14772:	b8 0f 10 00 00       	mov    $0x100f,%eax
   14777:	8d 8d cd ef ff ff    	lea    -0x1033(%ebp),%ecx
   1477d:	89 8d 20 ef ff ff    	mov    %ecx,-0x10e0(%ebp)
   14783:	89 85 1c ef ff ff    	mov    %eax,-0x10e4(%ebp)
   14789:	e9 f2 fe ff ff       	jmp    14680 <debug.panicExtra__anon_2049+0xe0>
   1478e:	eb b5                	jmp    14745 <debug.panicExtra__anon_2049+0x1a5>
   14790:	b9 13 f0 03 00       	mov    $0x3f013,%ecx
   14795:	ba 17 00 00 00       	mov    $0x17,%edx
   1479a:	31 c0                	xor    %eax,%eax
   1479c:	8d 05 b8 ea 03 00    	lea    0x3eab8,%eax
   147a2:	c7 04 24 00 00 00 00 	movl   $0x0,(%esp)
   147a9:	89 44 24 04          	mov    %eax,0x4(%esp)
   147ad:	e8 fe d4 ff ff       	call   11cb0 <builtin.default_panic>
   147b2:	66 2e 0f 1f 84 00 00 	nopw   %cs:0x0(%eax,%eax,1)
   147b9:	00 00 00 
   147bc:	0f 1f 40 00          	nopl   0x0(%eax)

000147c0 <fmt.format__anon_2050>:
   147c0:	55                   	push   %ebp
   147c1:	89 e5                	mov    %esp,%ebp
   147c3:	56                   	push   %esi
   147c4:	83 ec 3c             	sub    $0x3c,%esp
   147c7:	89 55 d4             	mov    %edx,-0x2c(%ebp)
   147ca:	89 4d d8             	mov    %ecx,-0x28(%ebp)
   147cd:	8b 45 08             	mov    0x8(%ebp),%eax
   147d0:	89 45 dc             	mov    %eax,-0x24(%ebp)
   147d3:	f2 0f 10 02          	movsd  (%edx),%xmm0
   147d7:	f2 0f 11 45 e4       	movsd  %xmm0,-0x1c(%ebp)
   147dc:	be 83 ef 03 00       	mov    $0x3ef83,%esi
   147e1:	b8 1b 00 00 00       	mov    $0x1b,%eax
   147e6:	8d 55 e4             	lea    -0x1c(%ebp),%edx
   147e9:	89 34 24             	mov    %esi,(%esp)
   147ec:	89 44 24 04          	mov    %eax,0x4(%esp)
   147f0:	e8 3b f0 ff ff       	call   13830 <io.Writer.writeAll>
   147f5:	66 89 45 e2          	mov    %ax,-0x1e(%ebp)
   147f9:	66 83 f8 00          	cmp    $0x0,%ax
   147fd:	75 36                	jne    14835 <fmt.format__anon_2050+0x75>
   147ff:	eb 46                	jmp    14847 <fmt.format__anon_2050+0x87>
   14801:	8b 4d d8             	mov    -0x28(%ebp),%ecx
   14804:	8b 45 d4             	mov    -0x2c(%ebp),%eax
   14807:	f2 0f 10 00          	movsd  (%eax),%xmm0
   1480b:	f2 0f 11 45 f0       	movsd  %xmm0,-0x10(%ebp)
   14810:	be a1 ef 03 00       	mov    $0x3efa1,%esi
   14815:	b8 06 00 00 00       	mov    $0x6,%eax
   1481a:	8d 55 f0             	lea    -0x10(%ebp),%edx
   1481d:	89 34 24             	mov    %esi,(%esp)
   14820:	89 44 24 04          	mov    %eax,0x4(%esp)
   14824:	e8 07 f0 ff ff       	call   13830 <io.Writer.writeAll>
   14829:	66 89 45 d2          	mov    %ax,-0x2e(%ebp)
   1482d:	66 83 f8 00          	cmp    $0x0,%ax
   14831:	75 69                	jne    1489c <fmt.format__anon_2050+0xdc>
   14833:	eb 79                	jmp    148ae <fmt.format__anon_2050+0xee>
   14835:	8b 4d d8             	mov    -0x28(%ebp),%ecx
   14838:	e8 43 f1 ff ff       	call   13980 <builtin.returnError>
   1483d:	66 8b 45 e2          	mov    -0x1e(%ebp),%ax
   14841:	83 c4 3c             	add    $0x3c,%esp
   14844:	5e                   	pop    %esi
   14845:	5d                   	pop    %ebp
   14846:	c3                   	ret
   14847:	8b 45 d4             	mov    -0x2c(%ebp),%eax
   1484a:	8b 4d d8             	mov    -0x28(%ebp),%ecx
   1484d:	8b 55 dc             	mov    -0x24(%ebp),%edx
   14850:	c7 45 ec 00 00 00 00 	movl   $0x0,-0x14(%ebp)
   14857:	8b 12                	mov    (%edx),%edx
   14859:	8d 35 e4 e3 03 00    	lea    0x3e3e4,%esi
   1485f:	89 34 24             	mov    %esi,(%esp)
   14862:	89 44 24 04          	mov    %eax,0x4(%esp)
   14866:	c7 44 24 08 03 00 00 	movl   $0x3,0x8(%esp)
   1486d:	00 
   1486e:	e8 8d 00 00 00       	call   14900 <fmt.formatType__anon_2051>
   14873:	66 89 45 d0          	mov    %ax,-0x30(%ebp)
   14877:	66 83 f8 00          	cmp    $0x0,%ax
   1487b:	74 12                	je     1488f <fmt.format__anon_2050+0xcf>
   1487d:	8b 4d d8             	mov    -0x28(%ebp),%ecx
   14880:	e8 fb f0 ff ff       	call   13980 <builtin.returnError>
   14885:	66 8b 45 d0          	mov    -0x30(%ebp),%ax
   14889:	83 c4 3c             	add    $0x3c,%esp
   1488c:	5e                   	pop    %esi
   1488d:	5d                   	pop    %ebp
   1488e:	c3                   	ret
   1488f:	e9 6d ff ff ff       	jmp    14801 <fmt.format__anon_2050+0x41>
   14894:	31 c0                	xor    %eax,%eax
   14896:	83 c4 3c             	add    $0x3c,%esp
   14899:	5e                   	pop    %esi
   1489a:	5d                   	pop    %ebp
   1489b:	c3                   	ret
   1489c:	8b 4d d8             	mov    -0x28(%ebp),%ecx
   1489f:	e8 dc f0 ff ff       	call   13980 <builtin.returnError>
   148a4:	66 8b 45 d2          	mov    -0x2e(%ebp),%ax
   148a8:	83 c4 3c             	add    $0x3c,%esp
   148ab:	5e                   	pop    %esi
   148ac:	5d                   	pop    %ebp
   148ad:	c3                   	ret
   148ae:	8b 45 d4             	mov    -0x2c(%ebp),%eax
   148b1:	8b 4d d8             	mov    -0x28(%ebp),%ecx
   148b4:	8b 55 dc             	mov    -0x24(%ebp),%edx
   148b7:	c7 45 f8 01 00 00 00 	movl   $0x1,-0x8(%ebp)
   148be:	8b 52 04             	mov    0x4(%edx),%edx
   148c1:	8d 35 e4 e3 03 00    	lea    0x3e3e4,%esi
   148c7:	89 34 24             	mov    %esi,(%esp)
   148ca:	89 44 24 04          	mov    %eax,0x4(%esp)
   148ce:	c7 44 24 08 03 00 00 	movl   $0x3,0x8(%esp)
   148d5:	00 
   148d6:	e8 25 00 00 00       	call   14900 <fmt.formatType__anon_2051>
   148db:	66 89 45 ce          	mov    %ax,-0x32(%ebp)
   148df:	66 83 f8 00          	cmp    $0x0,%ax
   148e3:	74 12                	je     148f7 <fmt.format__anon_2050+0x137>
   148e5:	8b 4d d8             	mov    -0x28(%ebp),%ecx
   148e8:	e8 93 f0 ff ff       	call   13980 <builtin.returnError>
   148ed:	66 8b 45 ce          	mov    -0x32(%ebp),%ax
   148f1:	83 c4 3c             	add    $0x3c,%esp
   148f4:	5e                   	pop    %esi
   148f5:	5d                   	pop    %ebp
   148f6:	c3                   	ret
   148f7:	eb 9b                	jmp    14894 <fmt.format__anon_2050+0xd4>
   148f9:	0f 1f 80 00 00 00 00 	nopl   0x0(%eax)

00014900 <fmt.formatType__anon_2051>:
   14900:	55                   	push   %ebp
   14901:	89 e5                	mov    %esp,%ebp
   14903:	56                   	push   %esi
   14904:	83 ec 38             	sub    $0x38,%esp
   14907:	89 55 d0             	mov    %edx,-0x30(%ebp)
   1490a:	89 4d d4             	mov    %ecx,-0x2c(%ebp)
   1490d:	8b 45 10             	mov    0x10(%ebp),%eax
   14910:	8b 45 0c             	mov    0xc(%ebp),%eax
   14913:	89 45 d8             	mov    %eax,-0x28(%ebp)
   14916:	8b 45 08             	mov    0x8(%ebp),%eax
   14919:	89 45 dc             	mov    %eax,-0x24(%ebp)
   1491c:	89 55 e0             	mov    %edx,-0x20(%ebp)
   1491f:	c7 45 e8 01 00 00 00 	movl   $0x1,-0x18(%ebp)
   14926:	c7 45 e4 c8 e2 03 00 	movl   $0x3e2c8,-0x1c(%ebp)
   1492d:	c7 45 f0 06 00 00 00 	movl   $0x6,-0x10(%ebp)
   14934:	c7 45 ec fb ef 03 00 	movl   $0x3effb,-0x14(%ebp)
   1493b:	c7 45 f8 06 00 00 00 	movl   $0x6,-0x8(%ebp)
   14942:	c7 45 f4 fb ef 03 00 	movl   $0x3effb,-0xc(%ebp)
   14949:	eb 24                	jmp    1496f <fmt.formatType__anon_2051+0x6f>
   1494b:	8b 45 d8             	mov    -0x28(%ebp),%eax
   1494e:	8b 75 dc             	mov    -0x24(%ebp),%esi
   14951:	8b 55 d0             	mov    -0x30(%ebp),%edx
   14954:	8b 4d d4             	mov    -0x2c(%ebp),%ecx
   14957:	89 34 24             	mov    %esi,(%esp)
   1495a:	89 44 24 04          	mov    %eax,0x4(%esp)
   1495e:	e8 1d 1d 00 00       	call   16680 <fmt.formatValue__anon_2072>
   14963:	66 89 45 ce          	mov    %ax,-0x32(%ebp)
   14967:	66 83 f8 00          	cmp    $0x0,%ax
   1496b:	74 04                	je     14971 <fmt.formatType__anon_2051+0x71>
   1496d:	eb 0c                	jmp    1497b <fmt.formatType__anon_2051+0x7b>
   1496f:	eb da                	jmp    1494b <fmt.formatType__anon_2051+0x4b>
   14971:	66 8b 45 ce          	mov    -0x32(%ebp),%ax
   14975:	83 c4 38             	add    $0x38,%esp
   14978:	5e                   	pop    %esi
   14979:	5d                   	pop    %ebp
   1497a:	c3                   	ret
   1497b:	8b 4d d4             	mov    -0x2c(%ebp),%ecx
   1497e:	e8 fd ef ff ff       	call   13980 <builtin.returnError>
   14983:	66 8b 45 ce          	mov    -0x32(%ebp),%ax
   14987:	83 c4 38             	add    $0x38,%esp
   1498a:	5e                   	pop    %esi
   1498b:	5d                   	pop    %ebp
   1498c:	c3                   	ret
   1498d:	0f 1f 00             	nopl   (%eax)

00014990 <fmt.formatAddress__anon_2052>:
   14990:	55                   	push   %ebp
   14991:	89 e5                	mov    %esp,%ebp
   14993:	56                   	push   %esi
   14994:	83 ec 30             	sub    $0x30,%esp
   14997:	89 55 e0             	mov    %edx,-0x20(%ebp)
   1499a:	89 4d e4             	mov    %ecx,-0x1c(%ebp)
   1499d:	8b 45 0c             	mov    0xc(%ebp),%eax
   149a0:	89 45 e8             	mov    %eax,-0x18(%ebp)
   149a3:	89 55 f0             	mov    %edx,-0x10(%ebp)
   149a6:	f2 0f 10 00          	movsd  (%eax),%xmm0
   149aa:	f2 0f 11 45 f4       	movsd  %xmm0,-0xc(%ebp)
   149af:	be 68 f0 03 00       	mov    $0x3f068,%esi
   149b4:	b8 07 00 00 00       	mov    $0x7,%eax
   149b9:	8d 55 f4             	lea    -0xc(%ebp),%edx
   149bc:	89 34 24             	mov    %esi,(%esp)
   149bf:	89 44 24 04          	mov    %eax,0x4(%esp)
   149c3:	e8 68 ee ff ff       	call   13830 <io.Writer.writeAll>
   149c8:	66 89 45 ee          	mov    %ax,-0x12(%ebp)
   149cc:	66 83 f8 00          	cmp    $0x0,%ax
   149d0:	74 12                	je     149e4 <fmt.formatAddress__anon_2052+0x54>
   149d2:	8b 4d e4             	mov    -0x1c(%ebp),%ecx
   149d5:	e8 a6 ef ff ff       	call   13980 <builtin.returnError>
   149da:	66 8b 45 ee          	mov    -0x12(%ebp),%ax
   149de:	83 c4 30             	add    $0x30,%esp
   149e1:	5e                   	pop    %esi
   149e2:	5d                   	pop    %ebp
   149e3:	c3                   	ret
   149e4:	8b 45 e8             	mov    -0x18(%ebp),%eax
   149e7:	8b 55 e0             	mov    -0x20(%ebp),%edx
   149ea:	8b 4d e4             	mov    -0x1c(%ebp),%ecx
   149ed:	31 f6                	xor    %esi,%esi
   149ef:	8d 35 c4 e4 03 00    	lea    0x3e4c4,%esi
   149f5:	c7 04 24 10 00 00 00 	movl   $0x10,(%esp)
   149fc:	c7 44 24 04 00 00 00 	movl   $0x0,0x4(%esp)
   14a03:	00 
   14a04:	89 74 24 08          	mov    %esi,0x8(%esp)
   14a08:	89 44 24 0c          	mov    %eax,0xc(%esp)
   14a0c:	e8 bf 1c 00 00       	call   166d0 <fmt.formatInt__anon_2073>
   14a11:	66 89 45 de          	mov    %ax,-0x22(%ebp)
   14a15:	66 83 f8 00          	cmp    $0x0,%ax
   14a19:	74 12                	je     14a2d <fmt.formatAddress__anon_2052+0x9d>
   14a1b:	8b 4d e4             	mov    -0x1c(%ebp),%ecx
   14a1e:	e8 5d ef ff ff       	call   13980 <builtin.returnError>
   14a23:	66 8b 45 de          	mov    -0x22(%ebp),%ax
   14a27:	83 c4 30             	add    $0x30,%esp
   14a2a:	5e                   	pop    %esi
   14a2b:	5d                   	pop    %ebp
   14a2c:	c3                   	ret
   14a2d:	31 c0                	xor    %eax,%eax
   14a2f:	83 c4 30             	add    $0x30,%esp
   14a32:	5e                   	pop    %esi
   14a33:	5d                   	pop    %ebp
   14a34:	c3                   	ret
   14a35:	66 2e 0f 1f 84 00 00 	nopw   %cs:0x0(%eax,%eax,1)
   14a3c:	00 00 00 
   14a3f:	90                   	nop

00014a40 <fmt.format__anon_2053>:
   14a40:	55                   	push   %ebp
   14a41:	89 e5                	mov    %esp,%ebp
   14a43:	56                   	push   %esi
   14a44:	83 ec 3c             	sub    $0x3c,%esp
   14a47:	89 55 d4             	mov    %edx,-0x2c(%ebp)
   14a4a:	89 4d d8             	mov    %ecx,-0x28(%ebp)
   14a4d:	8b 45 08             	mov    0x8(%ebp),%eax
   14a50:	89 45 dc             	mov    %eax,-0x24(%ebp)
   14a53:	f2 0f 10 02          	movsd  (%edx),%xmm0
   14a57:	f2 0f 11 45 e4       	movsd  %xmm0,-0x1c(%ebp)
   14a5c:	be 2a ee 03 00       	mov    $0x3ee2a,%esi
   14a61:	b8 0c 00 00 00       	mov    $0xc,%eax
   14a66:	8d 55 e4             	lea    -0x1c(%ebp),%edx
   14a69:	89 34 24             	mov    %esi,(%esp)
   14a6c:	89 44 24 04          	mov    %eax,0x4(%esp)
   14a70:	e8 bb ed ff ff       	call   13830 <io.Writer.writeAll>
   14a75:	66 89 45 e2          	mov    %ax,-0x1e(%ebp)
   14a79:	66 83 f8 00          	cmp    $0x0,%ax
   14a7d:	75 36                	jne    14ab5 <fmt.format__anon_2053+0x75>
   14a7f:	eb 46                	jmp    14ac7 <fmt.format__anon_2053+0x87>
   14a81:	8b 4d d8             	mov    -0x28(%ebp),%ecx
   14a84:	8b 45 d4             	mov    -0x2c(%ebp),%eax
   14a87:	f2 0f 10 00          	movsd  (%eax),%xmm0
   14a8b:	f2 0f 11 45 f0       	movsd  %xmm0,-0x10(%ebp)
   14a90:	be 39 ee 03 00       	mov    $0x3ee39,%esi
   14a95:	b8 1a 00 00 00       	mov    $0x1a,%eax
   14a9a:	8d 55 f0             	lea    -0x10(%ebp),%edx
   14a9d:	89 34 24             	mov    %esi,(%esp)
   14aa0:	89 44 24 04          	mov    %eax,0x4(%esp)
   14aa4:	e8 87 ed ff ff       	call   13830 <io.Writer.writeAll>
   14aa9:	66 89 45 d2          	mov    %ax,-0x2e(%ebp)
   14aad:	66 83 f8 00          	cmp    $0x0,%ax
   14ab1:	75 69                	jne    14b1c <fmt.format__anon_2053+0xdc>
   14ab3:	eb 79                	jmp    14b2e <fmt.format__anon_2053+0xee>
   14ab5:	8b 4d d8             	mov    -0x28(%ebp),%ecx
   14ab8:	e8 c3 ee ff ff       	call   13980 <builtin.returnError>
   14abd:	66 8b 45 e2          	mov    -0x1e(%ebp),%ax
   14ac1:	83 c4 3c             	add    $0x3c,%esp
   14ac4:	5e                   	pop    %esi
   14ac5:	5d                   	pop    %ebp
   14ac6:	c3                   	ret
   14ac7:	8b 45 d4             	mov    -0x2c(%ebp),%eax
   14aca:	8b 4d d8             	mov    -0x28(%ebp),%ecx
   14acd:	8b 55 dc             	mov    -0x24(%ebp),%edx
   14ad0:	c7 45 ec 00 00 00 00 	movl   $0x0,-0x14(%ebp)
   14ad7:	8b 12                	mov    (%edx),%edx
   14ad9:	8d 35 3c e4 03 00    	lea    0x3e43c,%esi
   14adf:	89 34 24             	mov    %esi,(%esp)
   14ae2:	89 44 24 04          	mov    %eax,0x4(%esp)
   14ae6:	c7 44 24 08 03 00 00 	movl   $0x3,0x8(%esp)
   14aed:	00 
   14aee:	e8 0d fe ff ff       	call   14900 <fmt.formatType__anon_2051>
   14af3:	66 89 45 d0          	mov    %ax,-0x30(%ebp)
   14af7:	66 83 f8 00          	cmp    $0x0,%ax
   14afb:	74 12                	je     14b0f <fmt.format__anon_2053+0xcf>
   14afd:	8b 4d d8             	mov    -0x28(%ebp),%ecx
   14b00:	e8 7b ee ff ff       	call   13980 <builtin.returnError>
   14b05:	66 8b 45 d0          	mov    -0x30(%ebp),%ax
   14b09:	83 c4 3c             	add    $0x3c,%esp
   14b0c:	5e                   	pop    %esi
   14b0d:	5d                   	pop    %ebp
   14b0e:	c3                   	ret
   14b0f:	e9 6d ff ff ff       	jmp    14a81 <fmt.format__anon_2053+0x41>
   14b14:	31 c0                	xor    %eax,%eax
   14b16:	83 c4 3c             	add    $0x3c,%esp
   14b19:	5e                   	pop    %esi
   14b1a:	5d                   	pop    %ebp
   14b1b:	c3                   	ret
   14b1c:	8b 4d d8             	mov    -0x28(%ebp),%ecx
   14b1f:	e8 5c ee ff ff       	call   13980 <builtin.returnError>
   14b24:	66 8b 45 d2          	mov    -0x2e(%ebp),%ax
   14b28:	83 c4 3c             	add    $0x3c,%esp
   14b2b:	5e                   	pop    %esi
   14b2c:	5d                   	pop    %ebp
   14b2d:	c3                   	ret
   14b2e:	8b 45 d4             	mov    -0x2c(%ebp),%eax
   14b31:	8b 4d d8             	mov    -0x28(%ebp),%ecx
   14b34:	8b 55 dc             	mov    -0x24(%ebp),%edx
   14b37:	c7 45 f8 01 00 00 00 	movl   $0x1,-0x8(%ebp)
   14b3e:	8b 52 04             	mov    0x4(%edx),%edx
   14b41:	8d 35 3c e4 03 00    	lea    0x3e43c,%esi
   14b47:	89 34 24             	mov    %esi,(%esp)
   14b4a:	89 44 24 04          	mov    %eax,0x4(%esp)
   14b4e:	c7 44 24 08 03 00 00 	movl   $0x3,0x8(%esp)
   14b55:	00 
   14b56:	e8 a5 fd ff ff       	call   14900 <fmt.formatType__anon_2051>
   14b5b:	66 89 45 ce          	mov    %ax,-0x32(%ebp)
   14b5f:	66 83 f8 00          	cmp    $0x0,%ax
   14b63:	74 12                	je     14b77 <fmt.format__anon_2053+0x137>
   14b65:	8b 4d d8             	mov    -0x28(%ebp),%ecx
   14b68:	e8 13 ee ff ff       	call   13980 <builtin.returnError>
   14b6d:	66 8b 45 ce          	mov    -0x32(%ebp),%ax
   14b71:	83 c4 3c             	add    $0x3c,%esp
   14b74:	5e                   	pop    %esi
   14b75:	5d                   	pop    %ebp
   14b76:	c3                   	ret
   14b77:	eb 9b                	jmp    14b14 <fmt.format__anon_2053+0xd4>
   14b79:	0f 1f 80 00 00 00 00 	nopl   0x0(%eax)

00014b80 <fmt.format__anon_2054>:
   14b80:	55                   	push   %ebp
   14b81:	89 e5                	mov    %esp,%ebp
   14b83:	56                   	push   %esi
   14b84:	83 ec 30             	sub    $0x30,%esp
   14b87:	89 55 dc             	mov    %edx,-0x24(%ebp)
   14b8a:	89 4d e0             	mov    %ecx,-0x20(%ebp)
   14b8d:	8b 45 08             	mov    0x8(%ebp),%eax
   14b90:	89 45 e4             	mov    %eax,-0x1c(%ebp)
   14b93:	c7 45 e8 04 00 00 00 	movl   $0x4,-0x18(%ebp)
   14b9a:	eb 34                	jmp    14bd0 <fmt.format__anon_2054+0x50>
   14b9c:	8b 4d e0             	mov    -0x20(%ebp),%ecx
   14b9f:	8b 45 dc             	mov    -0x24(%ebp),%eax
   14ba2:	f2 0f 10 00          	movsd  (%eax),%xmm0
   14ba6:	f2 0f 11 45 f4       	movsd  %xmm0,-0xc(%ebp)
   14bab:	be f8 ef 03 00       	mov    $0x3eff8,%esi
   14bb0:	b8 02 00 00 00       	mov    $0x2,%eax
   14bb5:	8d 55 f4             	lea    -0xc(%ebp),%edx
   14bb8:	89 34 24             	mov    %esi,(%esp)
   14bbb:	89 44 24 04          	mov    %eax,0x4(%esp)
   14bbf:	e8 6c ec ff ff       	call   13830 <io.Writer.writeAll>
   14bc4:	66 89 45 da          	mov    %ax,-0x26(%ebp)
   14bc8:	66 83 f8 00          	cmp    $0x0,%ax
   14bcc:	75 57                	jne    14c25 <fmt.format__anon_2054+0xa5>
   14bce:	eb 67                	jmp    14c37 <fmt.format__anon_2054+0xb7>
   14bd0:	8b 45 dc             	mov    -0x24(%ebp),%eax
   14bd3:	8b 55 e4             	mov    -0x1c(%ebp),%edx
   14bd6:	8b 4d e0             	mov    -0x20(%ebp),%ecx
   14bd9:	c7 45 ec 04 00 00 00 	movl   $0x4,-0x14(%ebp)
   14be0:	c7 45 f0 00 00 00 00 	movl   $0x0,-0x10(%ebp)
   14be7:	8d 35 94 e4 03 00    	lea    0x3e494,%esi
   14bed:	0f b7 12             	movzwl (%edx),%edx
   14bf0:	89 34 24             	mov    %esi,(%esp)
   14bf3:	89 44 24 04          	mov    %eax,0x4(%esp)
   14bf7:	c7 44 24 08 03 00 00 	movl   $0x3,0x8(%esp)
   14bfe:	00 
   14bff:	e8 3c 00 00 00       	call   14c40 <fmt.formatType__anon_2055>
   14c04:	66 89 45 d8          	mov    %ax,-0x28(%ebp)
   14c08:	66 83 f8 00          	cmp    $0x0,%ax
   14c0c:	74 12                	je     14c20 <fmt.format__anon_2054+0xa0>
   14c0e:	8b 4d e0             	mov    -0x20(%ebp),%ecx
   14c11:	e8 6a ed ff ff       	call   13980 <builtin.returnError>
   14c16:	66 8b 45 d8          	mov    -0x28(%ebp),%ax
   14c1a:	83 c4 30             	add    $0x30,%esp
   14c1d:	5e                   	pop    %esi
   14c1e:	5d                   	pop    %ebp
   14c1f:	c3                   	ret
   14c20:	e9 77 ff ff ff       	jmp    14b9c <fmt.format__anon_2054+0x1c>
   14c25:	8b 4d e0             	mov    -0x20(%ebp),%ecx
   14c28:	e8 53 ed ff ff       	call   13980 <builtin.returnError>
   14c2d:	66 8b 45 da          	mov    -0x26(%ebp),%ax
   14c31:	83 c4 30             	add    $0x30,%esp
   14c34:	5e                   	pop    %esi
   14c35:	5d                   	pop    %ebp
   14c36:	c3                   	ret
   14c37:	31 c0                	xor    %eax,%eax
   14c39:	83 c4 30             	add    $0x30,%esp
   14c3c:	5e                   	pop    %esi
   14c3d:	5d                   	pop    %ebp
   14c3e:	c3                   	ret
   14c3f:	90                   	nop

00014c40 <fmt.formatType__anon_2055>:
   14c40:	55                   	push   %ebp
   14c41:	89 e5                	mov    %esp,%ebp
   14c43:	56                   	push   %esi
   14c44:	83 ec 38             	sub    $0x38,%esp
   14c47:	89 4d d0             	mov    %ecx,-0x30(%ebp)
   14c4a:	66 89 d0             	mov    %dx,%ax
   14c4d:	66 89 45 d6          	mov    %ax,-0x2a(%ebp)
   14c51:	8b 4d 10             	mov    0x10(%ebp),%ecx
   14c54:	8b 4d 0c             	mov    0xc(%ebp),%ecx
   14c57:	89 4d d8             	mov    %ecx,-0x28(%ebp)
   14c5a:	8b 4d 08             	mov    0x8(%ebp),%ecx
   14c5d:	89 4d dc             	mov    %ecx,-0x24(%ebp)
   14c60:	66 89 45 e2          	mov    %ax,-0x1e(%ebp)
   14c64:	c7 45 e8 01 00 00 00 	movl   $0x1,-0x18(%ebp)
   14c6b:	c7 45 e4 c8 e2 03 00 	movl   $0x3e2c8,-0x1c(%ebp)
   14c72:	c7 45 f0 06 00 00 00 	movl   $0x6,-0x10(%ebp)
   14c79:	c7 45 ec fb ef 03 00 	movl   $0x3effb,-0x14(%ebp)
   14c80:	c7 45 f8 06 00 00 00 	movl   $0x6,-0x8(%ebp)
   14c87:	c7 45 f4 fb ef 03 00 	movl   $0x3effb,-0xc(%ebp)
   14c8e:	eb 28                	jmp    14cb8 <fmt.formatType__anon_2055+0x78>
   14c90:	8b 45 d8             	mov    -0x28(%ebp),%eax
   14c93:	8b 75 dc             	mov    -0x24(%ebp),%esi
   14c96:	66 8b 55 d6          	mov    -0x2a(%ebp),%dx
   14c9a:	8b 4d d0             	mov    -0x30(%ebp),%ecx
   14c9d:	0f b7 d2             	movzwl %dx,%edx
   14ca0:	89 34 24             	mov    %esi,(%esp)
   14ca3:	89 44 24 04          	mov    %eax,0x4(%esp)
   14ca7:	e8 44 1f 00 00       	call   16bf0 <fmt.formatValue__anon_2074>
   14cac:	66 89 45 ce          	mov    %ax,-0x32(%ebp)
   14cb0:	66 83 f8 00          	cmp    $0x0,%ax
   14cb4:	74 04                	je     14cba <fmt.formatType__anon_2055+0x7a>
   14cb6:	eb 0c                	jmp    14cc4 <fmt.formatType__anon_2055+0x84>
   14cb8:	eb d6                	jmp    14c90 <fmt.formatType__anon_2055+0x50>
   14cba:	66 8b 45 ce          	mov    -0x32(%ebp),%ax
   14cbe:	83 c4 38             	add    $0x38,%esp
   14cc1:	5e                   	pop    %esi
   14cc2:	5d                   	pop    %ebp
   14cc3:	c3                   	ret
   14cc4:	8b 4d d0             	mov    -0x30(%ebp),%ecx
   14cc7:	e8 b4 ec ff ff       	call   13980 <builtin.returnError>
   14ccc:	66 8b 45 ce          	mov    -0x32(%ebp),%ax
   14cd0:	83 c4 38             	add    $0x38,%esp
   14cd3:	5e                   	pop    %esi
   14cd4:	5d                   	pop    %ebp
   14cd5:	c3                   	ret
   14cd6:	66 2e 0f 1f 84 00 00 	nopw   %cs:0x0(%eax,%eax,1)
   14cdd:	00 00 00 

00014ce0 <unicode.utf8ByteSequenceLength>:
   14ce0:	55                   	push   %ebp
   14ce1:	89 e5                	mov    %esp,%ebp
   14ce3:	83 ec 18             	sub    $0x18,%esp
   14ce6:	89 55 f0             	mov    %edx,-0x10(%ebp)
   14ce9:	89 4d f4             	mov    %ecx,-0xc(%ebp)
   14cec:	89 4d f8             	mov    %ecx,-0x8(%ebp)
   14cef:	8a 45 08             	mov    0x8(%ebp),%al
   14cf2:	88 45 ff             	mov    %al,-0x1(%ebp)
   14cf5:	eb 15                	jmp    14d0c <unicode.utf8ByteSequenceLength+0x2c>
   14cf7:	8b 45 e8             	mov    -0x18(%ebp),%eax
   14cfa:	89 45 ec             	mov    %eax,-0x14(%ebp)
   14cfd:	66 83 38 00          	cmpw   $0x0,(%eax)
   14d01:	0f 84 9e 00 00 00    	je     14da5 <unicode.utf8ByteSequenceLength+0xc5>
   14d07:	e9 ab 00 00 00       	jmp    14db7 <unicode.utf8ByteSequenceLength+0xd7>
   14d0c:	8a 4d ff             	mov    -0x1(%ebp),%cl
   14d0f:	80 f9 00             	cmp    $0x0,%cl
   14d12:	0f 93 c0             	setae  %al
   14d15:	80 f9 7f             	cmp    $0x7f,%cl
   14d18:	0f 96 c1             	setbe  %cl
   14d1b:	20 c8                	and    %cl,%al
   14d1d:	a8 01                	test   $0x1,%al
   14d1f:	75 02                	jne    14d23 <unicode.utf8ByteSequenceLength+0x43>
   14d21:	eb 0b                	jmp    14d2e <unicode.utf8ByteSequenceLength+0x4e>
   14d23:	8d 05 40 f1 03 00    	lea    0x3f140,%eax
   14d29:	89 45 e8             	mov    %eax,-0x18(%ebp)
   14d2c:	eb c9                	jmp    14cf7 <unicode.utf8ByteSequenceLength+0x17>
   14d2e:	8a 4d ff             	mov    -0x1(%ebp),%cl
   14d31:	80 f9 c0             	cmp    $0xc0,%cl
   14d34:	0f 93 c0             	setae  %al
   14d37:	80 f9 df             	cmp    $0xdf,%cl
   14d3a:	0f 96 c1             	setbe  %cl
   14d3d:	20 c8                	and    %cl,%al
   14d3f:	a8 01                	test   $0x1,%al
   14d41:	75 02                	jne    14d45 <unicode.utf8ByteSequenceLength+0x65>
   14d43:	eb 0b                	jmp    14d50 <unicode.utf8ByteSequenceLength+0x70>
   14d45:	8d 05 44 f1 03 00    	lea    0x3f144,%eax
   14d4b:	89 45 e8             	mov    %eax,-0x18(%ebp)
   14d4e:	eb a7                	jmp    14cf7 <unicode.utf8ByteSequenceLength+0x17>
   14d50:	8a 4d ff             	mov    -0x1(%ebp),%cl
   14d53:	80 f9 e0             	cmp    $0xe0,%cl
   14d56:	0f 93 c0             	setae  %al
   14d59:	80 f9 ef             	cmp    $0xef,%cl
   14d5c:	0f 96 c1             	setbe  %cl
   14d5f:	20 c8                	and    %cl,%al
   14d61:	a8 01                	test   $0x1,%al
   14d63:	75 02                	jne    14d67 <unicode.utf8ByteSequenceLength+0x87>
   14d65:	eb 0b                	jmp    14d72 <unicode.utf8ByteSequenceLength+0x92>
   14d67:	8d 05 7c f1 03 00    	lea    0x3f17c,%eax
   14d6d:	89 45 e8             	mov    %eax,-0x18(%ebp)
   14d70:	eb 85                	jmp    14cf7 <unicode.utf8ByteSequenceLength+0x17>
   14d72:	8a 4d ff             	mov    -0x1(%ebp),%cl
   14d75:	80 f9 f0             	cmp    $0xf0,%cl
   14d78:	0f 93 c0             	setae  %al
   14d7b:	80 f9 f7             	cmp    $0xf7,%cl
   14d7e:	0f 96 c1             	setbe  %cl
   14d81:	20 c8                	and    %cl,%al
   14d83:	a8 01                	test   $0x1,%al
   14d85:	75 02                	jne    14d89 <unicode.utf8ByteSequenceLength+0xa9>
   14d87:	eb 0e                	jmp    14d97 <unicode.utf8ByteSequenceLength+0xb7>
   14d89:	8d 05 04 f1 03 00    	lea    0x3f104,%eax
   14d8f:	89 45 e8             	mov    %eax,-0x18(%ebp)
   14d92:	e9 60 ff ff ff       	jmp    14cf7 <unicode.utf8ByteSequenceLength+0x17>
   14d97:	8d 05 60 f1 03 00    	lea    0x3f160,%eax
   14d9d:	89 45 e8             	mov    %eax,-0x18(%ebp)
   14da0:	e9 52 ff ff ff       	jmp    14cf7 <unicode.utf8ByteSequenceLength+0x17>
   14da5:	8b 45 f8             	mov    -0x8(%ebp),%eax
   14da8:	8b 4d f4             	mov    -0xc(%ebp),%ecx
   14dab:	8b 55 ec             	mov    -0x14(%ebp),%edx
   14dae:	8b 12                	mov    (%edx),%edx
   14db0:	89 11                	mov    %edx,(%ecx)
   14db2:	83 c4 18             	add    $0x18,%esp
   14db5:	5d                   	pop    %ebp
   14db6:	c3                   	ret
   14db7:	8b 4d f0             	mov    -0x10(%ebp),%ecx
   14dba:	e8 c1 eb ff ff       	call   13980 <builtin.returnError>
   14dbf:	8b 55 ec             	mov    -0x14(%ebp),%edx
   14dc2:	8b 4d f4             	mov    -0xc(%ebp),%ecx
   14dc5:	8b 45 f8             	mov    -0x8(%ebp),%eax
   14dc8:	8b 12                	mov    (%edx),%edx
   14dca:	89 11                	mov    %edx,(%ecx)
   14dcc:	83 c4 18             	add    $0x18,%esp
   14dcf:	5d                   	pop    %ebp
   14dd0:	c3                   	ret
   14dd1:	66 2e 0f 1f 84 00 00 	nopw   %cs:0x0(%eax,%eax,1)
   14dd8:	00 00 00 
   14ddb:	0f 1f 44 00 00       	nopl   0x0(%eax,%eax,1)

00014de0 <unicode.utf8CountCodepoints>:
   14de0:	55                   	push   %ebp
   14de1:	89 e5                	mov    %esp,%ebp
   14de3:	56                   	push   %esi
   14de4:	81 ec b8 00 00 00    	sub    $0xb8,%esp
   14dea:	89 55 90             	mov    %edx,-0x70(%ebp)
   14ded:	89 4d 94             	mov    %ecx,-0x6c(%ebp)
   14df0:	89 4d 98             	mov    %ecx,-0x68(%ebp)
   14df3:	8b 4d 0c             	mov    0xc(%ebp),%ecx
   14df6:	8b 45 08             	mov    0x8(%ebp),%eax
   14df9:	89 ca                	mov    %ecx,%edx
   14dfb:	89 55 9c             	mov    %edx,-0x64(%ebp)
   14dfe:	89 c2                	mov    %eax,%edx
   14e00:	89 55 a0             	mov    %edx,-0x60(%ebp)
   14e03:	89 4d a8             	mov    %ecx,-0x58(%ebp)
   14e06:	89 45 a4             	mov    %eax,-0x5c(%ebp)
   14e09:	c7 45 ac 00 00 00 00 	movl   $0x0,-0x54(%ebp)
   14e10:	c7 45 b0 00 00 00 00 	movl   $0x0,-0x50(%ebp)
   14e17:	eb 26                	jmp    14e3f <unicode.utf8CountCodepoints+0x5f>
   14e19:	8b 45 98             	mov    -0x68(%ebp),%eax
   14e1c:	8b 4d 94             	mov    -0x6c(%ebp),%ecx
   14e1f:	8b 55 ac             	mov    -0x54(%ebp),%edx
   14e22:	66 c7 45 f8 00 00    	movw   $0x0,-0x8(%ebp)
   14e28:	89 55 f4             	mov    %edx,-0xc(%ebp)
   14e2b:	8b 55 f4             	mov    -0xc(%ebp),%edx
   14e2e:	89 11                	mov    %edx,(%ecx)
   14e30:	8b 55 f8             	mov    -0x8(%ebp),%edx
   14e33:	89 51 04             	mov    %edx,0x4(%ecx)
   14e36:	81 c4 b8 00 00 00    	add    $0xb8,%esp
   14e3c:	5e                   	pop    %esi
   14e3d:	5d                   	pop    %ebp
   14e3e:	c3                   	ret
   14e3f:	8b 4d 9c             	mov    -0x64(%ebp),%ecx
   14e42:	8b 45 b0             	mov    -0x50(%ebp),%eax
   14e45:	39 c8                	cmp    %ecx,%eax
   14e47:	72 04                	jb     14e4d <unicode.utf8CountCodepoints+0x6d>
   14e49:	eb 04                	jmp    14e4f <unicode.utf8CountCodepoints+0x6f>
   14e4b:	eb f2                	jmp    14e3f <unicode.utf8CountCodepoints+0x5f>
   14e4d:	eb 15                	jmp    14e64 <unicode.utf8CountCodepoints+0x84>
