
./webserver/zig-out/bin/webserver.elf:     file format elf32-i386


Disassembly of section .text:

00011000 <_start>:
   11000:	e8 0b 00 00 00       	call   11010 <main>
   11005:	0f 0b                	ud2
   11007:	66 0f 1f 84 00 00 00 	nopw   0x0(%eax,%eax,1)
   1100e:	00 00 

00011010 <main>:
   11010:	55                   	push   %ebp
   11011:	89 e5                	mov    %esp,%ebp
   11013:	e8 38 00 00 00       	call   11050 <sys.x86.paging.init>
   11018:	e8 53 00 00 00       	call   11070 <sys.x86.interrupt.init>
   1101d:	e8 6e 00 00 00       	call   11090 <device.keyboard.init>
   11022:	e8 a9 00 00 00       	call   110d0 <device.tty.init>
   11027:	b9 aa 02 04 00       	mov    $0x402aa,%ecx
   1102c:	ba 50 00 00 00       	mov    $0x50,%edx
   11031:	e8 fa 00 00 00       	call   11130 <device.tty.set_status>
   11036:	e8 35 01 00 00       	call   11170 <sys.x86.pci.scan_devices>
   1103b:	e8 a0 01 00 00       	call   111e0 <io.shell.init>
   11040:	e8 db 01 00 00       	call   11220 <main.print_welcome>
   11045:	f4                   	hlt
   11046:	e8 f5 01 00 00       	call   11240 <main.tick>
   1104b:	eb f8                	jmp    11045 <main+0x35>
   1104d:	0f 1f 00             	nopl   (%eax)

00011050 <sys.x86.paging.init>:
   11050:	55                   	push   %ebp
   11051:	89 e5                	mov    %esp,%ebp
   11053:	e8 f8 01 00 00       	call   11250 <sys.x86.paging.init_pm1>
   11058:	e8 a3 02 00 00       	call   11300 <sys.x86.paging.init_pm2>
   1105d:	e8 8e 03 00 00       	call   113f0 <sys.x86.paging.enable_paging>
   11062:	5d                   	pop    %ebp
   11063:	c3                   	ret
   11064:	66 2e 0f 1f 84 00 00 	nopw   %cs:0x0(%eax,%eax,1)
   1106b:	00 00 00 
   1106e:	66 90                	xchg   %ax,%ax

00011070 <sys.x86.interrupt.init>:
   11070:	55                   	push   %ebp
   11071:	89 e5                	mov    %esp,%ebp
   11073:	e8 98 03 00 00       	call   11410 <sys.x86.interrupt.init_idt>
   11078:	e8 63 04 00 00       	call   114e0 <sys.x86.interrupt.init_idtr>
   1107d:	b8 00 00 00 02       	mov    $0x2000000,%eax
   11082:	0f 01 18             	lidtl  (%eax)
   11085:	fb                   	sti
   11086:	5d                   	pop    %ebp
   11087:	c3                   	ret
   11088:	0f 1f 84 00 00 00 00 	nopl   0x0(%eax,%eax,1)
   1108f:	00 

00011090 <device.keyboard.init>:
   11090:	55                   	push   %ebp
   11091:	89 e5                	mov    %esp,%ebp
   11093:	81 ec 18 04 00 00    	sub    $0x418,%esp
   11099:	8d 8d f4 fb ff ff    	lea    -0x40c(%ebp),%ecx
   1109f:	e8 5c 04 00 00       	call   11500 <device.keyboard.KeyboardState.init>
   110a4:	b9 00 00 80 02       	mov    $0x2800000,%ecx
   110a9:	8d 85 f4 fb ff ff    	lea    -0x40c(%ebp),%eax
   110af:	89 0c 24             	mov    %ecx,(%esp)
   110b2:	89 44 24 04          	mov    %eax,0x4(%esp)
   110b6:	c7 44 24 08 0c 04 00 	movl   $0x40c,0x8(%esp)
   110bd:	00 
   110be:	e8 8d bf 02 00       	call   3d050 <memcpy>
   110c3:	81 c4 18 04 00 00    	add    $0x418,%esp
   110c9:	5d                   	pop    %ebp
   110ca:	c3                   	ret
   110cb:	0f 1f 44 00 00       	nopl   0x0(%eax,%eax,1)

000110d0 <device.tty.init>:
   110d0:	55                   	push   %ebp
   110d1:	89 e5                	mov    %esp,%ebp
   110d3:	81 ec 18 02 00 00    	sub    $0x218,%esp
   110d9:	8d 8d f8 fd ff ff    	lea    -0x208(%ebp),%ecx
   110df:	89 8d f4 fd ff ff    	mov    %ecx,-0x20c(%ebp)
   110e5:	e8 46 04 00 00       	call   11530 <device.tty.Terminal.init>
   110ea:	8b 8d f4 fd ff ff    	mov    -0x20c(%ebp),%ecx
   110f0:	89 e0                	mov    %esp,%eax
   110f2:	89 48 04             	mov    %ecx,0x4(%eax)
   110f5:	c7 40 08 08 02 00 00 	movl   $0x208,0x8(%eax)
   110fc:	c7 00 00 00 82 02    	movl   $0x2820000,(%eax)
   11102:	e8 49 bf 02 00       	call   3d050 <memcpy>
   11107:	b9 00 00 82 02       	mov    $0x2820000,%ecx
   1110c:	e8 4f 04 00 00       	call   11560 <device.tty.Terminal.clear>
   11111:	b9 67 03 04 00       	mov    $0x40367,%ecx
   11116:	ba 0a 00 00 00       	mov    $0xa,%edx
   1111b:	e8 c0 04 00 00       	call   115e0 <device.tty.println>
   11120:	81 c4 18 02 00 00    	add    $0x218,%esp
   11126:	5d                   	pop    %ebp
   11127:	c3                   	ret
   11128:	0f 1f 84 00 00 00 00 	nopl   0x0(%eax,%eax,1)
   1112f:	00 

00011130 <device.tty.set_status>:
   11130:	55                   	push   %ebp
   11131:	89 e5                	mov    %esp,%ebp
   11133:	56                   	push   %esi
   11134:	83 ec 14             	sub    $0x14,%esp
   11137:	89 d0                	mov    %edx,%eax
   11139:	89 ce                	mov    %ecx,%esi
   1113b:	89 55 f8             	mov    %edx,-0x8(%ebp)
   1113e:	89 4d f4             	mov    %ecx,-0xc(%ebp)
   11141:	b9 00 00 82 02       	mov    $0x2820000,%ecx
   11146:	ba 80 07 00 00       	mov    $0x780,%edx
   1114b:	89 34 24             	mov    %esi,(%esp)
   1114e:	89 44 24 04          	mov    %eax,0x4(%esp)
   11152:	c7 44 24 08 9f 00 00 	movl   $0x9f,0x8(%esp)
   11159:	00 
   1115a:	e8 b1 04 00 00       	call   11610 <device.tty.Terminal.write>
   1115f:	83 c4 14             	add    $0x14,%esp
   11162:	5e                   	pop    %esi
   11163:	5d                   	pop    %ebp
   11164:	c3                   	ret
   11165:	66 2e 0f 1f 84 00 00 	nopw   %cs:0x0(%eax,%eax,1)
   1116c:	00 00 00 
   1116f:	90                   	nop

00011170 <sys.x86.pci.scan_devices>:
   11170:	55                   	push   %ebp
   11171:	89 e5                	mov    %esp,%ebp
   11173:	83 ec 18             	sub    $0x18,%esp
   11176:	c7 45 f0 00 00 00 00 	movl   $0x0,-0x10(%ebp)
   1117d:	eb 05                	jmp    11184 <sys.x86.pci.scan_devices+0x14>
   1117f:	83 c4 18             	add    $0x18,%esp
   11182:	5d                   	pop    %ebp
   11183:	c3                   	ret
   11184:	8b 45 f0             	mov    -0x10(%ebp),%eax
   11187:	89 45 ec             	mov    %eax,-0x14(%ebp)
   1118a:	83 f8 04             	cmp    $0x4,%eax
   1118d:	72 0d                	jb     1119c <sys.x86.pci.scan_devices+0x2c>
   1118f:	eb 1a                	jmp    111ab <sys.x86.pci.scan_devices+0x3b>
   11191:	8b 45 ec             	mov    -0x14(%ebp),%eax
   11194:	83 c0 01             	add    $0x1,%eax
   11197:	89 45 f0             	mov    %eax,-0x10(%ebp)
   1119a:	eb e8                	jmp    11184 <sys.x86.pci.scan_devices+0x14>
   1119c:	8b 45 ec             	mov    -0x14(%ebp),%eax
   1119f:	89 45 f4             	mov    %eax,-0xc(%ebp)
   111a2:	c7 45 f8 00 00 00 00 	movl   $0x0,-0x8(%ebp)
   111a9:	eb 04                	jmp    111af <sys.x86.pci.scan_devices+0x3f>
   111ab:	eb d2                	jmp    1117f <sys.x86.pci.scan_devices+0xf>
   111ad:	eb e2                	jmp    11191 <sys.x86.pci.scan_devices+0x21>
   111af:	8b 45 f8             	mov    -0x8(%ebp),%eax
   111b2:	89 45 e8             	mov    %eax,-0x18(%ebp)
   111b5:	83 f8 20             	cmp    $0x20,%eax
   111b8:	72 0d                	jb     111c7 <sys.x86.pci.scan_devices+0x57>
   111ba:	eb 21                	jmp    111dd <sys.x86.pci.scan_devices+0x6d>
   111bc:	8b 45 e8             	mov    -0x18(%ebp),%eax
   111bf:	83 c0 01             	add    $0x1,%eax
   111c2:	89 45 f8             	mov    %eax,-0x8(%ebp)
   111c5:	eb e8                	jmp    111af <sys.x86.pci.scan_devices+0x3f>
   111c7:	8b 45 e8             	mov    -0x18(%ebp),%eax
   111ca:	8b 4d ec             	mov    -0x14(%ebp),%ecx
   111cd:	89 45 fc             	mov    %eax,-0x4(%ebp)
   111d0:	0f b6 c9             	movzbl %cl,%ecx
   111d3:	0f b6 d0             	movzbl %al,%edx
   111d6:	e8 a5 05 00 00       	call   11780 <sys.x86.pci.scan_device>
   111db:	eb df                	jmp    111bc <sys.x86.pci.scan_devices+0x4c>
   111dd:	eb ce                	jmp    111ad <sys.x86.pci.scan_devices+0x3d>
   111df:	90                   	nop

000111e0 <io.shell.init>:
   111e0:	55                   	push   %ebp
   111e1:	89 e5                	mov    %esp,%ebp
   111e3:	81 ec 10 01 00 00    	sub    $0x110,%esp
   111e9:	8d 8d fe fe ff ff    	lea    -0x102(%ebp),%ecx
   111ef:	e8 dc 07 00 00       	call   119d0 <io.shell.Shell.init>
   111f4:	b9 00 00 81 02       	mov    $0x2810000,%ecx
   111f9:	8d 85 fe fe ff ff    	lea    -0x102(%ebp),%eax
   111ff:	89 0c 24             	mov    %ecx,(%esp)
   11202:	89 44 24 04          	mov    %eax,0x4(%esp)
   11206:	c7 44 24 08 02 01 00 	movl   $0x102,0x8(%esp)
   1120d:	00 
   1120e:	e8 3d be 02 00       	call   3d050 <memcpy>
   11213:	81 c4 10 01 00 00    	add    $0x110,%esp
   11219:	5d                   	pop    %ebp
   1121a:	c3                   	ret
   1121b:	0f 1f 44 00 00       	nopl   0x0(%eax,%eax,1)

00011220 <main.print_welcome>:
   11220:	55                   	push   %ebp
   11221:	89 e5                	mov    %esp,%ebp
   11223:	b9 77 04 04 00       	mov    $0x40477,%ecx
   11228:	ba 06 00 00 00       	mov    $0x6,%edx
   1122d:	e8 ae 03 00 00       	call   115e0 <device.tty.println>
   11232:	e8 c9 07 00 00       	call   11a00 <io.shell.show_prompt>
   11237:	5d                   	pop    %ebp
   11238:	c3                   	ret
   11239:	0f 1f 80 00 00 00 00 	nopl   0x0(%eax)

00011240 <main.tick>:
   11240:	55                   	push   %ebp
   11241:	89 e5                	mov    %esp,%ebp
   11243:	e8 d8 07 00 00       	call   11a20 <io.shell.tick>
   11248:	5d                   	pop    %ebp
   11249:	c3                   	ret
   1124a:	66 0f 1f 44 00 00    	nopw   0x0(%eax,%eax,1)

00011250 <sys.x86.paging.init_pm1>:
   11250:	55                   	push   %ebp
   11251:	89 e5                	mov    %esp,%ebp
   11253:	83 ec 1c             	sub    $0x1c,%esp
   11256:	c7 45 f4 00 00 00 00 	movl   $0x0,-0xc(%ebp)
   1125d:	eb 05                	jmp    11264 <sys.x86.paging.init_pm1+0x14>
   1125f:	83 c4 1c             	add    $0x1c,%esp
   11262:	5d                   	pop    %ebp
   11263:	c3                   	ret
   11264:	8b 45 f4             	mov    -0xc(%ebp),%eax
   11267:	89 45 f0             	mov    %eax,-0x10(%ebp)
   1126a:	3d 00 40 00 00       	cmp    $0x4000,%eax
   1126f:	72 0d                	jb     1127e <sys.x86.paging.init_pm1+0x2e>
   11271:	eb 22                	jmp    11295 <sys.x86.paging.init_pm1+0x45>
   11273:	8b 45 f0             	mov    -0x10(%ebp),%eax
   11276:	83 c0 01             	add    $0x1,%eax
   11279:	89 45 f4             	mov    %eax,-0xc(%ebp)
   1127c:	eb e6                	jmp    11264 <sys.x86.paging.init_pm1+0x14>
   1127e:	8b 45 f0             	mov    -0x10(%ebp),%eax
   11281:	89 45 f8             	mov    %eax,-0x8(%ebp)
   11284:	b9 00 10 00 00       	mov    $0x1000,%ecx
   11289:	f7 e1                	mul    %ecx
   1128b:	89 45 ec             	mov    %eax,-0x14(%ebp)
   1128e:	0f 90 c0             	seto   %al
   11291:	70 04                	jo     11297 <sys.x86.paging.init_pm1+0x47>
   11293:	eb 25                	jmp    112ba <sys.x86.paging.init_pm1+0x6a>
   11295:	eb c8                	jmp    1125f <sys.x86.paging.init_pm1+0xf>
   11297:	8d 0d 29 02 04 00    	lea    0x40229,%ecx
   1129d:	ba 10 00 00 00       	mov    $0x10,%edx
   112a2:	31 c0                	xor    %eax,%eax
   112a4:	8d 05 e8 fd 03 00    	lea    0x3fde8,%eax
   112aa:	c7 04 24 00 00 00 00 	movl   $0x0,(%esp)
   112b1:	89 44 24 04          	mov    %eax,0x4(%esp)
   112b5:	e8 f6 07 00 00       	call   11ab0 <builtin.default_panic>
   112ba:	8b 45 f0             	mov    -0x10(%ebp),%eax
   112bd:	8b 4d ec             	mov    -0x14(%ebp),%ecx
   112c0:	89 4d fc             	mov    %ecx,-0x4(%ebp)
   112c3:	3d 00 40 00 00       	cmp    $0x4000,%eax
   112c8:	72 21                	jb     112eb <sys.x86.paging.init_pm1+0x9b>
   112ca:	eb 21                	jmp    112ed <sys.x86.paging.init_pm1+0x9d>
   112cc:	8b 4d ec             	mov    -0x14(%ebp),%ecx
   112cf:	c1 e9 0c             	shr    $0xc,%ecx
   112d2:	ba 01 00 00 00       	mov    $0x1,%edx
   112d7:	e8 24 08 00 00       	call   11b00 <sys.x86.paging.PageTableEntry.create>
   112dc:	8b 4d f0             	mov    -0x10(%ebp),%ecx
   112df:	89 c2                	mov    %eax,%edx
   112e1:	b8 00 00 00 03       	mov    $0x3000000,%eax
   112e6:	89 14 88             	mov    %edx,(%eax,%ecx,4)
   112e9:	eb 88                	jmp    11273 <sys.x86.paging.init_pm1+0x23>
   112eb:	eb df                	jmp    112cc <sys.x86.paging.init_pm1+0x7c>
   112ed:	8b 4d f0             	mov    -0x10(%ebp),%ecx
   112f0:	ba 00 40 00 00       	mov    $0x4000,%edx
   112f5:	e8 d6 07 00 00       	call   11ad0 <builtin.panicOutOfBounds>
   112fa:	66 0f 1f 44 00 00    	nopw   0x0(%eax,%eax,1)

00011300 <sys.x86.paging.init_pm2>:
   11300:	55                   	push   %ebp
   11301:	89 e5                	mov    %esp,%ebp
   11303:	83 ec 20             	sub    $0x20,%esp
   11306:	c7 45 f4 00 00 00 00 	movl   $0x0,-0xc(%ebp)
   1130d:	eb 05                	jmp    11314 <sys.x86.paging.init_pm2+0x14>
   1130f:	83 c4 20             	add    $0x20,%esp
   11312:	5d                   	pop    %ebp
   11313:	c3                   	ret
   11314:	8b 45 f4             	mov    -0xc(%ebp),%eax
   11317:	89 45 f0             	mov    %eax,-0x10(%ebp)
   1131a:	3d 00 04 00 00       	cmp    $0x400,%eax
   1131f:	72 0d                	jb     1132e <sys.x86.paging.init_pm2+0x2e>
   11321:	eb 22                	jmp    11345 <sys.x86.paging.init_pm2+0x45>
   11323:	8b 45 f0             	mov    -0x10(%ebp),%eax
   11326:	83 c0 01             	add    $0x1,%eax
   11329:	89 45 f4             	mov    %eax,-0xc(%ebp)
   1132c:	eb e6                	jmp    11314 <sys.x86.paging.init_pm2+0x14>
   1132e:	8b 45 f0             	mov    -0x10(%ebp),%eax
   11331:	89 45 f8             	mov    %eax,-0x8(%ebp)
   11334:	b9 00 10 00 00       	mov    $0x1000,%ecx
   11339:	f7 e1                	mul    %ecx
   1133b:	89 45 ec             	mov    %eax,-0x14(%ebp)
   1133e:	0f 90 c0             	seto   %al
   11341:	70 04                	jo     11347 <sys.x86.paging.init_pm2+0x47>
   11343:	eb 25                	jmp    1136a <sys.x86.paging.init_pm2+0x6a>
   11345:	eb c8                	jmp    1130f <sys.x86.paging.init_pm2+0xf>
   11347:	8d 0d 29 02 04 00    	lea    0x40229,%ecx
   1134d:	ba 10 00 00 00       	mov    $0x10,%edx
   11352:	31 c0                	xor    %eax,%eax
   11354:	8d 05 e8 fd 03 00    	lea    0x3fde8,%eax
   1135a:	c7 04 24 00 00 00 00 	movl   $0x0,(%esp)
   11361:	89 44 24 04          	mov    %eax,0x4(%esp)
   11365:	e8 46 07 00 00       	call   11ab0 <builtin.default_panic>
   1136a:	8b 45 ec             	mov    -0x14(%ebp),%eax
   1136d:	05 00 00 00 03       	add    $0x3000000,%eax
   11372:	89 45 e8             	mov    %eax,-0x18(%ebp)
   11375:	0f 92 c0             	setb   %al
   11378:	72 02                	jb     1137c <sys.x86.paging.init_pm2+0x7c>
   1137a:	eb 23                	jmp    1139f <sys.x86.paging.init_pm2+0x9f>
   1137c:	8d 0d 29 02 04 00    	lea    0x40229,%ecx
   11382:	ba 10 00 00 00       	mov    $0x10,%edx
   11387:	31 c0                	xor    %eax,%eax
   11389:	8d 05 e8 fd 03 00    	lea    0x3fde8,%eax
   1138f:	c7 04 24 00 00 00 00 	movl   $0x0,(%esp)
   11396:	89 44 24 04          	mov    %eax,0x4(%esp)
   1139a:	e8 11 07 00 00       	call   11ab0 <builtin.default_panic>
   1139f:	8b 45 f0             	mov    -0x10(%ebp),%eax
   113a2:	8b 4d e8             	mov    -0x18(%ebp),%ecx
   113a5:	89 4d fc             	mov    %ecx,-0x4(%ebp)
   113a8:	3d 00 04 00 00       	cmp    $0x400,%eax
   113ad:	72 24                	jb     113d3 <sys.x86.paging.init_pm2+0xd3>
   113af:	eb 24                	jmp    113d5 <sys.x86.paging.init_pm2+0xd5>
   113b1:	8b 4d e8             	mov    -0x18(%ebp),%ecx
   113b4:	c1 e9 0c             	shr    $0xc,%ecx
   113b7:	ba 01 00 00 00       	mov    $0x1,%edx
   113bc:	e8 7f 07 00 00       	call   11b40 <sys.x86.paging.PageDirectoryEntry.create>
   113c1:	8b 4d f0             	mov    -0x10(%ebp),%ecx
   113c4:	89 c2                	mov    %eax,%edx
   113c6:	b8 00 00 01 03       	mov    $0x3010000,%eax
   113cb:	89 14 88             	mov    %edx,(%eax,%ecx,4)
   113ce:	e9 50 ff ff ff       	jmp    11323 <sys.x86.paging.init_pm2+0x23>
   113d3:	eb dc                	jmp    113b1 <sys.x86.paging.init_pm2+0xb1>
   113d5:	8b 4d f0             	mov    -0x10(%ebp),%ecx
   113d8:	ba 00 04 00 00       	mov    $0x400,%edx
   113dd:	e8 ee 06 00 00       	call   11ad0 <builtin.panicOutOfBounds>
   113e2:	66 2e 0f 1f 84 00 00 	nopw   %cs:0x0(%eax,%eax,1)
   113e9:	00 00 00 
   113ec:	0f 1f 40 00          	nopl   0x0(%eax)

000113f0 <sys.x86.paging.enable_paging>:
   113f0:	55                   	push   %ebp
   113f1:	89 e5                	mov    %esp,%ebp
   113f3:	b8 00 00 01 03       	mov    $0x3010000,%eax
   113f8:	89 c0                	mov    %eax,%eax
   113fa:	0f 22 d8             	mov    %eax,%cr3
   113fd:	0f 20 c0             	mov    %cr0,%eax
   11400:	0d 00 00 00 80       	or     $0x80000000,%eax
   11405:	0f 22 c0             	mov    %eax,%cr0
   11408:	5d                   	pop    %ebp
   11409:	c3                   	ret
   1140a:	66 0f 1f 44 00 00    	nopw   0x0(%eax,%eax,1)

00011410 <sys.x86.interrupt.init_idt>:
   11410:	55                   	push   %ebp
   11411:	89 e5                	mov    %esp,%ebp
   11413:	83 ec 1c             	sub    $0x1c,%esp
   11416:	c7 45 f8 00 00 00 00 	movl   $0x0,-0x8(%ebp)
   1141d:	eb 05                	jmp    11424 <sys.x86.interrupt.init_idt+0x14>
   1141f:	83 c4 1c             	add    $0x1c,%esp
   11422:	5d                   	pop    %ebp
   11423:	c3                   	ret
   11424:	8b 45 f8             	mov    -0x8(%ebp),%eax
   11427:	89 45 f4             	mov    %eax,-0xc(%ebp)
   1142a:	3d 00 01 00 00       	cmp    $0x100,%eax
   1142f:	72 0d                	jb     1143e <sys.x86.interrupt.init_idt+0x2e>
   11431:	eb 1a                	jmp    1144d <sys.x86.interrupt.init_idt+0x3d>
   11433:	8b 45 f4             	mov    -0xc(%ebp),%eax
   11436:	83 c0 01             	add    $0x1,%eax
   11439:	89 45 f8             	mov    %eax,-0x8(%ebp)
   1143c:	eb e6                	jmp    11424 <sys.x86.interrupt.init_idt+0x14>
   1143e:	8b 45 f4             	mov    -0xc(%ebp),%eax
   11441:	89 45 fc             	mov    %eax,-0x4(%ebp)
   11444:	3d 00 01 00 00       	cmp    $0x100,%eax
   11449:	72 28                	jb     11473 <sys.x86.interrupt.init_idt+0x63>
   1144b:	eb 28                	jmp    11475 <sys.x86.interrupt.init_idt+0x65>
   1144d:	eb d0                	jmp    1141f <sys.x86.interrupt.init_idt+0xf>
   1144f:	8b 45 f4             	mov    -0xc(%ebp),%eax
   11452:	8d 0c c5 00 10 00 02 	lea    0x2001000(,%eax,8),%ecx
   11459:	89 4d ec             	mov    %ecx,-0x14(%ebp)
   1145c:	83 c0 fd             	add    $0xfffffffd,%eax
   1145f:	89 45 f0             	mov    %eax,-0x10(%ebp)
   11462:	83 e8 0a             	sub    $0xa,%eax
   11465:	77 2b                	ja     11492 <sys.x86.interrupt.init_idt+0x82>
   11467:	8b 45 f0             	mov    -0x10(%ebp),%eax
   1146a:	8b 04 85 00 f0 03 00 	mov    0x3f000(,%eax,4),%eax
   11471:	ff e0                	jmp    *%eax
   11473:	eb da                	jmp    1144f <sys.x86.interrupt.init_idt+0x3f>
   11475:	8b 4d f4             	mov    -0xc(%ebp),%ecx
   11478:	ba 00 01 00 00       	mov    $0x100,%edx
   1147d:	e8 4e 06 00 00       	call   11ad0 <builtin.panicOutOfBounds>
   11482:	8b 45 ec             	mov    -0x14(%ebp),%eax
   11485:	8b 55 e8             	mov    -0x18(%ebp),%edx
   11488:	8b 4d e4             	mov    -0x1c(%ebp),%ecx
   1148b:	89 10                	mov    %edx,(%eax)
   1148d:	89 48 04             	mov    %ecx,0x4(%eax)
   11490:	eb a1                	jmp    11433 <sys.x86.interrupt.init_idt+0x23>
   11492:	e8 39 08 00 00       	call   11cd0 <sys.x86.interrupt.InterruptDescriptorTableEntry.noop>
   11497:	89 45 e8             	mov    %eax,-0x18(%ebp)
   1149a:	89 55 e4             	mov    %edx,-0x1c(%ebp)
   1149d:	eb e3                	jmp    11482 <sys.x86.interrupt.init_idt+0x72>
   1149f:	e8 dc 06 00 00       	call   11b80 <sys.x86.interrupt.InterruptDescriptorTableEntry.none>
   114a4:	89 45 e8             	mov    %eax,-0x18(%ebp)
   114a7:	89 55 e4             	mov    %edx,-0x1c(%ebp)
   114aa:	eb d6                	jmp    11482 <sys.x86.interrupt.init_idt+0x72>
   114ac:	b9 c0 1b 01 00       	mov    $0x11bc0,%ecx
   114b1:	e8 da 06 00 00       	call   11b90 <sys.x86.interrupt.InterruptDescriptorTableEntry.with_isr>
   114b6:	89 45 e8             	mov    %eax,-0x18(%ebp)
   114b9:	89 55 e4             	mov    %edx,-0x1c(%ebp)
   114bc:	eb c4                	jmp    11482 <sys.x86.interrupt.init_idt+0x72>
   114be:	e8 fd 07 00 00       	call   11cc0 <sys.x86.interrupt.InterruptDescriptorTableEntry.panic>
   114c3:	89 45 e8             	mov    %eax,-0x18(%ebp)
   114c6:	89 55 e4             	mov    %edx,-0x1c(%ebp)
   114c9:	eb b7                	jmp    11482 <sys.x86.interrupt.init_idt+0x72>
   114cb:	e8 f0 07 00 00       	call   11cc0 <sys.x86.interrupt.InterruptDescriptorTableEntry.panic>
   114d0:	89 45 e8             	mov    %eax,-0x18(%ebp)
   114d3:	89 55 e4             	mov    %edx,-0x1c(%ebp)
   114d6:	eb aa                	jmp    11482 <sys.x86.interrupt.init_idt+0x72>
   114d8:	0f 1f 84 00 00 00 00 	nopl   0x0(%eax,%eax,1)
   114df:	00 

000114e0 <sys.x86.interrupt.init_idtr>:
   114e0:	55                   	push   %ebp
   114e1:	89 e5                	mov    %esp,%ebp
   114e3:	66 c7 05 04 00 00 02 	movw   $0x200,0x2000004
   114ea:	00 02 
   114ec:	c7 05 00 00 00 02 ff 	movl   $0x10003fff,0x2000000
   114f3:	3f 00 10 
   114f6:	5d                   	pop    %ebp
   114f7:	c3                   	ret
   114f8:	0f 1f 84 00 00 00 00 	nopl   0x0(%eax,%eax,1)
   114ff:	00 

00011500 <device.keyboard.KeyboardState.init>:
   11500:	55                   	push   %ebp
   11501:	89 e5                	mov    %esp,%ebp
   11503:	83 ec 10             	sub    $0x10,%esp
   11506:	89 c8                	mov    %ecx,%eax
   11508:	89 45 fc             	mov    %eax,-0x4(%ebp)
   1150b:	8d 05 44 f1 03 00    	lea    0x3f144,%eax
   11511:	89 0c 24             	mov    %ecx,(%esp)
   11514:	89 44 24 04          	mov    %eax,0x4(%esp)
   11518:	c7 44 24 08 0c 04 00 	movl   $0x40c,0x8(%esp)
   1151f:	00 
   11520:	e8 2b bb 02 00       	call   3d050 <memcpy>
   11525:	8b 45 fc             	mov    -0x4(%ebp),%eax
   11528:	83 c4 10             	add    $0x10,%esp
   1152b:	5d                   	pop    %ebp
   1152c:	c3                   	ret
   1152d:	0f 1f 00             	nopl   (%eax)

00011530 <device.tty.Terminal.init>:
   11530:	55                   	push   %ebp
   11531:	89 e5                	mov    %esp,%ebp
   11533:	83 ec 10             	sub    $0x10,%esp
   11536:	89 c8                	mov    %ecx,%eax
   11538:	89 45 fc             	mov    %eax,-0x4(%ebp)
   1153b:	8d 05 54 f5 03 00    	lea    0x3f554,%eax
   11541:	89 0c 24             	mov    %ecx,(%esp)
   11544:	89 44 24 04          	mov    %eax,0x4(%esp)
   11548:	c7 44 24 08 08 02 00 	movl   $0x208,0x8(%esp)
   1154f:	00 
   11550:	e8 fb ba 02 00       	call   3d050 <memcpy>
   11555:	8b 45 fc             	mov    -0x4(%ebp),%eax
   11558:	83 c4 10             	add    $0x10,%esp
   1155b:	5d                   	pop    %ebp
   1155c:	c3                   	ret
   1155d:	0f 1f 00             	nopl   (%eax)

00011560 <device.tty.Terminal.clear>:
   11560:	55                   	push   %ebp
   11561:	89 e5                	mov    %esp,%ebp
   11563:	83 ec 24             	sub    $0x24,%esp
   11566:	89 4d e8             	mov    %ecx,-0x18(%ebp)
   11569:	89 4d f0             	mov    %ecx,-0x10(%ebp)
   1156c:	66 c7 45 f6 80 07    	movw   $0x780,-0xa(%ebp)
   11572:	89 4d f8             	mov    %ecx,-0x8(%ebp)
   11575:	8b 45 f8             	mov    -0x8(%ebp),%eax
   11578:	8b 00                	mov    (%eax),%eax
   1157a:	89 45 ec             	mov    %eax,-0x14(%ebp)
   1157d:	b8 80 07 00 00       	mov    $0x780,%eax
   11582:	3d d0 07 00 00       	cmp    $0x7d0,%eax
   11587:	76 15                	jbe    1159e <device.tty.Terminal.clear+0x3e>
   11589:	eb 15                	jmp    115a0 <device.tty.Terminal.clear+0x40>
   1158b:	8b 45 ec             	mov    -0x14(%ebp),%eax
   1158e:	89 c1                	mov    %eax,%ecx
   11590:	81 c1 00 0f 00 00    	add    $0xf00,%ecx
   11596:	89 4d e0             	mov    %ecx,-0x20(%ebp)
   11599:	89 45 e4             	mov    %eax,-0x1c(%ebp)
   1159c:	eb 11                	jmp    115af <device.tty.Terminal.clear+0x4f>
   1159e:	eb eb                	jmp    1158b <device.tty.Terminal.clear+0x2b>
   115a0:	b9 80 07 00 00       	mov    $0x780,%ecx
   115a5:	ba d0 07 00 00       	mov    $0x7d0,%edx
   115aa:	e8 21 05 00 00       	call   11ad0 <builtin.panicOutOfBounds>
   115af:	8b 4d e0             	mov    -0x20(%ebp),%ecx
   115b2:	8b 45 e4             	mov    -0x1c(%ebp),%eax
   115b5:	89 45 dc             	mov    %eax,-0x24(%ebp)
   115b8:	39 c8                	cmp    %ecx,%eax
   115ba:	74 10                	je     115cc <device.tty.Terminal.clear+0x6c>
   115bc:	8b 45 dc             	mov    -0x24(%ebp),%eax
   115bf:	66 c7 00 00 0f       	movw   $0xf00,(%eax)
   115c4:	83 c0 02             	add    $0x2,%eax
   115c7:	89 45 e4             	mov    %eax,-0x1c(%ebp)
   115ca:	eb e3                	jmp    115af <device.tty.Terminal.clear+0x4f>
   115cc:	8b 45 e8             	mov    -0x18(%ebp),%eax
   115cf:	89 45 fc             	mov    %eax,-0x4(%ebp)
   115d2:	8b 45 fc             	mov    -0x4(%ebp),%eax
   115d5:	66 c7 40 04 00 00    	movw   $0x0,0x4(%eax)
   115db:	83 c4 24             	add    $0x24,%esp
   115de:	5d                   	pop    %ebp
   115df:	c3                   	ret

000115e0 <device.tty.println>:
   115e0:	55                   	push   %ebp
   115e1:	89 e5                	mov    %esp,%ebp
   115e3:	56                   	push   %esi
   115e4:	83 ec 0c             	sub    $0xc,%esp
   115e7:	89 d6                	mov    %edx,%esi
   115e9:	89 f0                	mov    %esi,%eax
   115eb:	89 ca                	mov    %ecx,%edx
   115ed:	89 75 f8             	mov    %esi,-0x8(%ebp)
   115f0:	89 4d f4             	mov    %ecx,-0xc(%ebp)
   115f3:	b9 00 00 82 02       	mov    $0x2820000,%ecx
   115f8:	89 04 24             	mov    %eax,(%esp)
   115fb:	e8 e0 06 00 00       	call   11ce0 <device.tty.Terminal.write_line>
   11600:	83 c4 0c             	add    $0xc,%esp
   11603:	5e                   	pop    %esi
   11604:	5d                   	pop    %ebp
   11605:	c3                   	ret
   11606:	66 2e 0f 1f 84 00 00 	nopw   %cs:0x0(%eax,%eax,1)
   1160d:	00 00 00 

00011610 <device.tty.Terminal.write>:
   11610:	55                   	push   %ebp
   11611:	89 e5                	mov    %esp,%ebp
   11613:	53                   	push   %ebx
   11614:	57                   	push   %edi
   11615:	56                   	push   %esi
   11616:	83 ec 58             	sub    $0x58,%esp
   11619:	89 d0                	mov    %edx,%eax
   1161b:	89 ca                	mov    %ecx,%edx
   1161d:	89 55 b8             	mov    %edx,-0x48(%ebp)
   11620:	66 89 45 bc          	mov    %ax,-0x44(%ebp)
   11624:	8a 4d 10             	mov    0x10(%ebp),%cl
   11627:	88 4d bf             	mov    %cl,-0x41(%ebp)
   1162a:	8b 7d 0c             	mov    0xc(%ebp),%edi
   1162d:	8b 75 08             	mov    0x8(%ebp),%esi
   11630:	89 f9                	mov    %edi,%ecx
   11632:	89 4d c0             	mov    %ecx,-0x40(%ebp)
   11635:	89 f3                	mov    %esi,%ebx
   11637:	89 5d c4             	mov    %ebx,-0x3c(%ebp)
   1163a:	89 55 d0             	mov    %edx,-0x30(%ebp)
   1163d:	66 89 45 d6          	mov    %ax,-0x2a(%ebp)
   11641:	89 7d dc             	mov    %edi,-0x24(%ebp)
   11644:	89 75 d8             	mov    %esi,-0x28(%ebp)
   11647:	66 89 4d e2          	mov    %cx,-0x1e(%ebp)
   1164b:	89 55 e4             	mov    %edx,-0x1c(%ebp)
   1164e:	8b 55 e4             	mov    -0x1c(%ebp),%edx
   11651:	89 55 c8             	mov    %edx,-0x38(%ebp)
   11654:	66 01 c8             	add    %cx,%ax
   11657:	66 89 45 ce          	mov    %ax,-0x32(%ebp)
   1165b:	0f 92 c0             	setb   %al
   1165e:	a8 01                	test   $0x1,%al
   11660:	75 02                	jne    11664 <device.tty.Terminal.write+0x54>
   11662:	eb 23                	jmp    11687 <device.tty.Terminal.write+0x77>
   11664:	8d 0d 29 02 04 00    	lea    0x40229,%ecx
   1166a:	ba 10 00 00 00       	mov    $0x10,%edx
   1166f:	31 c0                	xor    %eax,%eax
   11671:	8d 05 e8 fd 03 00    	lea    0x3fde8,%eax
   11677:	c7 04 24 00 00 00 00 	movl   $0x0,(%esp)
   1167e:	89 44 24 04          	mov    %eax,0x4(%esp)
   11682:	e8 29 04 00 00       	call   11ab0 <builtin.default_panic>
   11687:	66 8b 45 ce          	mov    -0x32(%ebp),%ax
   1168b:	8b 4d c8             	mov    -0x38(%ebp),%ecx
   1168e:	0f b7 d0             	movzwl %ax,%edx
   11691:	e8 8a 06 00 00       	call   11d20 <device.tty.Terminal.update_cursor>
   11696:	c7 45 e8 00 00 00 00 	movl   $0x0,-0x18(%ebp)
   1169d:	eb 08                	jmp    116a7 <device.tty.Terminal.write+0x97>
   1169f:	83 c4 58             	add    $0x58,%esp
   116a2:	5e                   	pop    %esi
   116a3:	5f                   	pop    %edi
   116a4:	5b                   	pop    %ebx
   116a5:	5d                   	pop    %ebp
   116a6:	c3                   	ret
   116a7:	8b 4d c0             	mov    -0x40(%ebp),%ecx
   116aa:	8b 45 e8             	mov    -0x18(%ebp),%eax
   116ad:	89 45 b4             	mov    %eax,-0x4c(%ebp)
   116b0:	39 c8                	cmp    %ecx,%eax
   116b2:	72 0d                	jb     116c1 <device.tty.Terminal.write+0xb1>
   116b4:	eb 30                	jmp    116e6 <device.tty.Terminal.write+0xd6>
   116b6:	8b 45 b4             	mov    -0x4c(%ebp),%eax
   116b9:	83 c0 01             	add    $0x1,%eax
   116bc:	89 45 e8             	mov    %eax,-0x18(%ebp)
   116bf:	eb e6                	jmp    116a7 <device.tty.Terminal.write+0x97>
   116c1:	8b 4d b4             	mov    -0x4c(%ebp),%ecx
   116c4:	66 8b 45 bc          	mov    -0x44(%ebp),%ax
   116c8:	8b 55 b8             	mov    -0x48(%ebp),%edx
   116cb:	89 4d ec             	mov    %ecx,-0x14(%ebp)
   116ce:	89 55 f0             	mov    %edx,-0x10(%ebp)
   116d1:	8b 55 f0             	mov    -0x10(%ebp),%edx
   116d4:	89 55 ac             	mov    %edx,-0x54(%ebp)
   116d7:	0f b7 c0             	movzwl %ax,%eax
   116da:	01 c8                	add    %ecx,%eax
   116dc:	89 45 b0             	mov    %eax,-0x50(%ebp)
   116df:	0f 92 c0             	setb   %al
   116e2:	72 04                	jb     116e8 <device.tty.Terminal.write+0xd8>
   116e4:	eb 25                	jmp    1170b <device.tty.Terminal.write+0xfb>
   116e6:	eb b7                	jmp    1169f <device.tty.Terminal.write+0x8f>
   116e8:	8d 0d 29 02 04 00    	lea    0x40229,%ecx
   116ee:	ba 10 00 00 00       	mov    $0x10,%edx
   116f3:	31 c0                	xor    %eax,%eax
   116f5:	8d 05 e8 fd 03 00    	lea    0x3fde8,%eax
   116fb:	c7 04 24 00 00 00 00 	movl   $0x0,(%esp)
   11702:	89 44 24 04          	mov    %eax,0x4(%esp)
   11706:	e8 a5 03 00 00       	call   11ab0 <builtin.default_panic>
   1170b:	8b 45 b0             	mov    -0x50(%ebp),%eax
   1170e:	8b 4d ac             	mov    -0x54(%ebp),%ecx
   11711:	8b 09                	mov    (%ecx),%ecx
   11713:	89 4d a8             	mov    %ecx,-0x58(%ebp)
   11716:	3d d0 07 00 00       	cmp    $0x7d0,%eax
   1171b:	72 1b                	jb     11738 <device.tty.Terminal.write+0x128>
   1171d:	eb 1b                	jmp    1173a <device.tty.Terminal.write+0x12a>
   1171f:	8b 45 b4             	mov    -0x4c(%ebp),%eax
   11722:	8b 4d c0             	mov    -0x40(%ebp),%ecx
   11725:	8b 55 a8             	mov    -0x58(%ebp),%edx
   11728:	8b 75 b0             	mov    -0x50(%ebp),%esi
   1172b:	d1 e6                	shl    $1,%esi
   1172d:	01 f2                	add    %esi,%edx
   1172f:	89 55 a4             	mov    %edx,-0x5c(%ebp)
   11732:	39 c8                	cmp    %ecx,%eax
   11734:	72 3b                	jb     11771 <device.tty.Terminal.write+0x161>
   11736:	eb 3b                	jmp    11773 <device.tty.Terminal.write+0x163>
   11738:	eb e5                	jmp    1171f <device.tty.Terminal.write+0x10f>
   1173a:	8b 4d b0             	mov    -0x50(%ebp),%ecx
   1173d:	ba d0 07 00 00       	mov    $0x7d0,%edx
   11742:	e8 89 03 00 00       	call   11ad0 <builtin.panicOutOfBounds>
   11747:	8b 45 a4             	mov    -0x5c(%ebp),%eax
   1174a:	8a 55 bf             	mov    -0x41(%ebp),%dl
   1174d:	8b 4d c4             	mov    -0x3c(%ebp),%ecx
   11750:	8b 75 b4             	mov    -0x4c(%ebp),%esi
   11753:	0f b6 0c 31          	movzbl (%ecx,%esi,1),%ecx
   11757:	66 c1 e1 00          	shl    $0x0,%cx
   1175b:	66 83 c9 00          	or     $0x0,%cx
   1175f:	0f b6 d2             	movzbl %dl,%edx
   11762:	66 c1 e2 08          	shl    $0x8,%dx
   11766:	66 09 d1             	or     %dx,%cx
   11769:	66 89 08             	mov    %cx,(%eax)
   1176c:	e9 45 ff ff ff       	jmp    116b6 <device.tty.Terminal.write+0xa6>
   11771:	eb d4                	jmp    11747 <device.tty.Terminal.write+0x137>
   11773:	8b 55 c0             	mov    -0x40(%ebp),%edx
   11776:	8b 4d b4             	mov    -0x4c(%ebp),%ecx
   11779:	e8 52 03 00 00       	call   11ad0 <builtin.panicOutOfBounds>
   1177e:	66 90                	xchg   %ax,%ax

00011780 <sys.x86.pci.scan_device>:
   11780:	55                   	push   %ebp
   11781:	89 e5                	mov    %esp,%ebp
   11783:	53                   	push   %ebx
   11784:	57                   	push   %edi
   11785:	56                   	push   %esi
   11786:	83 e4 f0             	and    $0xfffffff0,%esp
   11789:	81 ec d0 00 00 00    	sub    $0xd0,%esp
   1178f:	88 d0                	mov    %dl,%al
   11791:	88 44 24 40          	mov    %al,0x40(%esp)
   11795:	88 4c 24 41          	mov    %cl,0x41(%esp)
   11799:	80 e1 1f             	and    $0x1f,%cl
   1179c:	88 4c 24 42          	mov    %cl,0x42(%esp)
   117a0:	88 44 24 43          	mov    %al,0x43(%esp)
   117a4:	8d 44 24 44          	lea    0x44(%esp),%eax
   117a8:	89 04 24             	mov    %eax,(%esp)
   117ab:	c7 44 24 04 aa 00 00 	movl   $0xaa,0x4(%esp)
   117b2:	00 
   117b3:	c7 44 24 08 30 00 00 	movl   $0x30,0x8(%esp)
   117ba:	00 
   117bb:	e8 80 b9 02 00       	call   3d140 <memset>
   117c0:	c7 44 24 74 00 00 00 	movl   $0x0,0x74(%esp)
   117c7:	00 
   117c8:	e9 e9 00 00 00       	jmp    118b6 <sys.x86.pci.scan_device+0x136>
   117cd:	8d 84 24 90 00 00 00 	lea    0x90(%esp),%eax
   117d4:	89 84 24 c4 00 00 00 	mov    %eax,0xc4(%esp)
   117db:	8b 44 24 64          	mov    0x64(%esp),%eax
   117df:	89 44 24 3c          	mov    %eax,0x3c(%esp)
   117e3:	8b 4c 24 68          	mov    0x68(%esp),%ecx
   117e7:	8b 54 24 6c          	mov    0x6c(%esp),%edx
   117eb:	8b 74 24 70          	mov    0x70(%esp),%esi
   117ef:	8b 7c 24 44          	mov    0x44(%esp),%edi
   117f3:	8b 5c 24 48          	mov    0x48(%esp),%ebx
   117f7:	8b 44 24 4c          	mov    0x4c(%esp),%eax
   117fb:	89 44 24 38          	mov    %eax,0x38(%esp)
   117ff:	8b 44 24 50          	mov    0x50(%esp),%eax
   11803:	89 44 24 34          	mov    %eax,0x34(%esp)
   11807:	8b 44 24 54          	mov    0x54(%esp),%eax
   1180b:	89 44 24 30          	mov    %eax,0x30(%esp)
   1180f:	8b 44 24 58          	mov    0x58(%esp),%eax
   11813:	89 44 24 2c          	mov    %eax,0x2c(%esp)
   11817:	8b 44 24 5c          	mov    0x5c(%esp),%eax
   1181b:	89 44 24 28          	mov    %eax,0x28(%esp)
   1181f:	8b 44 24 60          	mov    0x60(%esp),%eax
   11823:	89 84 24 ac 00 00 00 	mov    %eax,0xac(%esp)
   1182a:	8b 44 24 28          	mov    0x28(%esp),%eax
   1182e:	89 84 24 a8 00 00 00 	mov    %eax,0xa8(%esp)
   11835:	8b 44 24 2c          	mov    0x2c(%esp),%eax
   11839:	89 84 24 a4 00 00 00 	mov    %eax,0xa4(%esp)
   11840:	8b 44 24 30          	mov    0x30(%esp),%eax
   11844:	89 84 24 a0 00 00 00 	mov    %eax,0xa0(%esp)
   1184b:	8b 44 24 34          	mov    0x34(%esp),%eax
   1184f:	89 84 24 9c 00 00 00 	mov    %eax,0x9c(%esp)
   11856:	8b 44 24 38          	mov    0x38(%esp),%eax
   1185a:	89 84 24 98 00 00 00 	mov    %eax,0x98(%esp)
   11861:	8b 44 24 3c          	mov    0x3c(%esp),%eax
   11865:	89 9c 24 94 00 00 00 	mov    %ebx,0x94(%esp)
   1186c:	89 bc 24 90 00 00 00 	mov    %edi,0x90(%esp)
   11873:	89 b4 24 bc 00 00 00 	mov    %esi,0xbc(%esp)
   1187a:	89 94 24 b8 00 00 00 	mov    %edx,0xb8(%esp)
   11881:	89 8c 24 b4 00 00 00 	mov    %ecx,0xb4(%esp)
   11888:	89 84 24 b0 00 00 00 	mov    %eax,0xb0(%esp)
   1188f:	8d 84 24 90 00 00 00 	lea    0x90(%esp),%eax
   11896:	89 84 24 c8 00 00 00 	mov    %eax,0xc8(%esp)
   1189d:	8b 8c 24 c4 00 00 00 	mov    0xc4(%esp),%ecx
   118a4:	e8 f7 05 00 00       	call   11ea0 <sys.x86.pci.PCIDevice.exists>
   118a9:	a8 01                	test   $0x1,%al
   118ab:	0f 85 ef 00 00 00    	jne    119a0 <sys.x86.pci.scan_device+0x220>
   118b1:	e9 0c 01 00 00       	jmp    119c2 <sys.x86.pci.scan_device+0x242>
   118b6:	8b 44 24 74          	mov    0x74(%esp),%eax
   118ba:	89 44 24 24          	mov    %eax,0x24(%esp)
   118be:	83 f8 0c             	cmp    $0xc,%eax
   118c1:	72 0f                	jb     118d2 <sys.x86.pci.scan_device+0x152>
   118c3:	eb 4b                	jmp    11910 <sys.x86.pci.scan_device+0x190>
   118c5:	8b 44 24 24          	mov    0x24(%esp),%eax
   118c9:	83 c0 01             	add    $0x1,%eax
   118cc:	89 44 24 74          	mov    %eax,0x74(%esp)
   118d0:	eb e4                	jmp    118b6 <sys.x86.pci.scan_device+0x136>
   118d2:	8a 44 24 40          	mov    0x40(%esp),%al
   118d6:	8a 4c 24 41          	mov    0x41(%esp),%cl
   118da:	8b 54 24 24          	mov    0x24(%esp),%edx
   118de:	89 54 24 78          	mov    %edx,0x78(%esp)
   118e2:	0f b6 f2             	movzbl %dl,%esi
   118e5:	89 e2                	mov    %esp,%edx
   118e7:	89 32                	mov    %esi,(%edx)
   118e9:	0f b6 c9             	movzbl %cl,%ecx
   118ec:	0f b6 d0             	movzbl %al,%edx
   118ef:	e8 1c 05 00 00       	call   11e10 <sys.x86.pci.ConfigurationAddress.create>
   118f4:	89 44 24 7c          	mov    %eax,0x7c(%esp)
   118f8:	66 c7 84 24 82 00 00 	movw   $0xcf8,0x82(%esp)
   118ff:	00 f8 0c 
   11902:	89 84 24 84 00 00 00 	mov    %eax,0x84(%esp)
   11909:	66 ba f8 0c          	mov    $0xcf8,%dx
   1190d:	ef                   	out    %eax,(%dx)
   1190e:	eb 05                	jmp    11915 <sys.x86.pci.scan_device+0x195>
   11910:	e9 b8 fe ff ff       	jmp    117cd <sys.x86.pci.scan_device+0x4d>
   11915:	66 c7 84 24 8a 00 00 	movw   $0xcfc,0x8a(%esp)
   1191c:	00 fc 0c 
   1191f:	66 ba fc 0c          	mov    $0xcfc,%dx
   11923:	ed                   	in     (%dx),%eax
   11924:	89 44 24 20          	mov    %eax,0x20(%esp)
   11928:	8b 44 24 24          	mov    0x24(%esp),%eax
   1192c:	8b 4c 24 20          	mov    0x20(%esp),%ecx
   11930:	89 4c 24 1c          	mov    %ecx,0x1c(%esp)
   11934:	89 8c 24 8c 00 00 00 	mov    %ecx,0x8c(%esp)
   1193b:	83 f8 0c             	cmp    $0xc,%eax
   1193e:	72 15                	jb     11955 <sys.x86.pci.scan_device+0x1d5>
   11940:	eb 15                	jmp    11957 <sys.x86.pci.scan_device+0x1d7>
   11942:	8b 44 24 24          	mov    0x24(%esp),%eax
   11946:	8b 4c 24 1c          	mov    0x1c(%esp),%ecx
   1194a:	89 4c 84 44          	mov    %ecx,0x44(%esp,%eax,4)
   1194e:	83 f8 00             	cmp    $0x0,%eax
   11951:	74 21                	je     11974 <sys.x86.pci.scan_device+0x1f4>
   11953:	eb 31                	jmp    11986 <sys.x86.pci.scan_device+0x206>
   11955:	eb eb                	jmp    11942 <sys.x86.pci.scan_device+0x1c2>
   11957:	8b 4c 24 24          	mov    0x24(%esp),%ecx
   1195b:	ba 0c 00 00 00       	mov    $0xc,%edx
   11960:	e8 6b 01 00 00       	call   11ad0 <builtin.panicOutOfBounds>
   11965:	e9 5b ff ff ff       	jmp    118c5 <sys.x86.pci.scan_device+0x145>
   1196a:	8a 44 24 1b          	mov    0x1b(%esp),%al
   1196e:	a8 01                	test   $0x1,%al
   11970:	75 1c                	jne    1198e <sys.x86.pci.scan_device+0x20e>
   11972:	eb 22                	jmp    11996 <sys.x86.pci.scan_device+0x216>
   11974:	8b 44 24 1c          	mov    0x1c(%esp),%eax
   11978:	3d ff ff 00 00       	cmp    $0xffff,%eax
   1197d:	0f 94 c0             	sete   %al
   11980:	88 44 24 1b          	mov    %al,0x1b(%esp)
   11984:	eb e4                	jmp    1196a <sys.x86.pci.scan_device+0x1ea>
   11986:	31 c0                	xor    %eax,%eax
   11988:	88 44 24 1b          	mov    %al,0x1b(%esp)
   1198c:	eb dc                	jmp    1196a <sys.x86.pci.scan_device+0x1ea>
   1198e:	8d 65 f4             	lea    -0xc(%ebp),%esp
   11991:	5e                   	pop    %esi
   11992:	5f                   	pop    %edi
   11993:	5b                   	pop    %ebx
   11994:	5d                   	pop    %ebp
   11995:	c3                   	ret
   11996:	eb cd                	jmp    11965 <sys.x86.pci.scan_device+0x1e5>
   11998:	8d 65 f4             	lea    -0xc(%ebp),%esp
   1199b:	5e                   	pop    %esi
   1199c:	5f                   	pop    %edi
   1199d:	5b                   	pop    %ebx
   1199e:	5d                   	pop    %ebp
   1199f:	c3                   	ret
   119a0:	8a 54 24 40          	mov    0x40(%esp),%dl
   119a4:	8a 4c 24 41          	mov    0x41(%esp),%cl
   119a8:	80 e1 1f             	and    $0x1f,%cl
   119ab:	8d 84 24 90 00 00 00 	lea    0x90(%esp),%eax
   119b2:	0f b6 c9             	movzbl %cl,%ecx
   119b5:	0f b6 d2             	movzbl %dl,%edx
   119b8:	89 04 24             	mov    %eax,(%esp)
   119bb:	e8 00 05 00 00       	call   11ec0 <sys.x86.pci.print_device_found>
   119c0:	eb d6                	jmp    11998 <sys.x86.pci.scan_device+0x218>
   119c2:	eb d4                	jmp    11998 <sys.x86.pci.scan_device+0x218>
   119c4:	66 2e 0f 1f 84 00 00 	nopw   %cs:0x0(%eax,%eax,1)
   119cb:	00 00 00 
   119ce:	66 90                	xchg   %ax,%ax

000119d0 <io.shell.Shell.init>:
   119d0:	55                   	push   %ebp
   119d1:	89 e5                	mov    %esp,%ebp
   119d3:	83 ec 10             	sub    $0x10,%esp
   119d6:	89 c8                	mov    %ecx,%eax
   119d8:	89 45 fc             	mov    %eax,-0x4(%ebp)
   119db:	8d 05 5e f7 03 00    	lea    0x3f75e,%eax
   119e1:	89 0c 24             	mov    %ecx,(%esp)
   119e4:	89 44 24 04          	mov    %eax,0x4(%esp)
   119e8:	c7 44 24 08 02 01 00 	movl   $0x102,0x8(%esp)
   119ef:	00 
   119f0:	e8 5b b6 02 00       	call   3d050 <memcpy>
   119f5:	8b 45 fc             	mov    -0x4(%ebp),%eax
   119f8:	83 c4 10             	add    $0x10,%esp
   119fb:	5d                   	pop    %ebp
   119fc:	c3                   	ret
   119fd:	0f 1f 00             	nopl   (%eax)

00011a00 <io.shell.show_prompt>:
   11a00:	55                   	push   %ebp
   11a01:	89 e5                	mov    %esp,%ebp
   11a03:	b9 c1 01 04 00       	mov    $0x401c1,%ecx
   11a08:	ba 01 00 00 00       	mov    $0x1,%edx
   11a0d:	e8 ce fb ff ff       	call   115e0 <device.tty.println>
   11a12:	5d                   	pop    %ebp
   11a13:	c3                   	ret
   11a14:	66 2e 0f 1f 84 00 00 	nopw   %cs:0x0(%eax,%eax,1)
   11a1b:	00 00 00 
   11a1e:	66 90                	xchg   %ax,%ax

00011a20 <io.shell.tick>:
   11a20:	55                   	push   %ebp
   11a21:	89 e5                	mov    %esp,%ebp
   11a23:	83 ec 10             	sub    $0x10,%esp
   11a26:	8d 4d fd             	lea    -0x3(%ebp),%ecx
   11a29:	e8 82 05 00 00       	call   11fb0 <device.keyboard.poll>
   11a2e:	80 7d fe 00          	cmpb   $0x0,-0x2(%ebp)
   11a32:	75 07                	jne    11a3b <io.shell.tick+0x1b>
   11a34:	eb 0d                	jmp    11a43 <io.shell.tick+0x23>
   11a36:	83 c4 10             	add    $0x10,%esp
   11a39:	5d                   	pop    %ebp
   11a3a:	c3                   	ret
   11a3b:	80 7d fe 00          	cmpb   $0x0,-0x2(%ebp)
   11a3f:	75 13                	jne    11a54 <io.shell.tick+0x34>
   11a41:	eb 19                	jmp    11a5c <io.shell.tick+0x3c>
   11a43:	eb f1                	jmp    11a36 <io.shell.tick+0x16>
   11a45:	8a 45 fb             	mov    -0x5(%ebp),%al
   11a48:	88 45 fc             	mov    %al,-0x4(%ebp)
   11a4b:	88 45 ff             	mov    %al,-0x1(%ebp)
   11a4e:	3c 1c                	cmp    $0x1c,%al
   11a50:	74 2e                	je     11a80 <io.shell.tick+0x60>
   11a52:	eb 33                	jmp    11a87 <io.shell.tick+0x67>
   11a54:	8a 45 fd             	mov    -0x3(%ebp),%al
   11a57:	88 45 fb             	mov    %al,-0x5(%ebp)
   11a5a:	eb e9                	jmp    11a45 <io.shell.tick+0x25>
   11a5c:	b9 5c 02 04 00       	mov    $0x4025c,%ecx
   11a61:	ba 18 00 00 00       	mov    $0x18,%edx
   11a66:	31 c0                	xor    %eax,%eax
   11a68:	8d 05 e8 fd 03 00    	lea    0x3fde8,%eax
   11a6e:	c7 04 24 00 00 00 00 	movl   $0x0,(%esp)
   11a75:	89 44 24 04          	mov    %eax,0x4(%esp)
   11a79:	e8 32 00 00 00       	call   11ab0 <builtin.default_panic>
   11a7e:	eb b6                	jmp    11a36 <io.shell.tick+0x16>
   11a80:	e8 0b 06 00 00       	call   12090 <io.shell.execute_command>
   11a85:	eb f7                	jmp    11a7e <io.shell.tick+0x5e>
   11a87:	8a 45 fc             	mov    -0x4(%ebp),%al
   11a8a:	b9 00 00 81 02       	mov    $0x2810000,%ecx
   11a8f:	0f b6 d0             	movzbl %al,%edx
   11a92:	e8 e9 06 00 00       	call   12180 <io.shell.Shell.push>
   11a97:	8a 45 fc             	mov    -0x4(%ebp),%al
   11a9a:	0f b6 c8             	movzbl %al,%ecx
   11a9d:	e8 7e 07 00 00       	call   12220 <device.tty.print_at_cursor>
   11aa2:	eb da                	jmp    11a7e <io.shell.tick+0x5e>
   11aa4:	66 2e 0f 1f 84 00 00 	nopw   %cs:0x0(%eax,%eax,1)
   11aab:	00 00 00 
   11aae:	66 90                	xchg   %ax,%ax

00011ab0 <builtin.default_panic>:
   11ab0:	55                   	push   %ebp
   11ab1:	89 e5                	mov    %esp,%ebp
   11ab3:	83 ec 08             	sub    $0x8,%esp
   11ab6:	8b 45 08             	mov    0x8(%ebp),%eax
   11ab9:	89 55 fc             	mov    %edx,-0x4(%ebp)
   11abc:	89 4d f8             	mov    %ecx,-0x8(%ebp)
   11abf:	cc                   	int3
   11ac0:	eb fd                	jmp    11abf <builtin.default_panic+0xf>
   11ac2:	66 2e 0f 1f 84 00 00 	nopw   %cs:0x0(%eax,%eax,1)
   11ac9:	00 00 00 
   11acc:	0f 1f 40 00          	nopl   0x0(%eax)

00011ad0 <builtin.panicOutOfBounds>:
   11ad0:	55                   	push   %ebp
   11ad1:	89 e5                	mov    %esp,%ebp
   11ad3:	83 ec 1c             	sub    $0x1c,%esp
   11ad6:	89 4d e8             	mov    %ecx,-0x18(%ebp)
   11ad9:	89 55 ec             	mov    %edx,-0x14(%ebp)
   11adc:	8b 45 04             	mov    0x4(%ebp),%eax
   11adf:	89 45 f0             	mov    %eax,-0x10(%ebp)
   11ae2:	c6 45 f4 01          	movb   $0x1,-0xc(%ebp)
   11ae6:	89 4d f8             	mov    %ecx,-0x8(%ebp)
   11ae9:	89 55 fc             	mov    %edx,-0x4(%ebp)
   11aec:	31 c9                	xor    %ecx,%ecx
   11aee:	8d 55 f0             	lea    -0x10(%ebp),%edx
   11af1:	8d 45 f8             	lea    -0x8(%ebp),%eax
   11af4:	89 04 24             	mov    %eax,(%esp)
   11af7:	e8 74 07 00 00       	call   12270 <debug.panicExtra__anon_1147>
   11afc:	0f 1f 40 00          	nopl   0x0(%eax)

00011b00 <sys.x86.paging.PageTableEntry.create>:
   11b00:	55                   	push   %ebp
   11b01:	89 e5                	mov    %esp,%ebp
   11b03:	83 ec 08             	sub    $0x8,%esp
   11b06:	88 d0                	mov    %dl,%al
   11b08:	66 89 ca             	mov    %cx,%dx
   11b0b:	66 89 55 f8          	mov    %dx,-0x8(%ebp)
   11b0f:	81 e1 ff ff 0f 00    	and    $0xfffff,%ecx
   11b15:	89 ca                	mov    %ecx,%edx
   11b17:	c1 ea 10             	shr    $0x10,%edx
   11b1a:	88 55 fa             	mov    %dl,-0x6(%ebp)
   11b1d:	88 c2                	mov    %al,%dl
   11b1f:	80 e2 01             	and    $0x1,%dl
   11b22:	88 55 ff             	mov    %dl,-0x1(%ebp)
   11b25:	0f b6 c0             	movzbl %al,%eax
   11b28:	83 e0 01             	and    $0x1,%eax
   11b2b:	8d 44 00 01          	lea    0x1(%eax,%eax,1),%eax
   11b2f:	c1 e1 0c             	shl    $0xc,%ecx
   11b32:	09 c8                	or     %ecx,%eax
   11b34:	83 c4 08             	add    $0x8,%esp
   11b37:	5d                   	pop    %ebp
   11b38:	c3                   	ret
   11b39:	0f 1f 80 00 00 00 00 	nopl   0x0(%eax)

00011b40 <sys.x86.paging.PageDirectoryEntry.create>:
   11b40:	55                   	push   %ebp
   11b41:	89 e5                	mov    %esp,%ebp
   11b43:	83 ec 08             	sub    $0x8,%esp
   11b46:	88 d0                	mov    %dl,%al
   11b48:	66 89 ca             	mov    %cx,%dx
   11b4b:	66 89 55 f8          	mov    %dx,-0x8(%ebp)
   11b4f:	81 e1 ff ff 0f 00    	and    $0xfffff,%ecx
   11b55:	89 ca                	mov    %ecx,%edx
   11b57:	c1 ea 10             	shr    $0x10,%edx
   11b5a:	88 55 fa             	mov    %dl,-0x6(%ebp)
   11b5d:	88 c2                	mov    %al,%dl
   11b5f:	80 e2 01             	and    $0x1,%dl
   11b62:	88 55 ff             	mov    %dl,-0x1(%ebp)
   11b65:	0f b6 c0             	movzbl %al,%eax
   11b68:	83 e0 01             	and    $0x1,%eax
   11b6b:	8d 44 00 01          	lea    0x1(%eax,%eax,1),%eax
   11b6f:	c1 e1 0c             	shl    $0xc,%ecx
   11b72:	09 c8                	or     %ecx,%eax
   11b74:	83 c4 08             	add    $0x8,%esp
   11b77:	5d                   	pop    %ebp
   11b78:	c3                   	ret
   11b79:	0f 1f 80 00 00 00 00 	nopl   0x0(%eax)

00011b80 <sys.x86.interrupt.InterruptDescriptorTableEntry.none>:
   11b80:	55                   	push   %ebp
   11b81:	89 e5                	mov    %esp,%ebp
   11b83:	b8 00 00 08 00       	mov    $0x80000,%eax
   11b88:	ba 00 6e 00 00       	mov    $0x6e00,%edx
   11b8d:	5d                   	pop    %ebp
   11b8e:	c3                   	ret
   11b8f:	90                   	nop

00011b90 <sys.x86.interrupt.InterruptDescriptorTableEntry.with_isr>:
   11b90:	55                   	push   %ebp
   11b91:	89 e5                	mov    %esp,%ebp
   11b93:	83 ec 08             	sub    $0x8,%esp
   11b96:	89 ca                	mov    %ecx,%edx
   11b98:	89 55 f8             	mov    %edx,-0x8(%ebp)
   11b9b:	89 55 fc             	mov    %edx,-0x4(%ebp)
   11b9e:	66 89 d0             	mov    %dx,%ax
   11ba1:	0f b7 c0             	movzwl %ax,%eax
   11ba4:	81 e2 00 00 ff ff    	and    $0xffff0000,%edx
   11baa:	81 ca 00 ee 00 00    	or     $0xee00,%edx
   11bb0:	0d 00 00 08 00       	or     $0x80000,%eax
   11bb5:	83 c4 08             	add    $0x8,%esp
   11bb8:	5d                   	pop    %ebp
   11bb9:	c3                   	ret
   11bba:	66 0f 1f 44 00 00    	nopw   0x0(%eax,%eax,1)

00011bc0 <device.keyboard.handle_kb_input>:
   11bc0:	60                   	pusha
   11bc1:	89 e5                	mov    %esp,%ebp
   11bc3:	c6 45 f7 00          	movb   $0x0,-0x9(%ebp)
   11bc7:	c7 45 f8 00 00 00 00 	movl   $0x0,-0x8(%ebp)
   11bce:	e4 60                	in     $0x60,%al
   11bd0:	88 45 f7             	mov    %al,-0x9(%ebp)
   11bd3:	80 7d f7 1c          	cmpb   $0x1c,-0x9(%ebp)
   11bd7:	74 0e                	je     11be7 <device.keyboard.handle_kb_input+0x27>
   11bd9:	eb 54                	jmp    11c2f <device.keyboard.handle_kb_input+0x6f>
   11bdb:	b8 20 00 00 00       	mov    $0x20,%eax
   11be0:	e6 20                	out    %al,$0x20
   11be2:	e9 c8 00 00 00       	jmp    11caf <device.keyboard.handle_kb_input+0xef>
   11be7:	b8 00 00 80 02       	mov    $0x2800000,%eax
   11bec:	8b 08                	mov    (%eax),%ecx
   11bee:	b8 0c 00 80 02       	mov    $0x280000c,%eax
   11bf3:	c6 04 08 1c          	movb   $0x1c,(%eax,%ecx,1)
   11bf7:	b8 00 00 80 02       	mov    $0x2800000,%eax
   11bfc:	8b 08                	mov    (%eax),%ecx
   11bfe:	83 c1 01             	add    $0x1,%ecx
   11c01:	b8 00 00 80 02       	mov    $0x2800000,%eax
   11c06:	89 08                	mov    %ecx,(%eax)
   11c08:	b8 04 00 80 02       	mov    $0x2800004,%eax
   11c0d:	8b 08                	mov    (%eax),%ecx
   11c0f:	83 c1 01             	add    $0x1,%ecx
   11c12:	b8 04 00 80 02       	mov    $0x2800004,%eax
   11c17:	89 08                	mov    %ecx,(%eax)
   11c19:	b8 04 00 80 02       	mov    $0x2800004,%eax
   11c1e:	8b 08                	mov    (%eax),%ecx
   11c20:	81 e1 ff 03 00 00    	and    $0x3ff,%ecx
   11c26:	b8 04 00 80 02       	mov    $0x2800004,%eax
   11c2b:	89 08                	mov    %ecx,(%eax)
   11c2d:	eb ac                	jmp    11bdb <device.keyboard.handle_kb_input+0x1b>
   11c2f:	80 7d f7 58          	cmpb   $0x58,-0x9(%ebp)
   11c33:	76 04                	jbe    11c39 <device.keyboard.handle_kb_input+0x79>
   11c35:	eb 76                	jmp    11cad <device.keyboard.handle_kb_input+0xed>
   11c37:	eb a2                	jmp    11bdb <device.keyboard.handle_kb_input+0x1b>
   11c39:	b8 00 00 80 02       	mov    $0x2800000,%eax
   11c3e:	8b 00                	mov    (%eax),%eax
   11c40:	89 45 f8             	mov    %eax,-0x8(%ebp)
   11c43:	0f b6 45 f7          	movzbl -0x9(%ebp),%eax
   11c47:	0f b6 04 05 64 f8 03 	movzbl 0x3f864(,%eax,1),%eax
   11c4e:	00 
   11c4f:	66 89 45 fe          	mov    %ax,-0x2(%ebp)
   11c53:	8b 4d f8             	mov    -0x8(%ebp),%ecx
   11c56:	83 c1 01             	add    $0x1,%ecx
   11c59:	89 4d f8             	mov    %ecx,-0x8(%ebp)
   11c5c:	b9 00 00 80 02       	mov    $0x2800000,%ecx
   11c61:	8b 09                	mov    (%ecx),%ecx
   11c63:	88 c2                	mov    %al,%dl
   11c65:	b8 0c 00 80 02       	mov    $0x280000c,%eax
   11c6a:	88 14 08             	mov    %dl,(%eax,%ecx,1)
   11c6d:	b8 00 00 80 02       	mov    $0x2800000,%eax
   11c72:	8b 08                	mov    (%eax),%ecx
   11c74:	83 c1 01             	add    $0x1,%ecx
   11c77:	b8 00 00 80 02       	mov    $0x2800000,%eax
   11c7c:	89 08                	mov    %ecx,(%eax)
   11c7e:	b8 04 00 80 02       	mov    $0x2800004,%eax
   11c83:	8b 08                	mov    (%eax),%ecx
   11c85:	83 c1 01             	add    $0x1,%ecx
   11c88:	b8 04 00 80 02       	mov    $0x2800004,%eax
   11c8d:	89 08                	mov    %ecx,(%eax)
   11c8f:	b8 04 00 80 02       	mov    $0x2800004,%eax
   11c94:	8b 08                	mov    (%eax),%ecx
   11c96:	81 e1 ff 03 00 00    	and    $0x3ff,%ecx
   11c9c:	b8 04 00 80 02       	mov    $0x2800004,%eax
   11ca1:	89 08                	mov    %ecx,(%eax)
   11ca3:	8b 45 f8             	mov    -0x8(%ebp),%eax
   11ca6:	a3 00 00 80 02       	mov    %eax,0x2800000
   11cab:	eb 8a                	jmp    11c37 <device.keyboard.handle_kb_input+0x77>
   11cad:	eb 88                	jmp    11c37 <device.keyboard.handle_kb_input+0x77>
   11caf:	61                   	popa
   11cb0:	cf                   	iret
   11cb1:	0f 0b                	ud2
   11cb3:	66 2e 0f 1f 84 00 00 	nopw   %cs:0x0(%eax,%eax,1)
   11cba:	00 00 00 
   11cbd:	0f 1f 00             	nopl   (%eax)

00011cc0 <sys.x86.interrupt.InterruptDescriptorTableEntry.panic>:
   11cc0:	55                   	push   %ebp
   11cc1:	89 e5                	mov    %esp,%ebp
   11cc3:	b9 90 24 01 00       	mov    $0x12490,%ecx
   11cc8:	e8 c3 fe ff ff       	call   11b90 <sys.x86.interrupt.InterruptDescriptorTableEntry.with_isr>
   11ccd:	5d                   	pop    %ebp
   11cce:	c3                   	ret
   11ccf:	90                   	nop

00011cd0 <sys.x86.interrupt.InterruptDescriptorTableEntry.noop>:
   11cd0:	55                   	push   %ebp
   11cd1:	89 e5                	mov    %esp,%ebp
   11cd3:	b9 a0 24 01 00       	mov    $0x124a0,%ecx
   11cd8:	e8 b3 fe ff ff       	call   11b90 <sys.x86.interrupt.InterruptDescriptorTableEntry.with_isr>
   11cdd:	5d                   	pop    %ebp
   11cde:	c3                   	ret
   11cdf:	90                   	nop

00011ce0 <device.tty.Terminal.write_line>:
   11ce0:	55                   	push   %ebp
   11ce1:	89 e5                	mov    %esp,%ebp
   11ce3:	57                   	push   %edi
   11ce4:	56                   	push   %esi
   11ce5:	83 ec 14             	sub    $0x14,%esp
   11ce8:	8b 7d 08             	mov    0x8(%ebp),%edi
   11ceb:	89 f8                	mov    %edi,%eax
   11ced:	89 d6                	mov    %edx,%esi
   11cef:	89 4d ec             	mov    %ecx,-0x14(%ebp)
   11cf2:	89 7d f4             	mov    %edi,-0xc(%ebp)
   11cf5:	89 55 f0             	mov    %edx,-0x10(%ebp)
   11cf8:	66 8b 51 04          	mov    0x4(%ecx),%dx
   11cfc:	b9 00 00 82 02       	mov    $0x2820000,%ecx
   11d01:	0f b7 d2             	movzwl %dx,%edx
   11d04:	89 34 24             	mov    %esi,(%esp)
   11d07:	89 44 24 04          	mov    %eax,0x4(%esp)
   11d0b:	e8 a0 07 00 00       	call   124b0 <device.tty.Terminal.write_at_row>
   11d10:	83 c4 14             	add    $0x14,%esp
   11d13:	5e                   	pop    %esi
   11d14:	5f                   	pop    %edi
   11d15:	5d                   	pop    %ebp
   11d16:	c3                   	ret
   11d17:	66 0f 1f 84 00 00 00 	nopw   0x0(%eax,%eax,1)
   11d1e:	00 00 

00011d20 <device.tty.Terminal.update_cursor>:
   11d20:	55                   	push   %ebp
   11d21:	89 e5                	mov    %esp,%ebp
   11d23:	83 ec 2c             	sub    $0x2c,%esp
   11d26:	89 c8                	mov    %ecx,%eax
   11d28:	66 89 d1             	mov    %dx,%cx
   11d2b:	66 89 4d e2          	mov    %cx,-0x1e(%ebp)
   11d2f:	89 45 e4             	mov    %eax,-0x1c(%ebp)
   11d32:	66 89 4d ea          	mov    %cx,-0x16(%ebp)
   11d36:	89 45 ec             	mov    %eax,-0x14(%ebp)
   11d39:	8b 45 ec             	mov    -0x14(%ebp),%eax
   11d3c:	66 89 48 06          	mov    %cx,0x6(%eax)
   11d40:	66 c7 45 f0 d4 03    	movw   $0x3d4,-0x10(%ebp)
   11d46:	c6 45 f3 0f          	movb   $0xf,-0xd(%ebp)
   11d4a:	b0 0f                	mov    $0xf,%al
   11d4c:	66 ba d4 03          	mov    $0x3d4,%dx
   11d50:	ee                   	out    %al,(%dx)
   11d51:	66 8b 45 e2          	mov    -0x1e(%ebp),%ax
   11d55:	66 25 ff 00          	and    $0xff,%ax
   11d59:	66 89 45 e0          	mov    %ax,-0x20(%ebp)
   11d5d:	66 3d ff 00          	cmp    $0xff,%ax
   11d61:	76 16                	jbe    11d79 <device.tty.Terminal.update_cursor+0x59>
   11d63:	eb 16                	jmp    11d7b <device.tty.Terminal.update_cursor+0x5b>
   11d65:	66 8b 45 e0          	mov    -0x20(%ebp),%ax
   11d69:	66 c7 45 f4 d5 03    	movw   $0x3d5,-0xc(%ebp)
   11d6f:	88 45 f7             	mov    %al,-0x9(%ebp)
   11d72:	66 ba d5 03          	mov    $0x3d5,%dx
   11d76:	ee                   	out    %al,(%dx)
   11d77:	eb 24                	jmp    11d9d <device.tty.Terminal.update_cursor+0x7d>
   11d79:	eb ea                	jmp    11d65 <device.tty.Terminal.update_cursor+0x45>
   11d7b:	b9 8e 02 04 00       	mov    $0x4028e,%ecx
   11d80:	ba 1b 00 00 00       	mov    $0x1b,%edx
   11d85:	31 c0                	xor    %eax,%eax
   11d87:	8d 05 e8 fd 03 00    	lea    0x3fde8,%eax
   11d8d:	c7 04 24 00 00 00 00 	movl   $0x0,(%esp)
   11d94:	89 44 24 04          	mov    %eax,0x4(%esp)
   11d98:	e8 13 fd ff ff       	call   11ab0 <builtin.default_panic>
   11d9d:	66 c7 45 f8 d4 03    	movw   $0x3d4,-0x8(%ebp)
   11da3:	c6 45 fb 0e          	movb   $0xe,-0x5(%ebp)
   11da7:	b0 0e                	mov    $0xe,%al
   11da9:	66 ba d4 03          	mov    $0x3d4,%dx
   11dad:	ee                   	out    %al,(%dx)
   11dae:	66 8b 45 e2          	mov    -0x1e(%ebp),%ax
   11db2:	66 b9 08 00          	mov    $0x8,%cx
   11db6:	66 d3 e8             	shr    %cl,%ax
   11db9:	66 25 ff 00          	and    $0xff,%ax
   11dbd:	66 89 45 de          	mov    %ax,-0x22(%ebp)
   11dc1:	66 3d ff 00          	cmp    $0xff,%ax
   11dc5:	76 16                	jbe    11ddd <device.tty.Terminal.update_cursor+0xbd>
   11dc7:	eb 16                	jmp    11ddf <device.tty.Terminal.update_cursor+0xbf>
   11dc9:	66 8b 45 de          	mov    -0x22(%ebp),%ax
   11dcd:	66 c7 45 fc d5 03    	movw   $0x3d5,-0x4(%ebp)
   11dd3:	88 45 ff             	mov    %al,-0x1(%ebp)
   11dd6:	66 ba d5 03          	mov    $0x3d5,%dx
   11dda:	ee                   	out    %al,(%dx)
   11ddb:	eb 24                	jmp    11e01 <device.tty.Terminal.update_cursor+0xe1>
   11ddd:	eb ea                	jmp    11dc9 <device.tty.Terminal.update_cursor+0xa9>
   11ddf:	b9 8e 02 04 00       	mov    $0x4028e,%ecx
   11de4:	ba 1b 00 00 00       	mov    $0x1b,%edx
   11de9:	31 c0                	xor    %eax,%eax
   11deb:	8d 05 e8 fd 03 00    	lea    0x3fde8,%eax
   11df1:	c7 04 24 00 00 00 00 	movl   $0x0,(%esp)
   11df8:	89 44 24 04          	mov    %eax,0x4(%esp)
   11dfc:	e8 af fc ff ff       	call   11ab0 <builtin.default_panic>
   11e01:	83 c4 2c             	add    $0x2c,%esp
   11e04:	5d                   	pop    %ebp
   11e05:	c3                   	ret
   11e06:	66 2e 0f 1f 84 00 00 	nopw   %cs:0x0(%eax,%eax,1)
   11e0d:	00 00 00 

00011e10 <sys.x86.pci.ConfigurationAddress.create>:
   11e10:	55                   	push   %ebp
   11e11:	89 e5                	mov    %esp,%ebp
   11e13:	83 ec 10             	sub    $0x10,%esp
   11e16:	89 c8                	mov    %ecx,%eax
   11e18:	88 d1                	mov    %dl,%cl
   11e1a:	88 4d fb             	mov    %cl,-0x5(%ebp)
   11e1d:	88 c2                	mov    %al,%dl
   11e1f:	88 55 fc             	mov    %dl,-0x4(%ebp)
   11e22:	8a 45 08             	mov    0x8(%ebp),%al
   11e25:	80 e2 1f             	and    $0x1f,%dl
   11e28:	88 55 fe             	mov    %dl,-0x2(%ebp)
   11e2b:	88 4d ff             	mov    %cl,-0x1(%ebp)
   11e2e:	b1 04                	mov    $0x4,%cl
   11e30:	f6 e1                	mul    %cl
   11e32:	88 45 fd             	mov    %al,-0x3(%ebp)
   11e35:	0f 90 c0             	seto   %al
   11e38:	a8 01                	test   $0x1,%al
   11e3a:	75 02                	jne    11e3e <sys.x86.pci.ConfigurationAddress.create+0x2e>
   11e3c:	eb 23                	jmp    11e61 <sys.x86.pci.ConfigurationAddress.create+0x51>
   11e3e:	8d 0d 29 02 04 00    	lea    0x40229,%ecx
   11e44:	ba 10 00 00 00       	mov    $0x10,%edx
   11e49:	31 c0                	xor    %eax,%eax
   11e4b:	8d 05 e8 fd 03 00    	lea    0x3fde8,%eax
   11e51:	c7 04 24 00 00 00 00 	movl   $0x0,(%esp)
   11e58:	89 44 24 04          	mov    %eax,0x4(%esp)
   11e5c:	e8 4f fc ff ff       	call   11ab0 <builtin.default_panic>
   11e61:	8a 4d fb             	mov    -0x5(%ebp),%cl
   11e64:	8a 55 fc             	mov    -0x4(%ebp),%dl
   11e67:	8a 45 fd             	mov    -0x3(%ebp),%al
   11e6a:	0f b6 c0             	movzbl %al,%eax
   11e6d:	0f b6 d2             	movzbl %dl,%edx
   11e70:	83 e2 1f             	and    $0x1f,%edx
   11e73:	c1 e2 0b             	shl    $0xb,%edx
   11e76:	09 d0                	or     %edx,%eax
   11e78:	0f b6 c9             	movzbl %cl,%ecx
   11e7b:	c1 e1 10             	shl    $0x10,%ecx
   11e7e:	09 c8                	or     %ecx,%eax
   11e80:	31 c9                	xor    %ecx,%ecx
   11e82:	c1 e1 18             	shl    $0x18,%ecx
   11e85:	09 c8                	or     %ecx,%eax
   11e87:	b1 01                	mov    $0x1,%cl
   11e89:	80 e1 01             	and    $0x1,%cl
   11e8c:	0f b6 c9             	movzbl %cl,%ecx
   11e8f:	c1 e1 1f             	shl    $0x1f,%ecx
   11e92:	09 c8                	or     %ecx,%eax
   11e94:	83 c4 10             	add    $0x10,%esp
   11e97:	5d                   	pop    %ebp
   11e98:	c3                   	ret
   11e99:	0f 1f 80 00 00 00 00 	nopl   0x0(%eax)

00011ea0 <sys.x86.pci.PCIDevice.exists>:
   11ea0:	55                   	push   %ebp
   11ea1:	89 e5                	mov    %esp,%ebp
   11ea3:	50                   	push   %eax
   11ea4:	89 4d fc             	mov    %ecx,-0x4(%ebp)
   11ea7:	66 8b 41 02          	mov    0x2(%ecx),%ax
   11eab:	66 83 e8 ff          	sub    $0xffff,%ax
   11eaf:	0f 95 c0             	setne  %al
   11eb2:	83 c4 04             	add    $0x4,%esp
   11eb5:	5d                   	pop    %ebp
   11eb6:	c3                   	ret
   11eb7:	66 0f 1f 84 00 00 00 	nopw   0x0(%eax,%eax,1)
   11ebe:	00 00 

00011ec0 <sys.x86.pci.print_device_found>:
   11ec0:	55                   	push   %ebp
   11ec1:	89 e5                	mov    %esp,%ebp
   11ec3:	57                   	push   %edi
   11ec4:	56                   	push   %esi
   11ec5:	83 ec 30             	sub    $0x30,%esp
   11ec8:	88 d0                	mov    %dl,%al
   11eca:	8b 55 08             	mov    0x8(%ebp),%edx
   11ecd:	89 55 d8             	mov    %edx,-0x28(%ebp)
   11ed0:	88 4d de             	mov    %cl,-0x22(%ebp)
   11ed3:	88 45 df             	mov    %al,-0x21(%ebp)
   11ed6:	88 4d e0             	mov    %cl,-0x20(%ebp)
   11ed9:	88 45 e1             	mov    %al,-0x1f(%ebp)
   11edc:	8d 4d e0             	lea    -0x20(%ebp),%ecx
   11edf:	e8 4c 07 00 00       	call   12630 <device.tty.fprintln__anon_1150>
   11ee4:	8b 45 d8             	mov    -0x28(%ebp),%eax
   11ee7:	0f b7 40 02          	movzwl 0x2(%eax),%eax
   11eeb:	66 89 c1             	mov    %ax,%cx
   11eee:	66 89 4d dc          	mov    %cx,-0x24(%ebp)
   11ef2:	66 89 4d e2          	mov    %cx,-0x1e(%ebp)
   11ef6:	2d 0e 10 00 00       	sub    $0x100e,%eax
   11efb:	74 74                	je     11f71 <sys.x86.pci.print_device_found+0xb1>
   11efd:	eb 00                	jmp    11eff <sys.x86.pci.print_device_found+0x3f>
   11eff:	66 8b 45 dc          	mov    -0x24(%ebp),%ax
   11f03:	0f b7 c0             	movzwl %ax,%eax
   11f06:	2d 37 12 00 00       	sub    $0x1237,%eax
   11f0b:	74 76                	je     11f83 <sys.x86.pci.print_device_found+0xc3>
   11f0d:	eb 00                	jmp    11f0f <sys.x86.pci.print_device_found+0x4f>
   11f0f:	66 8b 45 dc          	mov    -0x24(%ebp),%ax
   11f13:	0f b7 c0             	movzwl %ax,%eax
   11f16:	2d 00 70 00 00       	sub    $0x7000,%eax
   11f1b:	74 78                	je     11f95 <sys.x86.pci.print_device_found+0xd5>
   11f1d:	eb 40                	jmp    11f5f <sys.x86.pci.print_device_found+0x9f>
   11f1f:	8b 45 d8             	mov    -0x28(%ebp),%eax
   11f22:	8b 75 d4             	mov    -0x2c(%ebp),%esi
   11f25:	8b 7d d0             	mov    -0x30(%ebp),%edi
   11f28:	66 8b 50 04          	mov    0x4(%eax),%dx
   11f2c:	8b 48 10             	mov    0x10(%eax),%ecx
   11f2f:	8b 40 14             	mov    0x14(%eax),%eax
   11f32:	89 7d e8             	mov    %edi,-0x18(%ebp)
   11f35:	89 75 e4             	mov    %esi,-0x1c(%ebp)
   11f38:	66 89 55 ec          	mov    %dx,-0x14(%ebp)
   11f3c:	89 4d f0             	mov    %ecx,-0x10(%ebp)
   11f3f:	89 45 f4             	mov    %eax,-0xc(%ebp)
   11f42:	8d 4d e4             	lea    -0x1c(%ebp),%ecx
   11f45:	e8 06 07 00 00       	call   12650 <device.tty.fprintln__anon_1151>
   11f4a:	83 c4 30             	add    $0x30,%esp
   11f4d:	5e                   	pop    %esi
   11f4e:	5f                   	pop    %edi
   11f4f:	5d                   	pop    %ebp
   11f50:	c3                   	ret
   11f51:	8b 4d cc             	mov    -0x34(%ebp),%ecx
   11f54:	8b 45 c8             	mov    -0x38(%ebp),%eax
   11f57:	89 4d d4             	mov    %ecx,-0x2c(%ebp)
   11f5a:	89 45 d0             	mov    %eax,-0x30(%ebp)
   11f5d:	eb c0                	jmp    11f1f <sys.x86.pci.print_device_found+0x5f>
   11f5f:	b8 07 00 00 00       	mov    $0x7,%eax
   11f64:	b9 ff 01 04 00       	mov    $0x401ff,%ecx
   11f69:	89 4d cc             	mov    %ecx,-0x34(%ebp)
   11f6c:	89 45 c8             	mov    %eax,-0x38(%ebp)
   11f6f:	eb e0                	jmp    11f51 <sys.x86.pci.print_device_found+0x91>
   11f71:	b8 3a 00 00 00       	mov    $0x3a,%eax
   11f76:	b9 7e 04 04 00       	mov    $0x4047e,%ecx
   11f7b:	89 4d cc             	mov    %ecx,-0x34(%ebp)
   11f7e:	89 45 c8             	mov    %eax,-0x38(%ebp)
   11f81:	eb ce                	jmp    11f51 <sys.x86.pci.print_device_found+0x91>
   11f83:	b8 33 00 00 00       	mov    $0x33,%eax
   11f88:	b9 fb 02 04 00       	mov    $0x402fb,%ecx
   11f8d:	89 4d cc             	mov    %ecx,-0x34(%ebp)
   11f90:	89 45 c8             	mov    %eax,-0x38(%ebp)
   11f93:	eb bc                	jmp    11f51 <sys.x86.pci.print_device_found+0x91>
   11f95:	b8 3b 00 00 00       	mov    $0x3b,%eax
   11f9a:	b9 c3 01 04 00       	mov    $0x401c3,%ecx
   11f9f:	89 4d cc             	mov    %ecx,-0x34(%ebp)
   11fa2:	89 45 c8             	mov    %eax,-0x38(%ebp)
   11fa5:	eb aa                	jmp    11f51 <sys.x86.pci.print_device_found+0x91>
   11fa7:	66 0f 1f 84 00 00 00 	nopw   0x0(%eax,%eax,1)
   11fae:	00 00 

00011fb0 <device.keyboard.poll>:
   11fb0:	55                   	push   %ebp
   11fb1:	89 e5                	mov    %esp,%ebp
   11fb3:	57                   	push   %edi
   11fb4:	56                   	push   %esi
   11fb5:	83 ec 20             	sub    $0x20,%esp
   11fb8:	89 4d ec             	mov    %ecx,-0x14(%ebp)
   11fbb:	89 4d f0             	mov    %ecx,-0x10(%ebp)
   11fbe:	b8 04 00 80 02       	mov    $0x2800004,%eax
   11fc3:	8b 00                	mov    (%eax),%eax
   11fc5:	b9 08 00 80 02       	mov    $0x2800008,%ecx
   11fca:	3b 01                	cmp    (%ecx),%eax
   11fcc:	77 19                	ja     11fe7 <device.keyboard.poll+0x37>
   11fce:	eb 2a                	jmp    11ffa <device.keyboard.poll+0x4a>
   11fd0:	8b 45 f0             	mov    -0x10(%ebp),%eax
   11fd3:	8b 4d ec             	mov    -0x14(%ebp),%ecx
   11fd6:	66 8b 15 e4 f8 03 00 	mov    0x3f8e4,%dx
   11fdd:	66 89 11             	mov    %dx,(%ecx)
   11fe0:	83 c4 20             	add    $0x20,%esp
   11fe3:	5e                   	pop    %esi
   11fe4:	5f                   	pop    %edi
   11fe5:	5d                   	pop    %ebp
   11fe6:	c3                   	ret
   11fe7:	b8 08 00 80 02       	mov    $0x2800008,%eax
   11fec:	8b 00                	mov    (%eax),%eax
   11fee:	89 45 e8             	mov    %eax,-0x18(%ebp)
   11ff1:	3d 00 04 00 00       	cmp    $0x400,%eax
   11ff6:	72 29                	jb     12021 <device.keyboard.poll+0x71>
   11ff8:	eb 29                	jmp    12023 <device.keyboard.poll+0x73>
   11ffa:	eb d4                	jmp    11fd0 <device.keyboard.poll+0x20>
   11ffc:	8b 4d e8             	mov    -0x18(%ebp),%ecx
   11fff:	b8 0c 00 80 02       	mov    $0x280000c,%eax
   12004:	8a 04 08             	mov    (%eax,%ecx,1),%al
   12007:	88 45 e3             	mov    %al,-0x1d(%ebp)
   1200a:	88 45 f5             	mov    %al,-0xb(%ebp)
   1200d:	b8 08 00 80 02       	mov    $0x2800008,%eax
   12012:	8b 00                	mov    (%eax),%eax
   12014:	83 c0 01             	add    $0x1,%eax
   12017:	89 45 e4             	mov    %eax,-0x1c(%ebp)
   1201a:	0f 92 c0             	setb   %al
   1201d:	72 11                	jb     12030 <device.keyboard.poll+0x80>
   1201f:	eb 32                	jmp    12053 <device.keyboard.poll+0xa3>
   12021:	eb d9                	jmp    11ffc <device.keyboard.poll+0x4c>
   12023:	8b 4d e8             	mov    -0x18(%ebp),%ecx
   12026:	ba 00 04 00 00       	mov    $0x400,%edx
   1202b:	e8 a0 fa ff ff       	call   11ad0 <builtin.panicOutOfBounds>
   12030:	8d 0d 29 02 04 00    	lea    0x40229,%ecx
   12036:	ba 10 00 00 00       	mov    $0x10,%edx
   1203b:	31 c0                	xor    %eax,%eax
   1203d:	8d 05 e8 fd 03 00    	lea    0x3fde8,%eax
   12043:	c7 04 24 00 00 00 00 	movl   $0x0,(%esp)
   1204a:	89 44 24 04          	mov    %eax,0x4(%esp)
   1204e:	e8 5d fa ff ff       	call   11ab0 <builtin.default_panic>
   12053:	8b 45 f0             	mov    -0x10(%ebp),%eax
   12056:	8b 4d ec             	mov    -0x14(%ebp),%ecx
   12059:	8a 55 e3             	mov    -0x1d(%ebp),%dl
   1205c:	8b 7d e4             	mov    -0x1c(%ebp),%edi
   1205f:	be 08 00 80 02       	mov    $0x2800008,%esi
   12064:	89 3e                	mov    %edi,(%esi)
   12066:	be 08 00 80 02       	mov    $0x2800008,%esi
   1206b:	8b 3e                	mov    (%esi),%edi
   1206d:	81 e7 ff 03 00 00    	and    $0x3ff,%edi
   12073:	be 08 00 80 02       	mov    $0x2800008,%esi
   12078:	89 3e                	mov    %edi,(%esi)
   1207a:	88 55 f6             	mov    %dl,-0xa(%ebp)
   1207d:	c6 45 f7 01          	movb   $0x1,-0x9(%ebp)
   12081:	66 8b 55 f6          	mov    -0xa(%ebp),%dx
   12085:	66 89 11             	mov    %dx,(%ecx)
   12088:	83 c4 20             	add    $0x20,%esp
   1208b:	5e                   	pop    %esi
   1208c:	5f                   	pop    %edi
   1208d:	5d                   	pop    %ebp
   1208e:	c3                   	ret
   1208f:	90                   	nop

00012090 <io.shell.execute_command>:
   12090:	55                   	push   %ebp
   12091:	89 e5                	mov    %esp,%ebp
   12093:	56                   	push   %esi
   12094:	83 ec 20             	sub    $0x20,%esp
   12097:	b9 00 00 81 02       	mov    $0x2810000,%ecx
   1209c:	e8 cf 05 00 00       	call   12670 <io.shell.Shell.has_input>
   120a1:	34 ff                	xor    $0xff,%al
   120a3:	a8 01                	test   $0x1,%al
   120a5:	75 3a                	jne    120e1 <io.shell.execute_command+0x51>
   120a7:	eb 3e                	jmp    120e7 <io.shell.execute_command+0x57>
   120a9:	b9 00 00 81 02       	mov    $0x2810000,%ecx
   120ae:	e8 dd 05 00 00       	call   12690 <io.shell.Shell.read>
   120b3:	89 c1                	mov    %eax,%ecx
   120b5:	89 d0                	mov    %edx,%eax
   120b7:	89 45 e4             	mov    %eax,-0x1c(%ebp)
   120ba:	89 c8                	mov    %ecx,%eax
   120bc:	89 45 e8             	mov    %eax,-0x18(%ebp)
   120bf:	89 55 f0             	mov    %edx,-0x10(%ebp)
   120c2:	89 4d ec             	mov    %ecx,-0x14(%ebp)
   120c5:	be 72 03 04 00       	mov    $0x40372,%esi
   120ca:	b8 05 00 00 00       	mov    $0x5,%eax
   120cf:	89 34 24             	mov    %esi,(%esp)
   120d2:	89 44 24 04          	mov    %eax,0x4(%esp)
   120d6:	e8 35 06 00 00       	call   12710 <mem.eql__anon_1396>
   120db:	a8 01                	test   $0x1,%al
   120dd:	75 1f                	jne    120fe <io.shell.execute_command+0x6e>
   120df:	eb 24                	jmp    12105 <io.shell.execute_command+0x75>
   120e1:	83 c4 20             	add    $0x20,%esp
   120e4:	5e                   	pop    %esi
   120e5:	5d                   	pop    %ebp
   120e6:	c3                   	ret
   120e7:	eb c0                	jmp    120a9 <io.shell.execute_command+0x19>
   120e9:	e8 12 f9 ff ff       	call   11a00 <io.shell.show_prompt>
   120ee:	b9 00 00 81 02       	mov    $0x2810000,%ecx
   120f3:	e8 c8 06 00 00       	call   127c0 <io.shell.Shell.clear_buffer>
   120f8:	83 c4 20             	add    $0x20,%esp
   120fb:	5e                   	pop    %esi
   120fc:	5d                   	pop    %ebp
   120fd:	c3                   	ret
   120fe:	e8 8d 06 00 00       	call   12790 <device.tty.clear>
   12103:	eb e4                	jmp    120e9 <io.shell.execute_command+0x59>
   12105:	8b 55 e4             	mov    -0x1c(%ebp),%edx
   12108:	8b 4d e8             	mov    -0x18(%ebp),%ecx
   1210b:	be 08 04 04 00       	mov    $0x40408,%esi
   12110:	b8 03 00 00 00       	mov    $0x3,%eax
   12115:	89 34 24             	mov    %esi,(%esp)
   12118:	89 44 24 04          	mov    %eax,0x4(%esp)
   1211c:	e8 ef 05 00 00       	call   12710 <mem.eql__anon_1396>
   12121:	a8 01                	test   $0x1,%al
   12123:	75 04                	jne    12129 <io.shell.execute_command+0x99>
   12125:	eb 09                	jmp    12130 <io.shell.execute_command+0xa0>
   12127:	eb c0                	jmp    120e9 <io.shell.execute_command+0x59>
   12129:	e8 42 f0 ff ff       	call   11170 <sys.x86.pci.scan_devices>
   1212e:	eb f7                	jmp    12127 <io.shell.execute_command+0x97>
   12130:	8b 55 e4             	mov    -0x1c(%ebp),%edx
   12133:	8b 4d e8             	mov    -0x18(%ebp),%ecx
   12136:	be ed 03 04 00       	mov    $0x403ed,%esi
   1213b:	b8 04 00 00 00       	mov    $0x4,%eax
   12140:	89 34 24             	mov    %esi,(%esp)
   12143:	89 44 24 04          	mov    %eax,0x4(%esp)
   12147:	e8 c4 05 00 00       	call   12710 <mem.eql__anon_1396>
   1214c:	a8 01                	test   $0x1,%al
   1214e:	75 04                	jne    12154 <io.shell.execute_command+0xc4>
   12150:	eb 13                	jmp    12165 <io.shell.execute_command+0xd5>
   12152:	eb d3                	jmp    12127 <io.shell.execute_command+0x97>
   12154:	b9 f2 04 04 00       	mov    $0x404f2,%ecx
   12159:	ba 11 00 00 00       	mov    $0x11,%edx
   1215e:	e8 7d f4 ff ff       	call   115e0 <device.tty.println>
   12163:	eb ed                	jmp    12152 <io.shell.execute_command+0xc2>
   12165:	8b 45 e4             	mov    -0x1c(%ebp),%eax
   12168:	8b 4d e8             	mov    -0x18(%ebp),%ecx
   1216b:	89 4d f4             	mov    %ecx,-0xc(%ebp)
   1216e:	89 45 f8             	mov    %eax,-0x8(%ebp)
   12171:	8d 4d f4             	lea    -0xc(%ebp),%ecx
   12174:	e8 27 06 00 00       	call   127a0 <device.tty.fprintln__anon_1397>
   12179:	eb d7                	jmp    12152 <io.shell.execute_command+0xc2>
   1217b:	0f 1f 44 00 00       	nopl   0x0(%eax,%eax,1)

00012180 <io.shell.Shell.push>:
   12180:	55                   	push   %ebp
   12181:	89 e5                	mov    %esp,%ebp
   12183:	53                   	push   %ebx
   12184:	83 ec 30             	sub    $0x30,%esp
   12187:	89 4d dc             	mov    %ecx,-0x24(%ebp)
   1218a:	88 d0                	mov    %dl,%al
   1218c:	88 45 e3             	mov    %al,-0x1d(%ebp)
   1218f:	89 4d ec             	mov    %ecx,-0x14(%ebp)
   12192:	88 45 f3             	mov    %al,-0xd(%ebp)
   12195:	89 4d f4             	mov    %ecx,-0xc(%ebp)
   12198:	8b 45 f4             	mov    -0xc(%ebp),%eax
   1219b:	83 c0 02             	add    $0x2,%eax
   1219e:	89 45 e4             	mov    %eax,-0x1c(%ebp)
   121a1:	0f b7 01             	movzwl (%ecx),%eax
   121a4:	89 45 e8             	mov    %eax,-0x18(%ebp)
   121a7:	3d 00 01 00 00       	cmp    $0x100,%eax
   121ac:	72 2e                	jb     121dc <io.shell.Shell.push+0x5c>
   121ae:	eb 2e                	jmp    121de <io.shell.Shell.push+0x5e>
   121b0:	8b 45 dc             	mov    -0x24(%ebp),%eax
   121b3:	8b 4d e4             	mov    -0x1c(%ebp),%ecx
   121b6:	8b 55 e8             	mov    -0x18(%ebp),%edx
   121b9:	8a 5d e3             	mov    -0x1d(%ebp),%bl
   121bc:	88 1c 11             	mov    %bl,(%ecx,%edx,1)
   121bf:	89 45 f8             	mov    %eax,-0x8(%ebp)
   121c2:	8b 45 f8             	mov    -0x8(%ebp),%eax
   121c5:	89 45 d4             	mov    %eax,-0x2c(%ebp)
   121c8:	66 8b 00             	mov    (%eax),%ax
   121cb:	66 83 c0 01          	add    $0x1,%ax
   121cf:	66 89 45 da          	mov    %ax,-0x26(%ebp)
   121d3:	0f 92 c0             	setb   %al
   121d6:	a8 01                	test   $0x1,%al
   121d8:	75 11                	jne    121eb <io.shell.Shell.push+0x6b>
   121da:	eb 32                	jmp    1220e <io.shell.Shell.push+0x8e>
   121dc:	eb d2                	jmp    121b0 <io.shell.Shell.push+0x30>
   121de:	8b 4d e8             	mov    -0x18(%ebp),%ecx
   121e1:	ba 00 01 00 00       	mov    $0x100,%edx
   121e6:	e8 e5 f8 ff ff       	call   11ad0 <builtin.panicOutOfBounds>
   121eb:	8d 0d 29 02 04 00    	lea    0x40229,%ecx
   121f1:	ba 10 00 00 00       	mov    $0x10,%edx
   121f6:	31 c0                	xor    %eax,%eax
   121f8:	8d 05 e8 fd 03 00    	lea    0x3fde8,%eax
   121fe:	c7 04 24 00 00 00 00 	movl   $0x0,(%esp)
   12205:	89 44 24 04          	mov    %eax,0x4(%esp)
   12209:	e8 a2 f8 ff ff       	call   11ab0 <builtin.default_panic>
   1220e:	8b 45 d4             	mov    -0x2c(%ebp),%eax
   12211:	66 8b 4d da          	mov    -0x26(%ebp),%cx
   12215:	66 89 08             	mov    %cx,(%eax)
   12218:	83 c4 30             	add    $0x30,%esp
   1221b:	5b                   	pop    %ebx
   1221c:	5d                   	pop    %ebp
   1221d:	c3                   	ret
   1221e:	66 90                	xchg   %ax,%ax

00012220 <device.tty.print_at_cursor>:
   12220:	55                   	push   %ebp
   12221:	89 e5                	mov    %esp,%ebp
   12223:	56                   	push   %esi
   12224:	83 ec 14             	sub    $0x14,%esp
   12227:	88 c8                	mov    %cl,%al
   12229:	88 45 f6             	mov    %al,-0xa(%ebp)
   1222c:	88 45 f7             	mov    %al,-0x9(%ebp)
   1222f:	8d 75 f7             	lea    -0x9(%ebp),%esi
   12232:	89 75 f8             	mov    %esi,-0x8(%ebp)
   12235:	66 8b 15 06 00 82 02 	mov    0x2820006,%dx
   1223c:	b8 01 00 00 00       	mov    $0x1,%eax
   12241:	b9 00 00 82 02       	mov    $0x2820000,%ecx
   12246:	0f b7 d2             	movzwl %dx,%edx
   12249:	89 34 24             	mov    %esi,(%esp)
   1224c:	89 44 24 04          	mov    %eax,0x4(%esp)
   12250:	c7 44 24 08 0f 00 00 	movl   $0xf,0x8(%esp)
   12257:	00 
   12258:	e8 b3 f3 ff ff       	call   11610 <device.tty.Terminal.write>
   1225d:	83 c4 14             	add    $0x14,%esp
   12260:	5e                   	pop    %esi
   12261:	5d                   	pop    %ebp
   12262:	c3                   	ret
   12263:	66 2e 0f 1f 84 00 00 	nopw   %cs:0x0(%eax,%eax,1)
   1226a:	00 00 00 
   1226d:	0f 1f 00             	nopl   (%eax)

00012270 <debug.panicExtra__anon_1147>:
   12270:	55                   	push   %ebp
   12271:	89 e5                	mov    %esp,%ebp
   12273:	57                   	push   %edi
   12274:	56                   	push   %esi
   12275:	b8 ec 10 00 00       	mov    $0x10ec,%eax
   1227a:	e8 a1 ad 02 00       	call   3d020 <__zig_probe_stack>
   1227f:	29 c4                	sub    %eax,%esp
   12281:	89 95 24 ef ff ff    	mov    %edx,-0x10dc(%ebp)
   12287:	89 8d 28 ef ff ff    	mov    %ecx,-0x10d8(%ebp)
   1228d:	8b 45 08             	mov    0x8(%ebp),%eax
   12290:	89 85 2c ef ff ff    	mov    %eax,-0x10d4(%ebp)
   12296:	89 8d 38 ef ff ff    	mov    %ecx,-0x10c8(%ebp)
   1229c:	8d 85 3c ef ff ff    	lea    -0x10c4(%ebp),%eax
   122a2:	89 85 c0 ef ff ff    	mov    %eax,-0x1040(%ebp)
   122a8:	c7 85 c4 ef ff ff 20 	movl   $0x20,-0x103c(%ebp)
   122af:	00 00 00 
   122b2:	c7 85 bc ef ff ff 00 	movl   $0x0,-0x1044(%ebp)
   122b9:	00 00 00 
   122bc:	8b 85 bc ef ff ff    	mov    -0x1044(%ebp),%eax
   122c2:	89 85 30 ef ff ff    	mov    %eax,-0x10d0(%ebp)
   122c8:	8d 05 2f 03 04 00    	lea    0x4032f,%eax
   122ce:	89 85 c8 ef ff ff    	mov    %eax,-0x1038(%ebp)
   122d4:	8d 85 cd ef ff ff    	lea    -0x1033(%ebp),%eax
   122da:	89 04 24             	mov    %eax,(%esp)
   122dd:	c7 44 24 04 aa 00 00 	movl   $0xaa,0x4(%esp)
   122e4:	00 
   122e5:	c7 44 24 08 0f 10 00 	movl   $0x100f,0x8(%esp)
   122ec:	00 
   122ed:	e8 4e ae 02 00       	call   3d140 <memset>
   122f2:	8d 85 cd ef ff ff    	lea    -0x1033(%ebp),%eax
   122f8:	89 85 34 ef ff ff    	mov    %eax,-0x10cc(%ebp)
   122fe:	b8 00 10 00 00       	mov    $0x1000,%eax
   12303:	3d 0f 10 00 00       	cmp    $0x100f,%eax
   12308:	76 35                	jbe    1233f <debug.panicExtra__anon_1147+0xcf>
   1230a:	eb 35                	jmp    12341 <debug.panicExtra__anon_1147+0xd1>
   1230c:	8b 85 2c ef ff ff    	mov    -0x10d4(%ebp),%eax
   12312:	8b bd 34 ef ff ff    	mov    -0x10cc(%ebp),%edi
   12318:	be 00 10 00 00       	mov    $0x1000,%esi
   1231d:	8d 4d dc             	lea    -0x24(%ebp),%ecx
   12320:	8d 95 bc ef ff ff    	lea    -0x1044(%ebp),%edx
   12326:	89 3c 24             	mov    %edi,(%esp)
   12329:	89 74 24 04          	mov    %esi,0x4(%esp)
   1232d:	89 44 24 08          	mov    %eax,0x8(%esp)
   12331:	e8 aa 04 00 00       	call   127e0 <fmt.bufPrint__anon_1546>
   12336:	66 83 7d e4 00       	cmpw   $0x0,-0x1c(%ebp)
   1233b:	74 49                	je     12386 <debug.panicExtra__anon_1147+0x116>
   1233d:	eb 5b                	jmp    1239a <debug.panicExtra__anon_1147+0x12a>
   1233f:	eb cb                	jmp    1230c <debug.panicExtra__anon_1147+0x9c>
   12341:	b9 00 10 00 00       	mov    $0x1000,%ecx
   12346:	ba 0f 10 00 00       	mov    $0x100f,%edx
   1234b:	e8 80 f7 ff ff       	call   11ad0 <builtin.panicOutOfBounds>
   12350:	8b 85 24 ef ff ff    	mov    -0x10dc(%ebp),%eax
   12356:	8b b5 28 ef ff ff    	mov    -0x10d8(%ebp),%esi
   1235c:	8b 8d 20 ef ff ff    	mov    -0x10e0(%ebp),%ecx
   12362:	8b 95 1c ef ff ff    	mov    -0x10e4(%ebp),%edx
   12368:	89 4d e8             	mov    %ecx,-0x18(%ebp)
   1236b:	89 55 ec             	mov    %edx,-0x14(%ebp)
   1236e:	89 55 f4             	mov    %edx,-0xc(%ebp)
   12371:	89 4d f0             	mov    %ecx,-0x10(%ebp)
   12374:	8b 4d f0             	mov    -0x10(%ebp),%ecx
   12377:	8b 55 f4             	mov    -0xc(%ebp),%edx
   1237a:	89 34 24             	mov    %esi,(%esp)
   1237d:	89 44 24 04          	mov    %eax,0x4(%esp)
   12381:	e8 2a f7 ff ff       	call   11ab0 <builtin.default_panic>
   12386:	8b 4d dc             	mov    -0x24(%ebp),%ecx
   12389:	8b 45 e0             	mov    -0x20(%ebp),%eax
   1238c:	89 8d 20 ef ff ff    	mov    %ecx,-0x10e0(%ebp)
   12392:	89 85 1c ef ff ff    	mov    %eax,-0x10e4(%ebp)
   12398:	eb b6                	jmp    12350 <debug.panicExtra__anon_1147+0xe0>
   1239a:	66 8b 45 e4          	mov    -0x1c(%ebp),%ax
   1239e:	66 83 e8 01          	sub    $0x1,%ax
   123a2:	74 24                	je     123c8 <debug.panicExtra__anon_1147+0x158>
   123a4:	eb 00                	jmp    123a6 <debug.panicExtra__anon_1147+0x136>
   123a6:	b9 b9 04 04 00       	mov    $0x404b9,%ecx
   123ab:	ba 17 00 00 00       	mov    $0x17,%edx
   123b0:	31 c0                	xor    %eax,%eax
   123b2:	8d 05 e8 fd 03 00    	lea    0x3fde8,%eax
   123b8:	c7 04 24 00 00 00 00 	movl   $0x0,(%esp)
   123bf:	89 44 24 04          	mov    %eax,0x4(%esp)
   123c3:	e8 e8 f6 ff ff       	call   11ab0 <builtin.default_panic>
   123c8:	8d 85 cd ef ff ff    	lea    -0x1033(%ebp),%eax
   123ce:	05 00 10 00 00       	add    $0x1000,%eax
   123d3:	89 85 18 ef ff ff    	mov    %eax,-0x10e8(%ebp)
   123d9:	eb 2c                	jmp    12407 <debug.panicExtra__anon_1147+0x197>
   123db:	8b 85 18 ef ff ff    	mov    -0x10e8(%ebp),%eax
   123e1:	89 c2                	mov    %eax,%edx
   123e3:	83 c2 0f             	add    $0xf,%edx
   123e6:	8d 0d 2f 03 04 00    	lea    0x4032f,%ecx
   123ec:	83 c1 0f             	add    $0xf,%ecx
   123ef:	39 c8                	cmp    %ecx,%eax
   123f1:	0f 93 c0             	setae  %al
   123f4:	8d 0d 2f 03 04 00    	lea    0x4032f,%ecx
   123fa:	39 d1                	cmp    %edx,%ecx
   123fc:	0f 93 c1             	setae  %cl
   123ff:	08 c8                	or     %cl,%al
   12401:	a8 01                	test   $0x1,%al
   12403:	75 59                	jne    1245e <debug.panicExtra__anon_1147+0x1ee>
   12405:	eb 59                	jmp    12460 <debug.panicExtra__anon_1147+0x1f0>
   12407:	eb d2                	jmp    123db <debug.panicExtra__anon_1147+0x16b>
   12409:	ba 0f 10 00 00       	mov    $0x100f,%edx
   1240e:	89 d1                	mov    %edx,%ecx
   12410:	e8 bb f6 ff ff       	call   11ad0 <builtin.panicOutOfBounds>
   12415:	8b 85 30 ef ff ff    	mov    -0x10d0(%ebp),%eax
   1241b:	8b 8d 18 ef ff ff    	mov    -0x10e8(%ebp),%ecx
   12421:	c7 41 0b 74 65 64 29 	movl   $0x29646574,0xb(%ecx)
   12428:	c7 41 08 6e 63 61 74 	movl   $0x7461636e,0x8(%ecx)
   1242f:	c7 41 04 20 74 72 75 	movl   $0x75727420,0x4(%ecx)
   12436:	c7 01 28 6d 73 67    	movl   $0x67736d28,(%ecx)
   1243c:	89 85 bc ef ff ff    	mov    %eax,-0x1044(%ebp)
   12442:	b8 0f 10 00 00       	mov    $0x100f,%eax
   12447:	8d 8d cd ef ff ff    	lea    -0x1033(%ebp),%ecx
   1244d:	89 8d 20 ef ff ff    	mov    %ecx,-0x10e0(%ebp)
   12453:	89 85 1c ef ff ff    	mov    %eax,-0x10e4(%ebp)
   12459:	e9 f2 fe ff ff       	jmp    12350 <debug.panicExtra__anon_1147+0xe0>
   1245e:	eb b5                	jmp    12415 <debug.panicExtra__anon_1147+0x1a5>
   12460:	b9 0c 04 04 00       	mov    $0x4040c,%ecx
   12465:	ba 17 00 00 00       	mov    $0x17,%edx
   1246a:	31 c0                	xor    %eax,%eax
   1246c:	8d 05 e8 fd 03 00    	lea    0x3fde8,%eax
   12472:	c7 04 24 00 00 00 00 	movl   $0x0,(%esp)
   12479:	89 44 24 04          	mov    %eax,0x4(%esp)
   1247d:	e8 2e f6 ff ff       	call   11ab0 <builtin.default_panic>
   12482:	66 2e 0f 1f 84 00 00 	nopw   %cs:0x0(%eax,%eax,1)
   12489:	00 00 00 
   1248c:	0f 1f 40 00          	nopl   0x0(%eax)

00012490 <sys.x86.interrupt.InterruptDescriptorTableEntry.panic_asm>:
   12490:	fa                   	cli
   12491:	f4                   	hlt
   12492:	0f 0b                	ud2
   12494:	66 2e 0f 1f 84 00 00 	nopw   %cs:0x0(%eax,%eax,1)
   1249b:	00 00 00 
   1249e:	66 90                	xchg   %ax,%ax

000124a0 <sys.x86.interrupt.InterruptDescriptorTableEntry.noop_asm>:
   124a0:	50                   	push   %eax
   124a1:	b0 20                	mov    $0x20,%al
   124a3:	e6 20                	out    %al,$0x20
   124a5:	58                   	pop    %eax
   124a6:	cf                   	iret
   124a7:	0f 0b                	ud2
   124a9:	0f 1f 80 00 00 00 00 	nopl   0x0(%eax)

000124b0 <device.tty.Terminal.write_at_row>:
   124b0:	55                   	push   %ebp
   124b1:	89 e5                	mov    %esp,%ebp
   124b3:	57                   	push   %edi
   124b4:	56                   	push   %esi
   124b5:	83 ec 4c             	sub    $0x4c,%esp
   124b8:	89 ce                	mov    %ecx,%esi
   124ba:	89 75 c8             	mov    %esi,-0x38(%ebp)
   124bd:	66 89 d0             	mov    %dx,%ax
   124c0:	8b 55 0c             	mov    0xc(%ebp),%edx
   124c3:	8b 4d 08             	mov    0x8(%ebp),%ecx
   124c6:	89 d7                	mov    %edx,%edi
   124c8:	89 7d cc             	mov    %edi,-0x34(%ebp)
   124cb:	89 cf                	mov    %ecx,%edi
   124cd:	89 7d d0             	mov    %edi,-0x30(%ebp)
   124d0:	89 75 d8             	mov    %esi,-0x28(%ebp)
   124d3:	66 89 45 de          	mov    %ax,-0x22(%ebp)
   124d7:	89 55 e4             	mov    %edx,-0x1c(%ebp)
   124da:	89 4d e0             	mov    %ecx,-0x20(%ebp)
   124dd:	66 b9 50 00          	mov    $0x50,%cx
   124e1:	66 f7 e1             	mul    %cx
   124e4:	66 89 45 d6          	mov    %ax,-0x2a(%ebp)
   124e8:	0f 90 c0             	seto   %al
   124eb:	a8 01                	test   $0x1,%al
   124ed:	75 02                	jne    124f1 <device.tty.Terminal.write_at_row+0x41>
   124ef:	eb 23                	jmp    12514 <device.tty.Terminal.write_at_row+0x64>
   124f1:	8d 0d 29 02 04 00    	lea    0x40229,%ecx
   124f7:	ba 10 00 00 00       	mov    $0x10,%edx
   124fc:	31 c0                	xor    %eax,%eax
   124fe:	8d 05 e8 fd 03 00    	lea    0x3fde8,%eax
   12504:	c7 04 24 00 00 00 00 	movl   $0x0,(%esp)
   1250b:	89 44 24 04          	mov    %eax,0x4(%esp)
   1250f:	e8 9c f5 ff ff       	call   11ab0 <builtin.default_panic>
   12514:	66 8b 45 d6          	mov    -0x2a(%ebp),%ax
   12518:	66 83 c0 06          	add    $0x6,%ax
   1251c:	66 89 45 c6          	mov    %ax,-0x3a(%ebp)
   12520:	0f 92 c0             	setb   %al
   12523:	a8 01                	test   $0x1,%al
   12525:	75 02                	jne    12529 <device.tty.Terminal.write_at_row+0x79>
   12527:	eb 23                	jmp    1254c <device.tty.Terminal.write_at_row+0x9c>
   12529:	8d 0d 29 02 04 00    	lea    0x40229,%ecx
   1252f:	ba 10 00 00 00       	mov    $0x10,%edx
   12534:	31 c0                	xor    %eax,%eax
   12536:	8d 05 e8 fd 03 00    	lea    0x3fde8,%eax
   1253c:	c7 04 24 00 00 00 00 	movl   $0x0,(%esp)
   12543:	89 44 24 04          	mov    %eax,0x4(%esp)
   12547:	e8 64 f5 ff ff       	call   11ab0 <builtin.default_panic>
   1254c:	8b 4d c8             	mov    -0x38(%ebp),%ecx
   1254f:	8b 45 cc             	mov    -0x34(%ebp),%eax
   12552:	8b 75 d0             	mov    -0x30(%ebp),%esi
   12555:	66 8b 55 c6          	mov    -0x3a(%ebp),%dx
   12559:	66 89 55 ea          	mov    %dx,-0x16(%ebp)
   1255d:	89 4d ec             	mov    %ecx,-0x14(%ebp)
   12560:	8b 4d ec             	mov    -0x14(%ebp),%ecx
   12563:	0f b7 d2             	movzwl %dx,%edx
   12566:	89 34 24             	mov    %esi,(%esp)
   12569:	89 44 24 04          	mov    %eax,0x4(%esp)
   1256d:	c7 44 24 08 0f 00 00 	movl   $0xf,0x8(%esp)
   12574:	00 
   12575:	e8 96 f0 ff ff       	call   11610 <device.tty.Terminal.write>
   1257a:	8b 45 cc             	mov    -0x34(%ebp),%eax
   1257d:	8b 4d c8             	mov    -0x38(%ebp),%ecx
   12580:	be 50 00 00 00       	mov    $0x50,%esi
   12585:	31 d2                	xor    %edx,%edx
   12587:	f7 f6                	div    %esi
   12589:	66 89 45 f2          	mov    %ax,-0xe(%ebp)
   1258d:	89 4d f4             	mov    %ecx,-0xc(%ebp)
   12590:	8b 4d f4             	mov    -0xc(%ebp),%ecx
   12593:	89 ca                	mov    %ecx,%edx
   12595:	83 c2 04             	add    $0x4,%edx
   12598:	89 55 bc             	mov    %edx,-0x44(%ebp)
   1259b:	66 8b 49 04          	mov    0x4(%ecx),%cx
   1259f:	66 89 4d c2          	mov    %cx,-0x3e(%ebp)
   125a3:	66 83 c0 01          	add    $0x1,%ax
   125a7:	66 89 45 c4          	mov    %ax,-0x3c(%ebp)
   125ab:	0f 92 c0             	setb   %al
   125ae:	a8 01                	test   $0x1,%al
   125b0:	75 02                	jne    125b4 <device.tty.Terminal.write_at_row+0x104>
   125b2:	eb 23                	jmp    125d7 <device.tty.Terminal.write_at_row+0x127>
   125b4:	8d 0d 29 02 04 00    	lea    0x40229,%ecx
   125ba:	ba 10 00 00 00       	mov    $0x10,%edx
   125bf:	31 c0                	xor    %eax,%eax
   125c1:	8d 05 e8 fd 03 00    	lea    0x3fde8,%eax
   125c7:	c7 04 24 00 00 00 00 	movl   $0x0,(%esp)
   125ce:	89 44 24 04          	mov    %eax,0x4(%esp)
   125d2:	e8 d9 f4 ff ff       	call   11ab0 <builtin.default_panic>
   125d7:	66 8b 4d c4          	mov    -0x3c(%ebp),%cx
   125db:	66 8b 45 c2          	mov    -0x3e(%ebp),%ax
   125df:	66 01 c8             	add    %cx,%ax
   125e2:	66 89 45 ba          	mov    %ax,-0x46(%ebp)
   125e6:	0f 92 c0             	setb   %al
   125e9:	a8 01                	test   $0x1,%al
   125eb:	75 02                	jne    125ef <device.tty.Terminal.write_at_row+0x13f>
   125ed:	eb 23                	jmp    12612 <device.tty.Terminal.write_at_row+0x162>
   125ef:	8d 0d 29 02 04 00    	lea    0x40229,%ecx
   125f5:	ba 10 00 00 00       	mov    $0x10,%edx
   125fa:	31 c0                	xor    %eax,%eax
   125fc:	8d 05 e8 fd 03 00    	lea    0x3fde8,%eax
   12602:	c7 04 24 00 00 00 00 	movl   $0x0,(%esp)
   12609:	89 44 24 04          	mov    %eax,0x4(%esp)
   1260d:	e8 9e f4 ff ff       	call   11ab0 <builtin.default_panic>
   12612:	8b 45 bc             	mov    -0x44(%ebp),%eax
   12615:	66 8b 4d ba          	mov    -0x46(%ebp),%cx
   12619:	66 89 08             	mov    %cx,(%eax)
   1261c:	83 c4 4c             	add    $0x4c,%esp
   1261f:	5e                   	pop    %esi
   12620:	5f                   	pop    %edi
   12621:	5d                   	pop    %ebp
   12622:	c3                   	ret
   12623:	66 2e 0f 1f 84 00 00 	nopw   %cs:0x0(%eax,%eax,1)
   1262a:	00 00 00 
   1262d:	0f 1f 00             	nopl   (%eax)

00012630 <device.tty.fprintln__anon_1150>:
   12630:	55                   	push   %ebp
   12631:	89 e5                	mov    %esp,%ebp
   12633:	89 ca                	mov    %ecx,%edx
   12635:	b9 00 00 82 02       	mov    $0x2820000,%ecx
   1263a:	e8 c1 02 00 00       	call   12900 <device.tty.Terminal.fprintln__anon_1547>
   1263f:	5d                   	pop    %ebp
   12640:	c3                   	ret
   12641:	66 2e 0f 1f 84 00 00 	nopw   %cs:0x0(%eax,%eax,1)
   12648:	00 00 00 
   1264b:	0f 1f 44 00 00       	nopl   0x0(%eax,%eax,1)

00012650 <device.tty.fprintln__anon_1151>:
   12650:	55                   	push   %ebp
   12651:	89 e5                	mov    %esp,%ebp
   12653:	89 ca                	mov    %ecx,%edx
   12655:	b9 00 00 82 02       	mov    $0x2820000,%ecx
   1265a:	e8 41 05 00 00       	call   12ba0 <device.tty.Terminal.fprintln__anon_1548>
   1265f:	5d                   	pop    %ebp
   12660:	c3                   	ret
   12661:	66 2e 0f 1f 84 00 00 	nopw   %cs:0x0(%eax,%eax,1)
   12668:	00 00 00 
   1266b:	0f 1f 44 00 00       	nopl   0x0(%eax,%eax,1)

00012670 <io.shell.Shell.has_input>:
   12670:	55                   	push   %ebp
   12671:	89 e5                	mov    %esp,%ebp
   12673:	50                   	push   %eax
   12674:	89 4d fc             	mov    %ecx,-0x4(%ebp)
   12677:	66 8b 01             	mov    (%ecx),%ax
   1267a:	66 85 c0             	test   %ax,%ax
   1267d:	0f 95 c0             	setne  %al
   12680:	83 c4 04             	add    $0x4,%esp
   12683:	5d                   	pop    %ebp
   12684:	c3                   	ret
   12685:	66 2e 0f 1f 84 00 00 	nopw   %cs:0x0(%eax,%eax,1)
   1268c:	00 00 00 
   1268f:	90                   	nop

00012690 <io.shell.Shell.read>:
   12690:	55                   	push   %ebp
   12691:	89 e5                	mov    %esp,%ebp
   12693:	83 ec 18             	sub    $0x18,%esp
   12696:	89 4d f0             	mov    %ecx,-0x10(%ebp)
   12699:	89 4d f4             	mov    %ecx,-0xc(%ebp)
   1269c:	8b 45 f4             	mov    -0xc(%ebp),%eax
   1269f:	83 c0 02             	add    $0x2,%eax
   126a2:	89 45 e8             	mov    %eax,-0x18(%ebp)
   126a5:	66 8b 01             	mov    (%ecx),%ax
   126a8:	0f b7 c8             	movzwl %ax,%ecx
   126ab:	89 4d ec             	mov    %ecx,-0x14(%ebp)
   126ae:	31 c0                	xor    %eax,%eax
   126b0:	39 c8                	cmp    %ecx,%eax
   126b2:	76 0e                	jbe    126c2 <io.shell.Shell.read+0x32>
   126b4:	eb 0e                	jmp    126c4 <io.shell.Shell.read+0x34>
   126b6:	8b 45 ec             	mov    -0x14(%ebp),%eax
   126b9:	3d 00 01 00 00       	cmp    $0x100,%eax
   126be:	76 19                	jbe    126d9 <io.shell.Shell.read+0x49>
   126c0:	eb 19                	jmp    126db <io.shell.Shell.read+0x4b>
   126c2:	eb f2                	jmp    126b6 <io.shell.Shell.read+0x26>
   126c4:	8b 55 ec             	mov    -0x14(%ebp),%edx
   126c7:	31 c9                	xor    %ecx,%ecx
   126c9:	e8 72 07 00 00       	call   12e40 <builtin.panicStartGreaterThanEnd>
   126ce:	8b 4d ec             	mov    -0x14(%ebp),%ecx
   126d1:	31 c0                	xor    %eax,%eax
   126d3:	39 c8                	cmp    %ecx,%eax
   126d5:	76 28                	jbe    126ff <io.shell.Shell.read+0x6f>
   126d7:	eb 28                	jmp    12701 <io.shell.Shell.read+0x71>
   126d9:	eb f3                	jmp    126ce <io.shell.Shell.read+0x3e>
   126db:	8b 4d ec             	mov    -0x14(%ebp),%ecx
   126de:	ba 00 01 00 00       	mov    $0x100,%edx
   126e3:	e8 e8 f3 ff ff       	call   11ad0 <builtin.panicOutOfBounds>
   126e8:	8b 45 e8             	mov    -0x18(%ebp),%eax
   126eb:	8b 4d ec             	mov    -0x14(%ebp),%ecx
   126ee:	89 4d fc             	mov    %ecx,-0x4(%ebp)
   126f1:	89 45 f8             	mov    %eax,-0x8(%ebp)
   126f4:	8b 45 f8             	mov    -0x8(%ebp),%eax
   126f7:	8b 55 fc             	mov    -0x4(%ebp),%edx
   126fa:	83 c4 18             	add    $0x18,%esp
   126fd:	5d                   	pop    %ebp
   126fe:	c3                   	ret
   126ff:	eb e7                	jmp    126e8 <io.shell.Shell.read+0x58>
   12701:	8b 55 ec             	mov    -0x14(%ebp),%edx
   12704:	31 c9                	xor    %ecx,%ecx
   12706:	e8 c5 f3 ff ff       	call   11ad0 <builtin.panicOutOfBounds>
   1270b:	0f 1f 44 00 00       	nopl   0x0(%eax,%eax,1)

00012710 <mem.eql__anon_1396>:
   12710:	55                   	push   %ebp
   12711:	89 e5                	mov    %esp,%ebp
   12713:	57                   	push   %edi
   12714:	56                   	push   %esi
   12715:	83 ec 30             	sub    $0x30,%esp
   12718:	89 d6                	mov    %edx,%esi
   1271a:	89 ca                	mov    %ecx,%edx
   1271c:	8b 4d 0c             	mov    0xc(%ebp),%ecx
   1271f:	8b 45 08             	mov    0x8(%ebp),%eax
   12722:	89 f7                	mov    %esi,%edi
   12724:	89 7d d8             	mov    %edi,-0x28(%ebp)
   12727:	89 d7                	mov    %edx,%edi
   12729:	89 7d dc             	mov    %edi,-0x24(%ebp)
   1272c:	89 cf                	mov    %ecx,%edi
   1272e:	89 7d e0             	mov    %edi,-0x20(%ebp)
   12731:	89 c7                	mov    %eax,%edi
   12733:	89 7d e4             	mov    %edi,-0x1c(%ebp)
   12736:	89 75 ec             	mov    %esi,-0x14(%ebp)
   12739:	89 55 e8             	mov    %edx,-0x18(%ebp)
   1273c:	89 4d f4             	mov    %ecx,-0xc(%ebp)
   1273f:	89 45 f0             	mov    %eax,-0x10(%ebp)
   12742:	eb 3b                	jmp    1277f <mem.eql__anon_1396+0x6f>
   12744:	8b 55 d8             	mov    -0x28(%ebp),%edx
   12747:	8b 4d dc             	mov    -0x24(%ebp),%ecx
   1274a:	e8 21 07 00 00       	call   12e70 <mem.sliceAsBytes__anon_1549>
   1274f:	8b 4d e4             	mov    -0x1c(%ebp),%ecx
   12752:	89 45 d0             	mov    %eax,-0x30(%ebp)
   12755:	89 d0                	mov    %edx,%eax
   12757:	8b 55 e0             	mov    -0x20(%ebp),%edx
   1275a:	89 45 d4             	mov    %eax,-0x2c(%ebp)
   1275d:	e8 0e 07 00 00       	call   12e70 <mem.sliceAsBytes__anon_1549>
   12762:	8b 4d d0             	mov    -0x30(%ebp),%ecx
   12765:	89 c6                	mov    %eax,%esi
   12767:	89 d7                	mov    %edx,%edi
   12769:	8b 55 d4             	mov    -0x2c(%ebp),%edx
   1276c:	89 e0                	mov    %esp,%eax
   1276e:	89 78 04             	mov    %edi,0x4(%eax)
   12771:	89 30                	mov    %esi,(%eax)
   12773:	e8 88 07 00 00       	call   12f00 <mem.eqlBytes>
   12778:	83 c4 30             	add    $0x30,%esp
   1277b:	5e                   	pop    %esi
   1277c:	5f                   	pop    %edi
   1277d:	5d                   	pop    %ebp
   1277e:	c3                   	ret
   1277f:	eb c3                	jmp    12744 <mem.eql__anon_1396+0x34>
   12781:	66 2e 0f 1f 84 00 00 	nopw   %cs:0x0(%eax,%eax,1)
   12788:	00 00 00 
   1278b:	0f 1f 44 00 00       	nopl   0x0(%eax,%eax,1)

00012790 <device.tty.clear>:
   12790:	55                   	push   %ebp
   12791:	89 e5                	mov    %esp,%ebp
   12793:	b9 00 00 82 02       	mov    $0x2820000,%ecx
   12798:	e8 c3 ed ff ff       	call   11560 <device.tty.Terminal.clear>
   1279d:	5d                   	pop    %ebp
   1279e:	c3                   	ret
   1279f:	90                   	nop

000127a0 <device.tty.fprintln__anon_1397>:
   127a0:	55                   	push   %ebp
   127a1:	89 e5                	mov    %esp,%ebp
   127a3:	89 ca                	mov    %ecx,%edx
   127a5:	b9 00 00 82 02       	mov    $0x2820000,%ecx
   127aa:	e8 11 11 00 00       	call   138c0 <device.tty.Terminal.fprintln__anon_1550>
   127af:	5d                   	pop    %ebp
   127b0:	c3                   	ret
   127b1:	66 2e 0f 1f 84 00 00 	nopw   %cs:0x0(%eax,%eax,1)
   127b8:	00 00 00 
   127bb:	0f 1f 44 00 00       	nopl   0x0(%eax,%eax,1)

000127c0 <io.shell.Shell.clear_buffer>:
   127c0:	55                   	push   %ebp
   127c1:	89 e5                	mov    %esp,%ebp
   127c3:	83 ec 08             	sub    $0x8,%esp
   127c6:	89 4d f8             	mov    %ecx,-0x8(%ebp)
   127c9:	89 4d fc             	mov    %ecx,-0x4(%ebp)
   127cc:	8b 45 fc             	mov    -0x4(%ebp),%eax
   127cf:	66 c7 00 00 00       	movw   $0x0,(%eax)
   127d4:	83 c4 08             	add    $0x8,%esp
   127d7:	5d                   	pop    %ebp
   127d8:	c3                   	ret
   127d9:	0f 1f 80 00 00 00 00 	nopl   0x0(%eax)

000127e0 <fmt.bufPrint__anon_1546>:
   127e0:	55                   	push   %ebp
   127e1:	89 e5                	mov    %esp,%ebp
   127e3:	56                   	push   %esi
   127e4:	83 ec 64             	sub    $0x64,%esp
   127e7:	89 55 a4             	mov    %edx,-0x5c(%ebp)
   127ea:	89 4d a8             	mov    %ecx,-0x58(%ebp)
   127ed:	89 4d ac             	mov    %ecx,-0x54(%ebp)
   127f0:	8b 45 10             	mov    0x10(%ebp),%eax
   127f3:	89 45 b0             	mov    %eax,-0x50(%ebp)
   127f6:	8b 75 0c             	mov    0xc(%ebp),%esi
   127f9:	8b 4d 08             	mov    0x8(%ebp),%ecx
   127fc:	89 f0                	mov    %esi,%eax
   127fe:	89 ca                	mov    %ecx,%edx
   12800:	89 75 bc             	mov    %esi,-0x44(%ebp)
   12803:	89 4d b8             	mov    %ecx,-0x48(%ebp)
   12806:	8d 4d cc             	lea    -0x34(%ebp),%ecx
   12809:	89 04 24             	mov    %eax,(%esp)
   1280c:	e8 2f 17 00 00       	call   13f40 <io.fixed_buffer_stream.fixedBufferStream__anon_1650>
   12811:	8b 45 cc             	mov    -0x34(%ebp),%eax
   12814:	89 45 c0             	mov    %eax,-0x40(%ebp)
   12817:	8b 45 d0             	mov    -0x30(%ebp),%eax
   1281a:	89 45 c4             	mov    %eax,-0x3c(%ebp)
   1281d:	8b 45 d4             	mov    -0x2c(%ebp),%eax
   12820:	89 45 c8             	mov    %eax,-0x38(%ebp)
   12823:	8d 4d d8             	lea    -0x28(%ebp),%ecx
   12826:	8d 55 c0             	lea    -0x40(%ebp),%edx
   12829:	e8 42 17 00 00       	call   13f70 <io.fixed_buffer_stream.FixedBufferStream([]u8).writer>
   1282e:	8b 45 d8             	mov    -0x28(%ebp),%eax
   12831:	89 45 dc             	mov    %eax,-0x24(%ebp)
   12834:	8d 45 dc             	lea    -0x24(%ebp),%eax
   12837:	89 45 e0             	mov    %eax,-0x20(%ebp)
   1283a:	8d 45 dc             	lea    -0x24(%ebp),%eax
   1283d:	89 45 ec             	mov    %eax,-0x14(%ebp)
   12840:	8b 45 ec             	mov    -0x14(%ebp),%eax
   12843:	89 45 e4             	mov    %eax,-0x1c(%ebp)
   12846:	8d 05 80 3f 01 00    	lea    0x13f80,%eax
   1284c:	89 45 e8             	mov    %eax,-0x18(%ebp)
   1284f:	8d 45 e4             	lea    -0x1c(%ebp),%eax
   12852:	89 45 b4             	mov    %eax,-0x4c(%ebp)
   12855:	8b 45 b0             	mov    -0x50(%ebp),%eax
   12858:	8b 4d a4             	mov    -0x5c(%ebp),%ecx
   1285b:	8b 55 b4             	mov    -0x4c(%ebp),%edx
   1285e:	89 04 24             	mov    %eax,(%esp)
   12861:	e8 fa 12 00 00       	call   13b60 <fmt.format__anon_1683>
   12866:	66 89 45 a2          	mov    %ax,-0x5e(%ebp)
   1286a:	66 83 f8 00          	cmp    $0x0,%ax
   1286e:	74 3d                	je     128ad <fmt.bufPrint__anon_1546+0xcd>
   12870:	eb 3d                	jmp    128af <fmt.bufPrint__anon_1546+0xcf>
   12872:	8d 4d c0             	lea    -0x40(%ebp),%ecx
   12875:	e8 06 18 00 00       	call   14080 <io.fixed_buffer_stream.FixedBufferStream([]u8).getWritten>
   1287a:	8b 4d a8             	mov    -0x58(%ebp),%ecx
   1287d:	89 c6                	mov    %eax,%esi
   1287f:	8b 45 ac             	mov    -0x54(%ebp),%eax
   12882:	89 75 9c             	mov    %esi,-0x64(%ebp)
   12885:	89 d6                	mov    %edx,%esi
   12887:	8b 55 9c             	mov    -0x64(%ebp),%edx
   1288a:	66 c7 45 f8 00 00    	movw   $0x0,-0x8(%ebp)
   12890:	89 75 f4             	mov    %esi,-0xc(%ebp)
   12893:	89 55 f0             	mov    %edx,-0x10(%ebp)
   12896:	8b 55 f0             	mov    -0x10(%ebp),%edx
   12899:	89 11                	mov    %edx,(%ecx)
   1289b:	8b 55 f4             	mov    -0xc(%ebp),%edx
   1289e:	89 51 04             	mov    %edx,0x4(%ecx)
   128a1:	8b 55 f8             	mov    -0x8(%ebp),%edx
   128a4:	89 51 08             	mov    %edx,0x8(%ecx)
   128a7:	83 c4 64             	add    $0x64,%esp
   128aa:	5e                   	pop    %esi
   128ab:	5d                   	pop    %ebp
   128ac:	c3                   	ret
   128ad:	eb c3                	jmp    12872 <fmt.bufPrint__anon_1546+0x92>
   128af:	66 8b 45 a2          	mov    -0x5e(%ebp),%ax
   128b3:	66 83 e8 01          	sub    $0x1,%ax
   128b7:	74 11                	je     128ca <fmt.bufPrint__anon_1546+0xea>
   128b9:	eb 00                	jmp    128bb <fmt.bufPrint__anon_1546+0xdb>
   128bb:	66 8b 45 a2          	mov    -0x5e(%ebp),%ax
   128bf:	8b 4d a4             	mov    -0x5c(%ebp),%ecx
   128c2:	0f b7 d0             	movzwl %ax,%edx
   128c5:	e8 76 17 00 00       	call   14040 <builtin.panicUnwrapError>
   128ca:	8b 4d a4             	mov    -0x5c(%ebp),%ecx
   128cd:	e8 1e 15 00 00       	call   13df0 <builtin.returnError>
   128d2:	8b 4d a8             	mov    -0x58(%ebp),%ecx
   128d5:	8b 45 ac             	mov    -0x54(%ebp),%eax
   128d8:	8b 15 c4 f9 03 00    	mov    0x3f9c4,%edx
   128de:	89 11                	mov    %edx,(%ecx)
   128e0:	8b 15 c8 f9 03 00    	mov    0x3f9c8,%edx
   128e6:	89 51 04             	mov    %edx,0x4(%ecx)
   128e9:	8b 15 cc f9 03 00    	mov    0x3f9cc,%edx
   128ef:	89 51 08             	mov    %edx,0x8(%ecx)
   128f2:	83 c4 64             	add    $0x64,%esp
   128f5:	5e                   	pop    %esi
   128f6:	5d                   	pop    %ebp
   128f7:	c3                   	ret
   128f8:	0f 1f 84 00 00 00 00 	nopl   0x0(%eax,%eax,1)
   128ff:	00 

00012900 <device.tty.Terminal.fprintln__anon_1547>:
   12900:	55                   	push   %ebp
   12901:	89 e5                	mov    %esp,%ebp
   12903:	57                   	push   %edi
   12904:	56                   	push   %esi
   12905:	81 ec f4 00 00 00    	sub    $0xf4,%esp
   1290b:	89 d0                	mov    %edx,%eax
   1290d:	89 8d 34 ff ff ff    	mov    %ecx,-0xcc(%ebp)
   12913:	89 8d 3c ff ff ff    	mov    %ecx,-0xc4(%ebp)
   12919:	8d 95 40 ff ff ff    	lea    -0xc0(%ebp),%edx
   1291f:	89 55 c4             	mov    %edx,-0x3c(%ebp)
   12922:	c7 45 c8 20 00 00 00 	movl   $0x20,-0x38(%ebp)
   12929:	c7 45 c0 00 00 00 00 	movl   $0x0,-0x40(%ebp)
   12930:	8b 55 c0             	mov    -0x40(%ebp),%edx
   12933:	89 95 38 ff ff ff    	mov    %edx,-0xc8(%ebp)
   12939:	89 4d cc             	mov    %ecx,-0x34(%ebp)
   1293c:	8b 7d cc             	mov    -0x34(%ebp),%edi
   1293f:	83 c7 08             	add    $0x8,%edi
   12942:	be 00 02 00 00       	mov    $0x200,%esi
   12947:	8d 4d d0             	lea    -0x30(%ebp),%ecx
   1294a:	8d 55 c0             	lea    -0x40(%ebp),%edx
   1294d:	89 3c 24             	mov    %edi,(%esp)
   12950:	89 74 24 04          	mov    %esi,0x4(%esp)
   12954:	89 44 24 08          	mov    %eax,0x8(%esp)
   12958:	e8 a3 17 00 00       	call   14100 <fmt.bufPrint__anon_2166>
   1295d:	66 83 7d d8 00       	cmpw   $0x0,-0x28(%ebp)
   12962:	74 4e                	je     129b2 <device.tty.Terminal.fprintln__anon_1547+0xb2>
   12964:	eb 6c                	jmp    129d2 <device.tty.Terminal.fprintln__anon_1547+0xd2>
   12966:	8b 8d 24 ff ff ff    	mov    -0xdc(%ebp),%ecx
   1296c:	8b 85 20 ff ff ff    	mov    -0xe0(%ebp),%eax
   12972:	89 85 28 ff ff ff    	mov    %eax,-0xd8(%ebp)
   12978:	89 8d 2c ff ff ff    	mov    %ecx,-0xd4(%ebp)
   1297e:	89 4d e4             	mov    %ecx,-0x1c(%ebp)
   12981:	89 45 e8             	mov    %eax,-0x18(%ebp)
   12984:	b8 00 00 82 02       	mov    $0x2820000,%eax
   12989:	89 45 ec             	mov    %eax,-0x14(%ebp)
   1298c:	b8 04 00 82 02       	mov    $0x2820004,%eax
   12991:	66 8b 00             	mov    (%eax),%ax
   12994:	66 b9 50 00          	mov    $0x50,%cx
   12998:	66 f7 e1             	mul    %cx
   1299b:	66 89 85 32 ff ff ff 	mov    %ax,-0xce(%ebp)
   129a2:	0f 90 c0             	seto   %al
   129a5:	a8 01                	test   $0x1,%al
   129a7:	0f 85 f2 00 00 00    	jne    12a9f <device.tty.Terminal.fprintln__anon_1547+0x19f>
   129ad:	e9 10 01 00 00       	jmp    12ac2 <device.tty.Terminal.fprintln__anon_1547+0x1c2>
   129b2:	8b 45 d0             	mov    -0x30(%ebp),%eax
   129b5:	8b 4d d4             	mov    -0x2c(%ebp),%ecx
   129b8:	89 4d e0             	mov    %ecx,-0x20(%ebp)
   129bb:	89 45 dc             	mov    %eax,-0x24(%ebp)
   129be:	8b 4d dc             	mov    -0x24(%ebp),%ecx
   129c1:	8b 45 e0             	mov    -0x20(%ebp),%eax
   129c4:	89 8d 24 ff ff ff    	mov    %ecx,-0xdc(%ebp)
   129ca:	89 85 20 ff ff ff    	mov    %eax,-0xe0(%ebp)
   129d0:	eb 94                	jmp    12966 <device.tty.Terminal.fprintln__anon_1547+0x66>
   129d2:	66 8b 45 d8          	mov    -0x28(%ebp),%ax
   129d6:	66 83 e8 01          	sub    $0x1,%ax
   129da:	74 24                	je     12a00 <device.tty.Terminal.fprintln__anon_1547+0x100>
   129dc:	eb 00                	jmp    129de <device.tty.Terminal.fprintln__anon_1547+0xde>
   129de:	b9 b9 04 04 00       	mov    $0x404b9,%ecx
   129e3:	ba 17 00 00 00       	mov    $0x17,%edx
   129e8:	31 c0                	xor    %eax,%eax
   129ea:	8d 05 e8 fd 03 00    	lea    0x3fde8,%eax
   129f0:	c7 04 24 00 00 00 00 	movl   $0x0,(%esp)
   129f7:	89 44 24 04          	mov    %eax,0x4(%esp)
   129fb:	e8 b0 f0 ff ff       	call   11ab0 <builtin.default_panic>
   12a00:	8b 85 38 ff ff ff    	mov    -0xc8(%ebp),%eax
   12a06:	89 45 c0             	mov    %eax,-0x40(%ebp)
   12a09:	b8 16 00 00 00       	mov    $0x16,%eax
   12a0e:	b9 78 03 04 00       	mov    $0x40378,%ecx
   12a13:	89 8d 24 ff ff ff    	mov    %ecx,-0xdc(%ebp)
   12a19:	89 85 20 ff ff ff    	mov    %eax,-0xe0(%ebp)
   12a1f:	e9 42 ff ff ff       	jmp    12966 <device.tty.Terminal.fprintln__anon_1547+0x66>
   12a24:	8b 85 28 ff ff ff    	mov    -0xd8(%ebp),%eax
   12a2a:	8b b5 2c ff ff ff    	mov    -0xd4(%ebp),%esi
   12a30:	66 8b 95 16 ff ff ff 	mov    -0xea(%ebp),%dx
   12a37:	b9 00 00 82 02       	mov    $0x2820000,%ecx
   12a3c:	0f b7 d2             	movzwl %dx,%edx
   12a3f:	89 34 24             	mov    %esi,(%esp)
   12a42:	89 44 24 04          	mov    %eax,0x4(%esp)
   12a46:	c7 44 24 08 0f 00 00 	movl   $0xf,0x8(%esp)
   12a4d:	00 
   12a4e:	e8 bd eb ff ff       	call   11610 <device.tty.Terminal.write>
   12a53:	8b 85 28 ff ff ff    	mov    -0xd8(%ebp),%eax
   12a59:	8b 8d 34 ff ff ff    	mov    -0xcc(%ebp),%ecx
   12a5f:	be 50 00 00 00       	mov    $0x50,%esi
   12a64:	31 d2                	xor    %edx,%edx
   12a66:	f7 f6                	div    %esi
   12a68:	66 89 45 f2          	mov    %ax,-0xe(%ebp)
   12a6c:	89 4d f4             	mov    %ecx,-0xc(%ebp)
   12a6f:	8b 4d f4             	mov    -0xc(%ebp),%ecx
   12a72:	89 ca                	mov    %ecx,%edx
   12a74:	83 c2 04             	add    $0x4,%edx
   12a77:	89 95 18 ff ff ff    	mov    %edx,-0xe8(%ebp)
   12a7d:	66 8b 49 04          	mov    0x4(%ecx),%cx
   12a81:	66 89 8d 1c ff ff ff 	mov    %cx,-0xe4(%ebp)
   12a88:	66 83 c0 01          	add    $0x1,%ax
   12a8c:	66 89 85 1e ff ff ff 	mov    %ax,-0xe2(%ebp)
   12a93:	0f 92 c0             	setb   %al
   12a96:	a8 01                	test   $0x1,%al
   12a98:	75 79                	jne    12b13 <device.tty.Terminal.fprintln__anon_1547+0x213>
   12a9a:	e9 97 00 00 00       	jmp    12b36 <device.tty.Terminal.fprintln__anon_1547+0x236>
   12a9f:	8d 0d 29 02 04 00    	lea    0x40229,%ecx
   12aa5:	ba 10 00 00 00       	mov    $0x10,%edx
   12aaa:	31 c0                	xor    %eax,%eax
   12aac:	8d 05 e8 fd 03 00    	lea    0x3fde8,%eax
   12ab2:	c7 04 24 00 00 00 00 	movl   $0x0,(%esp)
   12ab9:	89 44 24 04          	mov    %eax,0x4(%esp)
   12abd:	e8 ee ef ff ff       	call   11ab0 <builtin.default_panic>
   12ac2:	66 8b 85 32 ff ff ff 	mov    -0xce(%ebp),%ax
   12ac9:	66 83 c0 06          	add    $0x6,%ax
   12acd:	66 89 85 14 ff ff ff 	mov    %ax,-0xec(%ebp)
   12ad4:	0f 92 c0             	setb   %al
   12ad7:	a8 01                	test   $0x1,%al
   12ad9:	75 02                	jne    12add <device.tty.Terminal.fprintln__anon_1547+0x1dd>
   12adb:	eb 23                	jmp    12b00 <device.tty.Terminal.fprintln__anon_1547+0x200>
   12add:	8d 0d 29 02 04 00    	lea    0x40229,%ecx
   12ae3:	ba 10 00 00 00       	mov    $0x10,%edx
   12ae8:	31 c0                	xor    %eax,%eax
   12aea:	8d 05 e8 fd 03 00    	lea    0x3fde8,%eax
   12af0:	c7 04 24 00 00 00 00 	movl   $0x0,(%esp)
   12af7:	89 44 24 04          	mov    %eax,0x4(%esp)
   12afb:	e8 b0 ef ff ff       	call   11ab0 <builtin.default_panic>
   12b00:	66 8b 85 14 ff ff ff 	mov    -0xec(%ebp),%ax
   12b07:	66 89 85 16 ff ff ff 	mov    %ax,-0xea(%ebp)
   12b0e:	e9 11 ff ff ff       	jmp    12a24 <device.tty.Terminal.fprintln__anon_1547+0x124>
   12b13:	8d 0d 29 02 04 00    	lea    0x40229,%ecx
   12b19:	ba 10 00 00 00       	mov    $0x10,%edx
   12b1e:	31 c0                	xor    %eax,%eax
   12b20:	8d 05 e8 fd 03 00    	lea    0x3fde8,%eax
   12b26:	c7 04 24 00 00 00 00 	movl   $0x0,(%esp)
   12b2d:	89 44 24 04          	mov    %eax,0x4(%esp)
   12b31:	e8 7a ef ff ff       	call   11ab0 <builtin.default_panic>
   12b36:	66 8b 8d 1e ff ff ff 	mov    -0xe2(%ebp),%cx
   12b3d:	66 8b 85 1c ff ff ff 	mov    -0xe4(%ebp),%ax
   12b44:	66 01 c8             	add    %cx,%ax
   12b47:	66 89 85 12 ff ff ff 	mov    %ax,-0xee(%ebp)
   12b4e:	0f 92 c0             	setb   %al
   12b51:	a8 01                	test   $0x1,%al
   12b53:	75 02                	jne    12b57 <device.tty.Terminal.fprintln__anon_1547+0x257>
   12b55:	eb 23                	jmp    12b7a <device.tty.Terminal.fprintln__anon_1547+0x27a>
   12b57:	8d 0d 29 02 04 00    	lea    0x40229,%ecx
   12b5d:	ba 10 00 00 00       	mov    $0x10,%edx
   12b62:	31 c0                	xor    %eax,%eax
   12b64:	8d 05 e8 fd 03 00    	lea    0x3fde8,%eax
   12b6a:	c7 04 24 00 00 00 00 	movl   $0x0,(%esp)
   12b71:	89 44 24 04          	mov    %eax,0x4(%esp)
   12b75:	e8 36 ef ff ff       	call   11ab0 <builtin.default_panic>
   12b7a:	8b 85 18 ff ff ff    	mov    -0xe8(%ebp),%eax
   12b80:	66 8b 8d 12 ff ff ff 	mov    -0xee(%ebp),%cx
   12b87:	66 89 08             	mov    %cx,(%eax)
   12b8a:	81 c4 f4 00 00 00    	add    $0xf4,%esp
   12b90:	5e                   	pop    %esi
   12b91:	5f                   	pop    %edi
   12b92:	5d                   	pop    %ebp
   12b93:	c3                   	ret
   12b94:	66 2e 0f 1f 84 00 00 	nopw   %cs:0x0(%eax,%eax,1)
   12b9b:	00 00 00 
   12b9e:	66 90                	xchg   %ax,%ax

00012ba0 <device.tty.Terminal.fprintln__anon_1548>:
   12ba0:	55                   	push   %ebp
   12ba1:	89 e5                	mov    %esp,%ebp
   12ba3:	57                   	push   %edi
   12ba4:	56                   	push   %esi
   12ba5:	81 ec f4 00 00 00    	sub    $0xf4,%esp
   12bab:	89 d0                	mov    %edx,%eax
   12bad:	89 8d 34 ff ff ff    	mov    %ecx,-0xcc(%ebp)
   12bb3:	89 8d 3c ff ff ff    	mov    %ecx,-0xc4(%ebp)
   12bb9:	8d 95 40 ff ff ff    	lea    -0xc0(%ebp),%edx
   12bbf:	89 55 c4             	mov    %edx,-0x3c(%ebp)
   12bc2:	c7 45 c8 20 00 00 00 	movl   $0x20,-0x38(%ebp)
   12bc9:	c7 45 c0 00 00 00 00 	movl   $0x0,-0x40(%ebp)
   12bd0:	8b 55 c0             	mov    -0x40(%ebp),%edx
   12bd3:	89 95 38 ff ff ff    	mov    %edx,-0xc8(%ebp)
   12bd9:	89 4d cc             	mov    %ecx,-0x34(%ebp)
   12bdc:	8b 7d cc             	mov    -0x34(%ebp),%edi
   12bdf:	83 c7 08             	add    $0x8,%edi
   12be2:	be 00 02 00 00       	mov    $0x200,%esi
   12be7:	8d 4d d0             	lea    -0x30(%ebp),%ecx
   12bea:	8d 55 c0             	lea    -0x40(%ebp),%edx
   12bed:	89 3c 24             	mov    %edi,(%esp)
   12bf0:	89 74 24 04          	mov    %esi,0x4(%esp)
   12bf4:	89 44 24 08          	mov    %eax,0x8(%esp)
   12bf8:	e8 23 16 00 00       	call   14220 <fmt.bufPrint__anon_2167>
   12bfd:	66 83 7d d8 00       	cmpw   $0x0,-0x28(%ebp)
   12c02:	74 4e                	je     12c52 <device.tty.Terminal.fprintln__anon_1548+0xb2>
   12c04:	eb 6c                	jmp    12c72 <device.tty.Terminal.fprintln__anon_1548+0xd2>
   12c06:	8b 8d 24 ff ff ff    	mov    -0xdc(%ebp),%ecx
   12c0c:	8b 85 20 ff ff ff    	mov    -0xe0(%ebp),%eax
   12c12:	89 85 28 ff ff ff    	mov    %eax,-0xd8(%ebp)
   12c18:	89 8d 2c ff ff ff    	mov    %ecx,-0xd4(%ebp)
   12c1e:	89 4d e4             	mov    %ecx,-0x1c(%ebp)
   12c21:	89 45 e8             	mov    %eax,-0x18(%ebp)
   12c24:	b8 00 00 82 02       	mov    $0x2820000,%eax
   12c29:	89 45 ec             	mov    %eax,-0x14(%ebp)
   12c2c:	b8 04 00 82 02       	mov    $0x2820004,%eax
   12c31:	66 8b 00             	mov    (%eax),%ax
   12c34:	66 b9 50 00          	mov    $0x50,%cx
   12c38:	66 f7 e1             	mul    %cx
   12c3b:	66 89 85 32 ff ff ff 	mov    %ax,-0xce(%ebp)
   12c42:	0f 90 c0             	seto   %al
   12c45:	a8 01                	test   $0x1,%al
   12c47:	0f 85 f2 00 00 00    	jne    12d3f <device.tty.Terminal.fprintln__anon_1548+0x19f>
   12c4d:	e9 10 01 00 00       	jmp    12d62 <device.tty.Terminal.fprintln__anon_1548+0x1c2>
   12c52:	8b 45 d0             	mov    -0x30(%ebp),%eax
   12c55:	8b 4d d4             	mov    -0x2c(%ebp),%ecx
   12c58:	89 4d e0             	mov    %ecx,-0x20(%ebp)
   12c5b:	89 45 dc             	mov    %eax,-0x24(%ebp)
   12c5e:	8b 4d dc             	mov    -0x24(%ebp),%ecx
   12c61:	8b 45 e0             	mov    -0x20(%ebp),%eax
   12c64:	89 8d 24 ff ff ff    	mov    %ecx,-0xdc(%ebp)
   12c6a:	89 85 20 ff ff ff    	mov    %eax,-0xe0(%ebp)
   12c70:	eb 94                	jmp    12c06 <device.tty.Terminal.fprintln__anon_1548+0x66>
   12c72:	66 8b 45 d8          	mov    -0x28(%ebp),%ax
   12c76:	66 83 e8 01          	sub    $0x1,%ax
   12c7a:	74 24                	je     12ca0 <device.tty.Terminal.fprintln__anon_1548+0x100>
   12c7c:	eb 00                	jmp    12c7e <device.tty.Terminal.fprintln__anon_1548+0xde>
   12c7e:	b9 b9 04 04 00       	mov    $0x404b9,%ecx
   12c83:	ba 17 00 00 00       	mov    $0x17,%edx
   12c88:	31 c0                	xor    %eax,%eax
   12c8a:	8d 05 e8 fd 03 00    	lea    0x3fde8,%eax
   12c90:	c7 04 24 00 00 00 00 	movl   $0x0,(%esp)
   12c97:	89 44 24 04          	mov    %eax,0x4(%esp)
   12c9b:	e8 10 ee ff ff       	call   11ab0 <builtin.default_panic>
   12ca0:	8b 85 38 ff ff ff    	mov    -0xc8(%ebp),%eax
   12ca6:	89 45 c0             	mov    %eax,-0x40(%ebp)
   12ca9:	b8 16 00 00 00       	mov    $0x16,%eax
   12cae:	b9 78 03 04 00       	mov    $0x40378,%ecx
   12cb3:	89 8d 24 ff ff ff    	mov    %ecx,-0xdc(%ebp)
   12cb9:	89 85 20 ff ff ff    	mov    %eax,-0xe0(%ebp)
   12cbf:	e9 42 ff ff ff       	jmp    12c06 <device.tty.Terminal.fprintln__anon_1548+0x66>
   12cc4:	8b 85 28 ff ff ff    	mov    -0xd8(%ebp),%eax
   12cca:	8b b5 2c ff ff ff    	mov    -0xd4(%ebp),%esi
   12cd0:	66 8b 95 16 ff ff ff 	mov    -0xea(%ebp),%dx
   12cd7:	b9 00 00 82 02       	mov    $0x2820000,%ecx
   12cdc:	0f b7 d2             	movzwl %dx,%edx
   12cdf:	89 34 24             	mov    %esi,(%esp)
   12ce2:	89 44 24 04          	mov    %eax,0x4(%esp)
   12ce6:	c7 44 24 08 0f 00 00 	movl   $0xf,0x8(%esp)
   12ced:	00 
   12cee:	e8 1d e9 ff ff       	call   11610 <device.tty.Terminal.write>
   12cf3:	8b 85 28 ff ff ff    	mov    -0xd8(%ebp),%eax
   12cf9:	8b 8d 34 ff ff ff    	mov    -0xcc(%ebp),%ecx
   12cff:	be 50 00 00 00       	mov    $0x50,%esi
   12d04:	31 d2                	xor    %edx,%edx
   12d06:	f7 f6                	div    %esi
   12d08:	66 89 45 f2          	mov    %ax,-0xe(%ebp)
   12d0c:	89 4d f4             	mov    %ecx,-0xc(%ebp)
   12d0f:	8b 4d f4             	mov    -0xc(%ebp),%ecx
   12d12:	89 ca                	mov    %ecx,%edx
   12d14:	83 c2 04             	add    $0x4,%edx
   12d17:	89 95 18 ff ff ff    	mov    %edx,-0xe8(%ebp)
   12d1d:	66 8b 49 04          	mov    0x4(%ecx),%cx
   12d21:	66 89 8d 1c ff ff ff 	mov    %cx,-0xe4(%ebp)
   12d28:	66 83 c0 01          	add    $0x1,%ax
   12d2c:	66 89 85 1e ff ff ff 	mov    %ax,-0xe2(%ebp)
   12d33:	0f 92 c0             	setb   %al
   12d36:	a8 01                	test   $0x1,%al
   12d38:	75 79                	jne    12db3 <device.tty.Terminal.fprintln__anon_1548+0x213>
   12d3a:	e9 97 00 00 00       	jmp    12dd6 <device.tty.Terminal.fprintln__anon_1548+0x236>
   12d3f:	8d 0d 29 02 04 00    	lea    0x40229,%ecx
   12d45:	ba 10 00 00 00       	mov    $0x10,%edx
   12d4a:	31 c0                	xor    %eax,%eax
   12d4c:	8d 05 e8 fd 03 00    	lea    0x3fde8,%eax
   12d52:	c7 04 24 00 00 00 00 	movl   $0x0,(%esp)
   12d59:	89 44 24 04          	mov    %eax,0x4(%esp)
   12d5d:	e8 4e ed ff ff       	call   11ab0 <builtin.default_panic>
   12d62:	66 8b 85 32 ff ff ff 	mov    -0xce(%ebp),%ax
   12d69:	66 83 c0 06          	add    $0x6,%ax
   12d6d:	66 89 85 14 ff ff ff 	mov    %ax,-0xec(%ebp)
   12d74:	0f 92 c0             	setb   %al
   12d77:	a8 01                	test   $0x1,%al
   12d79:	75 02                	jne    12d7d <device.tty.Terminal.fprintln__anon_1548+0x1dd>
   12d7b:	eb 23                	jmp    12da0 <device.tty.Terminal.fprintln__anon_1548+0x200>
   12d7d:	8d 0d 29 02 04 00    	lea    0x40229,%ecx
   12d83:	ba 10 00 00 00       	mov    $0x10,%edx
   12d88:	31 c0                	xor    %eax,%eax
   12d8a:	8d 05 e8 fd 03 00    	lea    0x3fde8,%eax
   12d90:	c7 04 24 00 00 00 00 	movl   $0x0,(%esp)
   12d97:	89 44 24 04          	mov    %eax,0x4(%esp)
   12d9b:	e8 10 ed ff ff       	call   11ab0 <builtin.default_panic>
   12da0:	66 8b 85 14 ff ff ff 	mov    -0xec(%ebp),%ax
   12da7:	66 89 85 16 ff ff ff 	mov    %ax,-0xea(%ebp)
   12dae:	e9 11 ff ff ff       	jmp    12cc4 <device.tty.Terminal.fprintln__anon_1548+0x124>
   12db3:	8d 0d 29 02 04 00    	lea    0x40229,%ecx
   12db9:	ba 10 00 00 00       	mov    $0x10,%edx
   12dbe:	31 c0                	xor    %eax,%eax
   12dc0:	8d 05 e8 fd 03 00    	lea    0x3fde8,%eax
   12dc6:	c7 04 24 00 00 00 00 	movl   $0x0,(%esp)
   12dcd:	89 44 24 04          	mov    %eax,0x4(%esp)
   12dd1:	e8 da ec ff ff       	call   11ab0 <builtin.default_panic>
   12dd6:	66 8b 8d 1e ff ff ff 	mov    -0xe2(%ebp),%cx
   12ddd:	66 8b 85 1c ff ff ff 	mov    -0xe4(%ebp),%ax
   12de4:	66 01 c8             	add    %cx,%ax
   12de7:	66 89 85 12 ff ff ff 	mov    %ax,-0xee(%ebp)
   12dee:	0f 92 c0             	setb   %al
   12df1:	a8 01                	test   $0x1,%al
   12df3:	75 02                	jne    12df7 <device.tty.Terminal.fprintln__anon_1548+0x257>
   12df5:	eb 23                	jmp    12e1a <device.tty.Terminal.fprintln__anon_1548+0x27a>
   12df7:	8d 0d 29 02 04 00    	lea    0x40229,%ecx
   12dfd:	ba 10 00 00 00       	mov    $0x10,%edx
   12e02:	31 c0                	xor    %eax,%eax
   12e04:	8d 05 e8 fd 03 00    	lea    0x3fde8,%eax
   12e0a:	c7 04 24 00 00 00 00 	movl   $0x0,(%esp)
   12e11:	89 44 24 04          	mov    %eax,0x4(%esp)
   12e15:	e8 96 ec ff ff       	call   11ab0 <builtin.default_panic>
   12e1a:	8b 85 18 ff ff ff    	mov    -0xe8(%ebp),%eax
   12e20:	66 8b 8d 12 ff ff ff 	mov    -0xee(%ebp),%cx
   12e27:	66 89 08             	mov    %cx,(%eax)
   12e2a:	81 c4 f4 00 00 00    	add    $0xf4,%esp
   12e30:	5e                   	pop    %esi
   12e31:	5f                   	pop    %edi
   12e32:	5d                   	pop    %ebp
   12e33:	c3                   	ret
   12e34:	66 2e 0f 1f 84 00 00 	nopw   %cs:0x0(%eax,%eax,1)
   12e3b:	00 00 00 
   12e3e:	66 90                	xchg   %ax,%ax

00012e40 <builtin.panicStartGreaterThanEnd>:
   12e40:	55                   	push   %ebp
   12e41:	89 e5                	mov    %esp,%ebp
   12e43:	83 ec 1c             	sub    $0x1c,%esp
   12e46:	89 4d e8             	mov    %ecx,-0x18(%ebp)
   12e49:	89 55 ec             	mov    %edx,-0x14(%ebp)
   12e4c:	8b 45 04             	mov    0x4(%ebp),%eax
   12e4f:	89 45 f0             	mov    %eax,-0x10(%ebp)
   12e52:	c6 45 f4 01          	movb   $0x1,-0xc(%ebp)
   12e56:	89 4d f8             	mov    %ecx,-0x8(%ebp)
   12e59:	89 55 fc             	mov    %edx,-0x4(%ebp)
   12e5c:	31 c9                	xor    %ecx,%ecx
   12e5e:	8d 55 f0             	lea    -0x10(%ebp),%edx
   12e61:	8d 45 f8             	lea    -0x8(%ebp),%eax
   12e64:	89 04 24             	mov    %eax,(%esp)
   12e67:	e8 d4 14 00 00       	call   14340 <debug.panicExtra__anon_2168>
   12e6c:	0f 1f 40 00          	nopl   0x0(%eax)

00012e70 <mem.sliceAsBytes__anon_1549>:
   12e70:	55                   	push   %ebp
   12e71:	89 e5                	mov    %esp,%ebp
   12e73:	56                   	push   %esi
   12e74:	83 ec 1c             	sub    $0x1c,%esp
   12e77:	89 d0                	mov    %edx,%eax
   12e79:	89 c2                	mov    %eax,%edx
   12e7b:	89 55 e8             	mov    %edx,-0x18(%ebp)
   12e7e:	89 ce                	mov    %ecx,%esi
   12e80:	89 75 ec             	mov    %esi,-0x14(%ebp)
   12e83:	89 45 f4             	mov    %eax,-0xc(%ebp)
   12e86:	89 4d f0             	mov    %ecx,-0x10(%ebp)
   12e89:	83 fa 00             	cmp    $0x0,%edx
   12e8c:	74 22                	je     12eb0 <mem.sliceAsBytes__anon_1549+0x40>
   12e8e:	eb 22                	jmp    12eb2 <mem.sliceAsBytes__anon_1549+0x42>
   12e90:	8b 4d e8             	mov    -0x18(%ebp),%ecx
   12e93:	8b 45 ec             	mov    -0x14(%ebp),%eax
   12e96:	89 45 f8             	mov    %eax,-0x8(%ebp)
   12e99:	8b 45 f8             	mov    -0x8(%ebp),%eax
   12e9c:	89 45 e4             	mov    %eax,-0x1c(%ebp)
   12e9f:	31 c0                	xor    %eax,%eax
   12ea1:	39 c8                	cmp    %ecx,%eax
   12ea3:	76 35                	jbe    12eda <mem.sliceAsBytes__anon_1549+0x6a>
   12ea5:	eb 35                	jmp    12edc <mem.sliceAsBytes__anon_1549+0x6c>
   12ea7:	8a 45 e3             	mov    -0x1d(%ebp),%al
   12eaa:	a8 01                	test   $0x1,%al
   12eac:	75 12                	jne    12ec0 <mem.sliceAsBytes__anon_1549+0x50>
   12eae:	eb 1d                	jmp    12ecd <mem.sliceAsBytes__anon_1549+0x5d>
   12eb0:	eb 07                	jmp    12eb9 <mem.sliceAsBytes__anon_1549+0x49>
   12eb2:	31 c0                	xor    %eax,%eax
   12eb4:	88 45 e3             	mov    %al,-0x1d(%ebp)
   12eb7:	eb ee                	jmp    12ea7 <mem.sliceAsBytes__anon_1549+0x37>
   12eb9:	b0 01                	mov    $0x1,%al
   12ebb:	88 45 e3             	mov    %al,-0x1d(%ebp)
   12ebe:	eb e7                	jmp    12ea7 <mem.sliceAsBytes__anon_1549+0x37>
   12ec0:	b8 aa aa aa aa       	mov    $0xaaaaaaaa,%eax
   12ec5:	31 d2                	xor    %edx,%edx
   12ec7:	83 c4 1c             	add    $0x1c,%esp
   12eca:	5e                   	pop    %esi
   12ecb:	5d                   	pop    %ebp
   12ecc:	c3                   	ret
   12ecd:	eb c1                	jmp    12e90 <mem.sliceAsBytes__anon_1549+0x20>
   12ecf:	8b 4d e8             	mov    -0x18(%ebp),%ecx
   12ed2:	31 c0                	xor    %eax,%eax
   12ed4:	39 c8                	cmp    %ecx,%eax
   12ed6:	76 1a                	jbe    12ef2 <mem.sliceAsBytes__anon_1549+0x82>
   12ed8:	eb 1a                	jmp    12ef4 <mem.sliceAsBytes__anon_1549+0x84>
   12eda:	eb f3                	jmp    12ecf <mem.sliceAsBytes__anon_1549+0x5f>
   12edc:	8b 55 e8             	mov    -0x18(%ebp),%edx
   12edf:	31 c9                	xor    %ecx,%ecx
   12ee1:	e8 5a ff ff ff       	call   12e40 <builtin.panicStartGreaterThanEnd>
   12ee6:	8b 55 e8             	mov    -0x18(%ebp),%edx
   12ee9:	8b 45 e4             	mov    -0x1c(%ebp),%eax
   12eec:	83 c4 1c             	add    $0x1c,%esp
   12eef:	5e                   	pop    %esi
   12ef0:	5d                   	pop    %ebp
   12ef1:	c3                   	ret
   12ef2:	eb f2                	jmp    12ee6 <mem.sliceAsBytes__anon_1549+0x76>
   12ef4:	8b 55 e8             	mov    -0x18(%ebp),%edx
   12ef7:	31 c9                	xor    %ecx,%ecx
   12ef9:	e8 d2 eb ff ff       	call   11ad0 <builtin.panicOutOfBounds>
   12efe:	66 90                	xchg   %ax,%ax

00012f00 <mem.eqlBytes>:
   12f00:	55                   	push   %ebp
   12f01:	89 e5                	mov    %esp,%ebp
   12f03:	53                   	push   %ebx
   12f04:	57                   	push   %edi
   12f05:	56                   	push   %esi
   12f06:	83 e4 f0             	and    $0xfffffff0,%esp
   12f09:	81 ec 20 02 00 00    	sub    $0x220,%esp
   12f0f:	89 d3                	mov    %edx,%ebx
   12f11:	89 cf                	mov    %ecx,%edi
   12f13:	8b 75 0c             	mov    0xc(%ebp),%esi
   12f16:	8b 4d 08             	mov    0x8(%ebp),%ecx
   12f19:	89 da                	mov    %ebx,%edx
   12f1b:	89 94 24 ec 00 00 00 	mov    %edx,0xec(%esp)
   12f22:	89 f8                	mov    %edi,%eax
   12f24:	89 84 24 f0 00 00 00 	mov    %eax,0xf0(%esp)
   12f2b:	89 f0                	mov    %esi,%eax
   12f2d:	89 84 24 f8 00 00 00 	mov    %eax,0xf8(%esp)
   12f34:	89 c8                	mov    %ecx,%eax
   12f36:	89 84 24 f4 00 00 00 	mov    %eax,0xf4(%esp)
   12f3d:	8b 84 24 f8 00 00 00 	mov    0xf8(%esp),%eax
   12f44:	89 9c 24 00 01 00 00 	mov    %ebx,0x100(%esp)
   12f4b:	89 bc 24 fc 00 00 00 	mov    %edi,0xfc(%esp)
   12f52:	89 b4 24 08 01 00 00 	mov    %esi,0x108(%esp)
   12f59:	89 8c 24 04 01 00 00 	mov    %ecx,0x104(%esp)
   12f60:	39 c2                	cmp    %eax,%edx
   12f62:	75 10                	jne    12f74 <mem.eqlBytes+0x74>
   12f64:	eb 18                	jmp    12f7e <mem.eqlBytes+0x7e>
   12f66:	8b 84 24 ec 00 00 00 	mov    0xec(%esp),%eax
   12f6d:	83 f8 00             	cmp    $0x0,%eax
   12f70:	74 29                	je     12f9b <mem.eqlBytes+0x9b>
   12f72:	eb 32                	jmp    12fa6 <mem.eqlBytes+0xa6>
   12f74:	31 c0                	xor    %eax,%eax
   12f76:	8d 65 f4             	lea    -0xc(%ebp),%esp
   12f79:	5e                   	pop    %esi
   12f7a:	5f                   	pop    %edi
   12f7b:	5b                   	pop    %ebx
   12f7c:	5d                   	pop    %ebp
   12f7d:	c3                   	ret
   12f7e:	eb e6                	jmp    12f66 <mem.eqlBytes+0x66>
   12f80:	8b 84 24 ec 00 00 00 	mov    0xec(%esp),%eax
   12f87:	83 f8 10             	cmp    $0x10,%eax
   12f8a:	76 52                	jbe    12fde <mem.eqlBytes+0xde>
   12f8c:	eb 5e                	jmp    12fec <mem.eqlBytes+0xec>
   12f8e:	8a 84 24 eb 00 00 00 	mov    0xeb(%esp),%al
   12f95:	a8 01                	test   $0x1,%al
   12f97:	75 29                	jne    12fc2 <mem.eqlBytes+0xc2>
   12f99:	eb 31                	jmp    12fcc <mem.eqlBytes+0xcc>
   12f9b:	b0 01                	mov    $0x1,%al
   12f9d:	88 84 24 eb 00 00 00 	mov    %al,0xeb(%esp)
   12fa4:	eb e8                	jmp    12f8e <mem.eqlBytes+0x8e>
   12fa6:	8b 84 24 f0 00 00 00 	mov    0xf0(%esp),%eax
   12fad:	8b 8c 24 f4 00 00 00 	mov    0xf4(%esp),%ecx
   12fb4:	39 c8                	cmp    %ecx,%eax
   12fb6:	0f 94 c0             	sete   %al
   12fb9:	88 84 24 eb 00 00 00 	mov    %al,0xeb(%esp)
   12fc0:	eb cc                	jmp    12f8e <mem.eqlBytes+0x8e>
   12fc2:	b0 01                	mov    $0x1,%al
   12fc4:	8d 65 f4             	lea    -0xc(%ebp),%esp
   12fc7:	5e                   	pop    %esi
   12fc8:	5f                   	pop    %edi
   12fc9:	5b                   	pop    %ebx
   12fca:	5d                   	pop    %ebp
   12fcb:	c3                   	ret
   12fcc:	eb b2                	jmp    12f80 <mem.eqlBytes+0x80>
   12fce:	c7 84 24 3c 01 00 00 	movl   $0x1,0x13c(%esp)
   12fd5:	01 00 00 00 
   12fd9:	e9 22 05 00 00       	jmp    13500 <mem.eqlBytes+0x600>
   12fde:	8b 84 24 ec 00 00 00 	mov    0xec(%esp),%eax
   12fe5:	83 f8 04             	cmp    $0x4,%eax
   12fe8:	72 39                	jb     13023 <mem.eqlBytes+0x123>
   12fea:	eb 46                	jmp    13032 <mem.eqlBytes+0x132>
   12fec:	eb e0                	jmp    12fce <mem.eqlBytes+0xce>
   12fee:	8b 84 24 ec 00 00 00 	mov    0xec(%esp),%eax
   12ff5:	c7 84 24 10 01 00 00 	movl   $0x0,0x110(%esp)
   12ffc:	00 00 00 00 
   13000:	c7 84 24 14 01 00 00 	movl   $0x0,0x114(%esp)
   13007:	00 00 00 00 
   1300b:	83 e8 04             	sub    $0x4,%eax
   1300e:	89 84 24 e4 00 00 00 	mov    %eax,0xe4(%esp)
   13015:	0f 92 c0             	setb   %al
   13018:	0f 82 20 02 00 00    	jb     1323e <mem.eqlBytes+0x33e>
   1301e:	e9 3e 02 00 00       	jmp    13261 <mem.eqlBytes+0x361>
   13023:	8b 8c 24 ec 00 00 00 	mov    0xec(%esp),%ecx
   1302a:	31 c0                	xor    %eax,%eax
   1302c:	39 c8                	cmp    %ecx,%eax
   1302e:	72 23                	jb     13053 <mem.eqlBytes+0x153>
   13030:	eb 23                	jmp    13055 <mem.eqlBytes+0x155>
   13032:	eb ba                	jmp    12fee <mem.eqlBytes+0xee>
   13034:	8b 8c 24 f8 00 00 00 	mov    0xf8(%esp),%ecx
   1303b:	8b 84 24 f0 00 00 00 	mov    0xf0(%esp),%eax
   13042:	8a 00                	mov    (%eax),%al
   13044:	88 84 24 e3 00 00 00 	mov    %al,0xe3(%esp)
   1304b:	31 c0                	xor    %eax,%eax
   1304d:	39 c8                	cmp    %ecx,%eax
   1304f:	72 41                	jb     13092 <mem.eqlBytes+0x192>
   13051:	eb 41                	jmp    13094 <mem.eqlBytes+0x194>
   13053:	eb df                	jmp    13034 <mem.eqlBytes+0x134>
   13055:	8b 94 24 ec 00 00 00 	mov    0xec(%esp),%edx
   1305c:	31 c9                	xor    %ecx,%ecx
   1305e:	e8 6d ea ff ff       	call   11ad0 <builtin.panicOutOfBounds>
   13063:	8b 84 24 ec 00 00 00 	mov    0xec(%esp),%eax
   1306a:	8b 94 24 f4 00 00 00 	mov    0xf4(%esp),%edx
   13071:	8a 8c 24 e3 00 00 00 	mov    0xe3(%esp),%cl
   13078:	32 0a                	xor    (%edx),%cl
   1307a:	88 8c 24 db 00 00 00 	mov    %cl,0xdb(%esp)
   13081:	83 e8 01             	sub    $0x1,%eax
   13084:	89 84 24 dc 00 00 00 	mov    %eax,0xdc(%esp)
   1308b:	0f 92 c0             	setb   %al
   1308e:	72 12                	jb     130a2 <mem.eqlBytes+0x1a2>
   13090:	eb 33                	jmp    130c5 <mem.eqlBytes+0x1c5>
   13092:	eb cf                	jmp    13063 <mem.eqlBytes+0x163>
   13094:	8b 94 24 f8 00 00 00 	mov    0xf8(%esp),%edx
   1309b:	31 c9                	xor    %ecx,%ecx
   1309d:	e8 2e ea ff ff       	call   11ad0 <builtin.panicOutOfBounds>
   130a2:	8d 0d 29 02 04 00    	lea    0x40229,%ecx
   130a8:	ba 10 00 00 00       	mov    $0x10,%edx
   130ad:	31 c0                	xor    %eax,%eax
   130af:	8d 05 e8 fd 03 00    	lea    0x3fde8,%eax
   130b5:	c7 04 24 00 00 00 00 	movl   $0x0,(%esp)
   130bc:	89 44 24 04          	mov    %eax,0x4(%esp)
   130c0:	e8 eb e9 ff ff       	call   11ab0 <builtin.default_panic>
   130c5:	8b 84 24 dc 00 00 00 	mov    0xdc(%esp),%eax
   130cc:	8b 8c 24 ec 00 00 00 	mov    0xec(%esp),%ecx
   130d3:	39 c8                	cmp    %ecx,%eax
   130d5:	72 32                	jb     13109 <mem.eqlBytes+0x209>
   130d7:	eb 32                	jmp    1310b <mem.eqlBytes+0x20b>
   130d9:	8b 84 24 ec 00 00 00 	mov    0xec(%esp),%eax
   130e0:	8b 8c 24 f0 00 00 00 	mov    0xf0(%esp),%ecx
   130e7:	8b 94 24 dc 00 00 00 	mov    0xdc(%esp),%edx
   130ee:	8a 0c 11             	mov    (%ecx,%edx,1),%cl
   130f1:	88 8c 24 d3 00 00 00 	mov    %cl,0xd3(%esp)
   130f8:	83 e8 01             	sub    $0x1,%eax
   130fb:	89 84 24 d4 00 00 00 	mov    %eax,0xd4(%esp)
   13102:	0f 92 c0             	setb   %al
   13105:	72 17                	jb     1311e <mem.eqlBytes+0x21e>
   13107:	eb 38                	jmp    13141 <mem.eqlBytes+0x241>
   13109:	eb ce                	jmp    130d9 <mem.eqlBytes+0x1d9>
   1310b:	8b 94 24 ec 00 00 00 	mov    0xec(%esp),%edx
   13112:	8b 8c 24 dc 00 00 00 	mov    0xdc(%esp),%ecx
   13119:	e8 b2 e9 ff ff       	call   11ad0 <builtin.panicOutOfBounds>
   1311e:	8d 0d 29 02 04 00    	lea    0x40229,%ecx
   13124:	ba 10 00 00 00       	mov    $0x10,%edx
   13129:	31 c0                	xor    %eax,%eax
   1312b:	8d 05 e8 fd 03 00    	lea    0x3fde8,%eax
   13131:	c7 04 24 00 00 00 00 	movl   $0x0,(%esp)
   13138:	89 44 24 04          	mov    %eax,0x4(%esp)
   1313c:	e8 6f e9 ff ff       	call   11ab0 <builtin.default_panic>
   13141:	8b 84 24 d4 00 00 00 	mov    0xd4(%esp),%eax
   13148:	8b 8c 24 f8 00 00 00 	mov    0xf8(%esp),%ecx
   1314f:	39 c8                	cmp    %ecx,%eax
   13151:	72 42                	jb     13195 <mem.eqlBytes+0x295>
   13153:	eb 42                	jmp    13197 <mem.eqlBytes+0x297>
   13155:	8b 8c 24 ec 00 00 00 	mov    0xec(%esp),%ecx
   1315c:	8a 84 24 db 00 00 00 	mov    0xdb(%esp),%al
   13163:	8b b4 24 f4 00 00 00 	mov    0xf4(%esp),%esi
   1316a:	8b bc 24 d4 00 00 00 	mov    0xd4(%esp),%edi
   13171:	8a 94 24 d3 00 00 00 	mov    0xd3(%esp),%dl
   13178:	32 14 3e             	xor    (%esi,%edi,1),%dl
   1317b:	08 d0                	or     %dl,%al
   1317d:	88 84 24 cb 00 00 00 	mov    %al,0xcb(%esp)
   13184:	89 c8                	mov    %ecx,%eax
   13186:	d1 e8                	shr    $1,%eax
   13188:	89 84 24 cc 00 00 00 	mov    %eax,0xcc(%esp)
   1318f:	39 c8                	cmp    %ecx,%eax
   13191:	72 4c                	jb     131df <mem.eqlBytes+0x2df>
   13193:	eb 4c                	jmp    131e1 <mem.eqlBytes+0x2e1>
   13195:	eb be                	jmp    13155 <mem.eqlBytes+0x255>
   13197:	8b 94 24 f8 00 00 00 	mov    0xf8(%esp),%edx
   1319e:	8b 8c 24 d4 00 00 00 	mov    0xd4(%esp),%ecx
   131a5:	e8 26 e9 ff ff       	call   11ad0 <builtin.panicOutOfBounds>
   131aa:	8b 8c 24 f8 00 00 00 	mov    0xf8(%esp),%ecx
   131b1:	8b 84 24 ec 00 00 00 	mov    0xec(%esp),%eax
   131b8:	8b 94 24 f0 00 00 00 	mov    0xf0(%esp),%edx
   131bf:	8b b4 24 cc 00 00 00 	mov    0xcc(%esp),%esi
   131c6:	8a 14 32             	mov    (%edx,%esi,1),%dl
   131c9:	88 94 24 c3 00 00 00 	mov    %dl,0xc3(%esp)
   131d0:	d1 e8                	shr    $1,%eax
   131d2:	89 84 24 c4 00 00 00 	mov    %eax,0xc4(%esp)
   131d9:	39 c8                	cmp    %ecx,%eax
   131db:	72 4c                	jb     13229 <mem.eqlBytes+0x329>
   131dd:	eb 4c                	jmp    1322b <mem.eqlBytes+0x32b>
   131df:	eb c9                	jmp    131aa <mem.eqlBytes+0x2aa>
   131e1:	8b 94 24 ec 00 00 00 	mov    0xec(%esp),%edx
   131e8:	8b 8c 24 cc 00 00 00 	mov    0xcc(%esp),%ecx
   131ef:	e8 dc e8 ff ff       	call   11ad0 <builtin.panicOutOfBounds>
   131f4:	8a 84 24 cb 00 00 00 	mov    0xcb(%esp),%al
   131fb:	8a 8c 24 c3 00 00 00 	mov    0xc3(%esp),%cl
   13202:	8b 94 24 f4 00 00 00 	mov    0xf4(%esp),%edx
   13209:	8b b4 24 c4 00 00 00 	mov    0xc4(%esp),%esi
   13210:	8a 14 32             	mov    (%edx,%esi,1),%dl
   13213:	30 d1                	xor    %dl,%cl
   13215:	08 c8                	or     %cl,%al
   13217:	88 84 24 0f 01 00 00 	mov    %al,0x10f(%esp)
   1321e:	0f 94 c0             	sete   %al
   13221:	8d 65 f4             	lea    -0xc(%ebp),%esp
   13224:	5e                   	pop    %esi
   13225:	5f                   	pop    %edi
   13226:	5b                   	pop    %ebx
   13227:	5d                   	pop    %ebp
   13228:	c3                   	ret
   13229:	eb c9                	jmp    131f4 <mem.eqlBytes+0x2f4>
   1322b:	8b 94 24 f8 00 00 00 	mov    0xf8(%esp),%edx
   13232:	8b 8c 24 c4 00 00 00 	mov    0xc4(%esp),%ecx
   13239:	e8 92 e8 ff ff       	call   11ad0 <builtin.panicOutOfBounds>
   1323e:	8d 0d 29 02 04 00    	lea    0x40229,%ecx
   13244:	ba 10 00 00 00       	mov    $0x10,%edx
   13249:	31 c0                	xor    %eax,%eax
   1324b:	8d 05 e8 fd 03 00    	lea    0x3fde8,%eax
   13251:	c7 04 24 00 00 00 00 	movl   $0x0,(%esp)
   13258:	89 44 24 04          	mov    %eax,0x4(%esp)
   1325c:	e8 4f e8 ff ff       	call   11ab0 <builtin.default_panic>
   13261:	8b 84 24 ec 00 00 00 	mov    0xec(%esp),%eax
   13268:	c1 e8 03             	shr    $0x3,%eax
   1326b:	b9 04 00 00 00       	mov    $0x4,%ecx
   13270:	f7 e1                	mul    %ecx
   13272:	89 84 24 bc 00 00 00 	mov    %eax,0xbc(%esp)
   13279:	0f 90 c0             	seto   %al
   1327c:	70 02                	jo     13280 <mem.eqlBytes+0x380>
   1327e:	eb 23                	jmp    132a3 <mem.eqlBytes+0x3a3>
   13280:	8d 0d 29 02 04 00    	lea    0x40229,%ecx
   13286:	ba 10 00 00 00       	mov    $0x10,%edx
   1328b:	31 c0                	xor    %eax,%eax
   1328d:	8d 05 e8 fd 03 00    	lea    0x3fde8,%eax
   13293:	c7 04 24 00 00 00 00 	movl   $0x0,(%esp)
   1329a:	89 44 24 04          	mov    %eax,0x4(%esp)
   1329e:	e8 0d e8 ff ff       	call   11ab0 <builtin.default_panic>
   132a3:	8b 84 24 ec 00 00 00 	mov    0xec(%esp),%eax
   132aa:	83 e8 04             	sub    $0x4,%eax
   132ad:	89 84 24 b8 00 00 00 	mov    %eax,0xb8(%esp)
   132b4:	0f 92 c0             	setb   %al
   132b7:	72 02                	jb     132bb <mem.eqlBytes+0x3bb>
   132b9:	eb 23                	jmp    132de <mem.eqlBytes+0x3de>
   132bb:	8d 0d 29 02 04 00    	lea    0x40229,%ecx
   132c1:	ba 10 00 00 00       	mov    $0x10,%edx
   132c6:	31 c0                	xor    %eax,%eax
   132c8:	8d 05 e8 fd 03 00    	lea    0x3fde8,%eax
   132ce:	c7 04 24 00 00 00 00 	movl   $0x0,(%esp)
   132d5:	89 44 24 04          	mov    %eax,0x4(%esp)
   132d9:	e8 d2 e7 ff ff       	call   11ab0 <builtin.default_panic>
   132de:	8b 84 24 ec 00 00 00 	mov    0xec(%esp),%eax
   132e5:	c1 e8 03             	shr    $0x3,%eax
   132e8:	b9 04 00 00 00       	mov    $0x4,%ecx
   132ed:	f7 e1                	mul    %ecx
   132ef:	89 84 24 b4 00 00 00 	mov    %eax,0xb4(%esp)
   132f6:	0f 90 c0             	seto   %al
   132f9:	70 02                	jo     132fd <mem.eqlBytes+0x3fd>
   132fb:	eb 23                	jmp    13320 <mem.eqlBytes+0x420>
   132fd:	8d 0d 29 02 04 00    	lea    0x40229,%ecx
   13303:	ba 10 00 00 00       	mov    $0x10,%edx
   13308:	31 c0                	xor    %eax,%eax
   1330a:	8d 05 e8 fd 03 00    	lea    0x3fde8,%eax
   13310:	c7 04 24 00 00 00 00 	movl   $0x0,(%esp)
   13317:	89 44 24 04          	mov    %eax,0x4(%esp)
   1331b:	e8 90 e7 ff ff       	call   11ab0 <builtin.default_panic>
   13320:	8b 8c 24 b4 00 00 00 	mov    0xb4(%esp),%ecx
   13327:	8b 84 24 b8 00 00 00 	mov    0xb8(%esp),%eax
   1332e:	29 c8                	sub    %ecx,%eax
   13330:	89 84 24 b0 00 00 00 	mov    %eax,0xb0(%esp)
   13337:	0f 92 c0             	setb   %al
   1333a:	72 02                	jb     1333e <mem.eqlBytes+0x43e>
   1333c:	eb 23                	jmp    13361 <mem.eqlBytes+0x461>
   1333e:	8d 0d 29 02 04 00    	lea    0x40229,%ecx
   13344:	ba 10 00 00 00       	mov    $0x10,%edx
   13349:	31 c0                	xor    %eax,%eax
   1334b:	8d 05 e8 fd 03 00    	lea    0x3fde8,%eax
   13351:	c7 04 24 00 00 00 00 	movl   $0x0,(%esp)
   13358:	89 44 24 04          	mov    %eax,0x4(%esp)
   1335c:	e8 4f e7 ff ff       	call   11ab0 <builtin.default_panic>
   13361:	8b 84 24 b0 00 00 00 	mov    0xb0(%esp),%eax
   13368:	8b 8c 24 bc 00 00 00 	mov    0xbc(%esp),%ecx
   1336f:	8b 94 24 e4 00 00 00 	mov    0xe4(%esp),%edx
   13376:	c7 84 24 18 01 00 00 	movl   $0x0,0x118(%esp)
   1337d:	00 00 00 00 
   13381:	89 94 24 1c 01 00 00 	mov    %edx,0x11c(%esp)
   13388:	89 8c 24 20 01 00 00 	mov    %ecx,0x120(%esp)
   1338f:	89 84 24 24 01 00 00 	mov    %eax,0x124(%esp)
   13396:	eb 14                	jmp    133ac <mem.eqlBytes+0x4ac>
   13398:	8b 84 24 10 01 00 00 	mov    0x110(%esp),%eax
   1339f:	85 c0                	test   %eax,%eax
   133a1:	0f 94 c0             	sete   %al
   133a4:	8d 65 f4             	lea    -0xc(%ebp),%esp
   133a7:	5e                   	pop    %esi
   133a8:	5f                   	pop    %edi
   133a9:	5b                   	pop    %ebx
   133aa:	5d                   	pop    %ebp
   133ab:	c3                   	ret
   133ac:	8b 84 24 14 01 00 00 	mov    0x114(%esp),%eax
   133b3:	89 84 24 ac 00 00 00 	mov    %eax,0xac(%esp)
   133ba:	83 f8 04             	cmp    $0x4,%eax
   133bd:	72 18                	jb     133d7 <mem.eqlBytes+0x4d7>
   133bf:	e9 87 00 00 00       	jmp    1344b <mem.eqlBytes+0x54b>
   133c4:	8b 84 24 ac 00 00 00 	mov    0xac(%esp),%eax
   133cb:	83 c0 01             	add    $0x1,%eax
   133ce:	89 84 24 14 01 00 00 	mov    %eax,0x114(%esp)
   133d5:	eb d5                	jmp    133ac <mem.eqlBytes+0x4ac>
   133d7:	8b 8c 24 f0 00 00 00 	mov    0xf0(%esp),%ecx
   133de:	8b 94 24 ec 00 00 00 	mov    0xec(%esp),%edx
   133e5:	8b 84 24 ac 00 00 00 	mov    0xac(%esp),%eax
   133ec:	8b 84 84 18 01 00 00 	mov    0x118(%esp,%eax,4),%eax
   133f3:	89 84 24 98 00 00 00 	mov    %eax,0x98(%esp)
   133fa:	89 84 24 28 01 00 00 	mov    %eax,0x128(%esp)
   13401:	8b b4 24 10 01 00 00 	mov    0x110(%esp),%esi
   13408:	89 b4 24 9c 00 00 00 	mov    %esi,0x9c(%esp)
   1340f:	89 94 24 30 01 00 00 	mov    %edx,0x130(%esp)
   13416:	89 8c 24 2c 01 00 00 	mov    %ecx,0x12c(%esp)
   1341d:	8b 94 24 2c 01 00 00 	mov    0x12c(%esp),%edx
   13424:	8b 8c 24 30 01 00 00 	mov    0x130(%esp),%ecx
   1342b:	89 8c 24 a0 00 00 00 	mov    %ecx,0xa0(%esp)
   13432:	01 c2                	add    %eax,%edx
   13434:	89 94 24 a4 00 00 00 	mov    %edx,0xa4(%esp)
   1343b:	83 c0 04             	add    $0x4,%eax
   1343e:	89 84 24 a8 00 00 00 	mov    %eax,0xa8(%esp)
   13445:	39 c8                	cmp    %ecx,%eax
   13447:	76 68                	jbe    134b1 <mem.eqlBytes+0x5b1>
   13449:	eb 68                	jmp    134b3 <mem.eqlBytes+0x5b3>
   1344b:	e9 48 ff ff ff       	jmp    13398 <mem.eqlBytes+0x498>
   13450:	8b 84 24 98 00 00 00 	mov    0x98(%esp),%eax
   13457:	8b 8c 24 f4 00 00 00 	mov    0xf4(%esp),%ecx
   1345e:	8b 94 24 f8 00 00 00 	mov    0xf8(%esp),%edx
   13465:	8b b4 24 a4 00 00 00 	mov    0xa4(%esp),%esi
   1346c:	8b 36                	mov    (%esi),%esi
   1346e:	89 b4 24 88 00 00 00 	mov    %esi,0x88(%esp)
   13475:	89 94 24 38 01 00 00 	mov    %edx,0x138(%esp)
   1347c:	89 8c 24 34 01 00 00 	mov    %ecx,0x134(%esp)
   13483:	8b 94 24 34 01 00 00 	mov    0x134(%esp),%edx
   1348a:	8b 8c 24 38 01 00 00 	mov    0x138(%esp),%ecx
   13491:	89 8c 24 8c 00 00 00 	mov    %ecx,0x8c(%esp)
   13498:	01 c2                	add    %eax,%edx
   1349a:	89 94 24 90 00 00 00 	mov    %edx,0x90(%esp)
   134a1:	83 c0 04             	add    $0x4,%eax
   134a4:	89 84 24 94 00 00 00 	mov    %eax,0x94(%esp)
   134ab:	39 c8                	cmp    %ecx,%eax
   134ad:	76 3c                	jbe    134eb <mem.eqlBytes+0x5eb>
   134af:	eb 3c                	jmp    134ed <mem.eqlBytes+0x5ed>
   134b1:	eb 9d                	jmp    13450 <mem.eqlBytes+0x550>
   134b3:	8b 94 24 a0 00 00 00 	mov    0xa0(%esp),%edx
   134ba:	8b 8c 24 a8 00 00 00 	mov    0xa8(%esp),%ecx
   134c1:	e8 0a e6 ff ff       	call   11ad0 <builtin.panicOutOfBounds>
   134c6:	8b 84 24 9c 00 00 00 	mov    0x9c(%esp),%eax
   134cd:	8b 94 24 90 00 00 00 	mov    0x90(%esp),%edx
   134d4:	8b 8c 24 88 00 00 00 	mov    0x88(%esp),%ecx
   134db:	33 0a                	xor    (%edx),%ecx
   134dd:	09 c8                	or     %ecx,%eax
   134df:	89 84 24 10 01 00 00 	mov    %eax,0x110(%esp)
   134e6:	e9 d9 fe ff ff       	jmp    133c4 <mem.eqlBytes+0x4c4>
   134eb:	eb d9                	jmp    134c6 <mem.eqlBytes+0x5c6>
   134ed:	8b 94 24 8c 00 00 00 	mov    0x8c(%esp),%edx
   134f4:	8b 8c 24 94 00 00 00 	mov    0x94(%esp),%ecx
   134fb:	e8 d0 e5 ff ff       	call   11ad0 <builtin.panicOutOfBounds>
   13500:	c7 84 24 40 01 00 00 	movl   $0x2,0x140(%esp)
   13507:	02 00 00 00 
   1350b:	c7 84 24 44 01 00 00 	movl   $0x3,0x144(%esp)
   13512:	03 00 00 00 
   13516:	c7 84 24 48 01 00 00 	movl   $0x4,0x148(%esp)
   1351d:	04 00 00 00 
   13521:	c7 84 24 4c 01 00 00 	movl   $0x5,0x14c(%esp)
   13528:	05 00 00 00 
   1352c:	8b 84 24 ec 00 00 00 	mov    0xec(%esp),%eax
   13533:	c7 84 24 50 01 00 00 	movl   $0x0,0x150(%esp)
   1353a:	00 00 00 00 
   1353e:	83 e8 01             	sub    $0x1,%eax
   13541:	89 84 24 84 00 00 00 	mov    %eax,0x84(%esp)
   13548:	0f 92 c0             	setb   %al
   1354b:	72 02                	jb     1354f <mem.eqlBytes+0x64f>
   1354d:	eb 23                	jmp    13572 <mem.eqlBytes+0x672>
   1354f:	8d 0d 29 02 04 00    	lea    0x40229,%ecx
   13555:	ba 10 00 00 00       	mov    $0x10,%edx
   1355a:	31 c0                	xor    %eax,%eax
   1355c:	8d 05 e8 fd 03 00    	lea    0x3fde8,%eax
   13562:	c7 04 24 00 00 00 00 	movl   $0x0,(%esp)
   13569:	89 44 24 04          	mov    %eax,0x4(%esp)
   1356d:	e8 3e e5 ff ff       	call   11ab0 <builtin.default_panic>
   13572:	8b 84 24 84 00 00 00 	mov    0x84(%esp),%eax
   13579:	c1 e8 04             	shr    $0x4,%eax
   1357c:	89 84 24 80 00 00 00 	mov    %eax,0x80(%esp)
   13583:	eb 31                	jmp    135b6 <mem.eqlBytes+0x6b6>
   13585:	8b 84 24 ec 00 00 00 	mov    0xec(%esp),%eax
   1358c:	8b 8c 24 f0 00 00 00 	mov    0xf0(%esp),%ecx
   13593:	89 8c 24 b8 01 00 00 	mov    %ecx,0x1b8(%esp)
   1359a:	89 84 24 bc 01 00 00 	mov    %eax,0x1bc(%esp)
   135a1:	83 e8 10             	sub    $0x10,%eax
   135a4:	89 44 24 7c          	mov    %eax,0x7c(%esp)
   135a8:	0f 92 c0             	setb   %al
   135ab:	0f 82 bd 01 00 00    	jb     1376e <mem.eqlBytes+0x86e>
   135b1:	e9 db 01 00 00       	jmp    13791 <mem.eqlBytes+0x891>
   135b6:	8b 8c 24 80 00 00 00 	mov    0x80(%esp),%ecx
   135bd:	8b 84 24 50 01 00 00 	mov    0x150(%esp),%eax
   135c4:	89 44 24 78          	mov    %eax,0x78(%esp)
   135c8:	39 c8                	cmp    %ecx,%eax
   135ca:	72 12                	jb     135de <mem.eqlBytes+0x6de>
   135cc:	eb 49                	jmp    13617 <mem.eqlBytes+0x717>
   135ce:	8b 44 24 78          	mov    0x78(%esp),%eax
   135d2:	83 c0 01             	add    $0x1,%eax
   135d5:	89 84 24 50 01 00 00 	mov    %eax,0x150(%esp)
   135dc:	eb d8                	jmp    135b6 <mem.eqlBytes+0x6b6>
   135de:	8b 44 24 78          	mov    0x78(%esp),%eax
   135e2:	8b 8c 24 f0 00 00 00 	mov    0xf0(%esp),%ecx
   135e9:	8b 94 24 ec 00 00 00 	mov    0xec(%esp),%edx
   135f0:	89 84 24 54 01 00 00 	mov    %eax,0x154(%esp)
   135f7:	89 94 24 5c 01 00 00 	mov    %edx,0x15c(%esp)
   135fe:	89 8c 24 58 01 00 00 	mov    %ecx,0x158(%esp)
   13605:	b9 10 00 00 00       	mov    $0x10,%ecx
   1360a:	f7 e1                	mul    %ecx
   1360c:	89 44 24 74          	mov    %eax,0x74(%esp)
   13610:	0f 90 c0             	seto   %al
   13613:	70 07                	jo     1361c <mem.eqlBytes+0x71c>
   13615:	eb 28                	jmp    1363f <mem.eqlBytes+0x73f>
   13617:	e9 69 ff ff ff       	jmp    13585 <mem.eqlBytes+0x685>
   1361c:	8d 0d 29 02 04 00    	lea    0x40229,%ecx
   13622:	ba 10 00 00 00       	mov    $0x10,%edx
   13627:	31 c0                	xor    %eax,%eax
   13629:	8d 05 e8 fd 03 00    	lea    0x3fde8,%eax
   1362f:	c7 04 24 00 00 00 00 	movl   $0x0,(%esp)
   13636:	89 44 24 04          	mov    %eax,0x4(%esp)
   1363a:	e8 71 e4 ff ff       	call   11ab0 <builtin.default_panic>
   1363f:	8b 44 24 74          	mov    0x74(%esp),%eax
   13643:	8b 94 24 58 01 00 00 	mov    0x158(%esp),%edx
   1364a:	8b 8c 24 5c 01 00 00 	mov    0x15c(%esp),%ecx
   13651:	89 4c 24 68          	mov    %ecx,0x68(%esp)
   13655:	01 c2                	add    %eax,%edx
   13657:	89 54 24 6c          	mov    %edx,0x6c(%esp)
   1365b:	83 c0 10             	add    $0x10,%eax
   1365e:	89 44 24 70          	mov    %eax,0x70(%esp)
   13662:	39 c8                	cmp    %ecx,%eax
   13664:	76 48                	jbe    136ae <mem.eqlBytes+0x7ae>
   13666:	eb 48                	jmp    136b0 <mem.eqlBytes+0x7b0>
   13668:	8b 44 24 78          	mov    0x78(%esp),%eax
   1366c:	8b 8c 24 f4 00 00 00 	mov    0xf4(%esp),%ecx
   13673:	8b 94 24 f8 00 00 00 	mov    0xf8(%esp),%edx
   1367a:	8b 74 24 6c          	mov    0x6c(%esp),%esi
   1367e:	0f 10 06             	movups (%esi),%xmm0
   13681:	0f 29 44 24 50       	movaps %xmm0,0x50(%esp)
   13686:	0f 29 84 24 60 01 00 	movaps %xmm0,0x160(%esp)
   1368d:	00 
   1368e:	89 94 24 7c 01 00 00 	mov    %edx,0x17c(%esp)
   13695:	89 8c 24 78 01 00 00 	mov    %ecx,0x178(%esp)
   1369c:	b9 10 00 00 00       	mov    $0x10,%ecx
   136a1:	f7 e1                	mul    %ecx
   136a3:	89 44 24 64          	mov    %eax,0x64(%esp)
   136a7:	0f 90 c0             	seto   %al
   136aa:	70 11                	jo     136bd <mem.eqlBytes+0x7bd>
   136ac:	eb 32                	jmp    136e0 <mem.eqlBytes+0x7e0>
   136ae:	eb b8                	jmp    13668 <mem.eqlBytes+0x768>
   136b0:	8b 54 24 68          	mov    0x68(%esp),%edx
   136b4:	8b 4c 24 70          	mov    0x70(%esp),%ecx
   136b8:	e8 13 e4 ff ff       	call   11ad0 <builtin.panicOutOfBounds>
   136bd:	8d 0d 29 02 04 00    	lea    0x40229,%ecx
   136c3:	ba 10 00 00 00       	mov    $0x10,%edx
   136c8:	31 c0                	xor    %eax,%eax
   136ca:	8d 05 e8 fd 03 00    	lea    0x3fde8,%eax
   136d0:	c7 04 24 00 00 00 00 	movl   $0x0,(%esp)
   136d7:	89 44 24 04          	mov    %eax,0x4(%esp)
   136db:	e8 d0 e3 ff ff       	call   11ab0 <builtin.default_panic>
   136e0:	8b 44 24 64          	mov    0x64(%esp),%eax
   136e4:	8b 94 24 78 01 00 00 	mov    0x178(%esp),%edx
   136eb:	8b 8c 24 7c 01 00 00 	mov    0x17c(%esp),%ecx
   136f2:	89 4c 24 44          	mov    %ecx,0x44(%esp)
   136f6:	01 c2                	add    %eax,%edx
   136f8:	89 54 24 48          	mov    %edx,0x48(%esp)
   136fc:	83 c0 10             	add    $0x10,%eax
   136ff:	89 44 24 4c          	mov    %eax,0x4c(%esp)
   13703:	39 c8                	cmp    %ecx,%eax
   13705:	76 3d                	jbe    13744 <mem.eqlBytes+0x844>
   13707:	eb 3d                	jmp    13746 <mem.eqlBytes+0x846>
   13709:	0f 28 44 24 50       	movaps 0x50(%esp),%xmm0
   1370e:	8b 44 24 48          	mov    0x48(%esp),%eax
   13712:	0f 10 08             	movups (%eax),%xmm1
   13715:	0f 29 8c 24 80 01 00 	movaps %xmm1,0x180(%esp)
   1371c:	00 
   1371d:	0f 29 84 24 90 01 00 	movaps %xmm0,0x190(%esp)
   13724:	00 
   13725:	0f 29 8c 24 a0 01 00 	movaps %xmm1,0x1a0(%esp)
   1372c:	00 
   1372d:	66 0f 74 c1          	pcmpeqb %xmm1,%xmm0
   13731:	66 0f d7 c0          	pmovmskb %xmm0,%eax
   13735:	f7 d0                	not    %eax
   13737:	66 83 f8 00          	cmp    $0x0,%ax
   1373b:	0f 95 c0             	setne  %al
   1373e:	88 44 24 43          	mov    %al,0x43(%esp)
   13742:	eb 14                	jmp    13758 <mem.eqlBytes+0x858>
   13744:	eb c3                	jmp    13709 <mem.eqlBytes+0x809>
   13746:	8b 54 24 44          	mov    0x44(%esp),%edx
   1374a:	8b 4c 24 4c          	mov    0x4c(%esp),%ecx
   1374e:	e8 7d e3 ff ff       	call   11ad0 <builtin.panicOutOfBounds>
   13753:	e9 76 fe ff ff       	jmp    135ce <mem.eqlBytes+0x6ce>
   13758:	8a 44 24 43          	mov    0x43(%esp),%al
   1375c:	a8 01                	test   $0x1,%al
   1375e:	75 02                	jne    13762 <mem.eqlBytes+0x862>
   13760:	eb 0a                	jmp    1376c <mem.eqlBytes+0x86c>
   13762:	31 c0                	xor    %eax,%eax
   13764:	8d 65 f4             	lea    -0xc(%ebp),%esp
   13767:	5e                   	pop    %esi
   13768:	5f                   	pop    %edi
   13769:	5b                   	pop    %ebx
   1376a:	5d                   	pop    %ebp
   1376b:	c3                   	ret
   1376c:	eb e5                	jmp    13753 <mem.eqlBytes+0x853>
   1376e:	8d 0d 29 02 04 00    	lea    0x40229,%ecx
   13774:	ba 10 00 00 00       	mov    $0x10,%edx
   13779:	31 c0                	xor    %eax,%eax
   1377b:	8d 05 e8 fd 03 00    	lea    0x3fde8,%eax
   13781:	c7 04 24 00 00 00 00 	movl   $0x0,(%esp)
   13788:	89 44 24 04          	mov    %eax,0x4(%esp)
   1378c:	e8 1f e3 ff ff       	call   11ab0 <builtin.default_panic>
   13791:	8b 44 24 7c          	mov    0x7c(%esp),%eax
   13795:	8b 94 24 b8 01 00 00 	mov    0x1b8(%esp),%edx
   1379c:	8b 8c 24 bc 01 00 00 	mov    0x1bc(%esp),%ecx
   137a3:	89 4c 24 34          	mov    %ecx,0x34(%esp)
   137a7:	01 c2                	add    %eax,%edx
   137a9:	89 54 24 38          	mov    %edx,0x38(%esp)
   137ad:	83 c0 10             	add    $0x10,%eax
   137b0:	89 44 24 3c          	mov    %eax,0x3c(%esp)
   137b4:	39 c8                	cmp    %ecx,%eax
   137b6:	76 47                	jbe    137ff <mem.eqlBytes+0x8ff>
   137b8:	eb 47                	jmp    13801 <mem.eqlBytes+0x901>
   137ba:	8b 84 24 ec 00 00 00 	mov    0xec(%esp),%eax
   137c1:	8b 8c 24 f4 00 00 00 	mov    0xf4(%esp),%ecx
   137c8:	8b 94 24 f8 00 00 00 	mov    0xf8(%esp),%edx
   137cf:	8b 74 24 38          	mov    0x38(%esp),%esi
   137d3:	0f 10 06             	movups (%esi),%xmm0
   137d6:	0f 29 44 24 20       	movaps %xmm0,0x20(%esp)
   137db:	0f 29 84 24 c0 01 00 	movaps %xmm0,0x1c0(%esp)
   137e2:	00 
   137e3:	89 94 24 dc 01 00 00 	mov    %edx,0x1dc(%esp)
   137ea:	89 8c 24 d8 01 00 00 	mov    %ecx,0x1d8(%esp)
   137f1:	83 e8 10             	sub    $0x10,%eax
   137f4:	89 44 24 30          	mov    %eax,0x30(%esp)
   137f8:	0f 92 c0             	setb   %al
   137fb:	72 11                	jb     1380e <mem.eqlBytes+0x90e>
   137fd:	eb 32                	jmp    13831 <mem.eqlBytes+0x931>
   137ff:	eb b9                	jmp    137ba <mem.eqlBytes+0x8ba>
   13801:	8b 54 24 34          	mov    0x34(%esp),%edx
   13805:	8b 4c 24 3c          	mov    0x3c(%esp),%ecx
   13809:	e8 c2 e2 ff ff       	call   11ad0 <builtin.panicOutOfBounds>
   1380e:	8d 0d 29 02 04 00    	lea    0x40229,%ecx
   13814:	ba 10 00 00 00       	mov    $0x10,%edx
   13819:	31 c0                	xor    %eax,%eax
   1381b:	8d 05 e8 fd 03 00    	lea    0x3fde8,%eax
   13821:	c7 04 24 00 00 00 00 	movl   $0x0,(%esp)
   13828:	89 44 24 04          	mov    %eax,0x4(%esp)
   1382c:	e8 7f e2 ff ff       	call   11ab0 <builtin.default_panic>
   13831:	8b 44 24 30          	mov    0x30(%esp),%eax
   13835:	8b 94 24 d8 01 00 00 	mov    0x1d8(%esp),%edx
   1383c:	8b 8c 24 dc 01 00 00 	mov    0x1dc(%esp),%ecx
   13843:	89 4c 24 14          	mov    %ecx,0x14(%esp)
   13847:	01 c2                	add    %eax,%edx
   13849:	89 54 24 18          	mov    %edx,0x18(%esp)
   1384d:	83 c0 10             	add    $0x10,%eax
   13850:	89 44 24 1c          	mov    %eax,0x1c(%esp)
   13854:	39 c8                	cmp    %ecx,%eax
   13856:	76 3d                	jbe    13895 <mem.eqlBytes+0x995>
   13858:	eb 3d                	jmp    13897 <mem.eqlBytes+0x997>
   1385a:	0f 28 44 24 20       	movaps 0x20(%esp),%xmm0
   1385f:	8b 44 24 18          	mov    0x18(%esp),%eax
   13863:	0f 10 08             	movups (%eax),%xmm1
   13866:	0f 29 8c 24 e0 01 00 	movaps %xmm1,0x1e0(%esp)
   1386d:	00 
   1386e:	0f 29 84 24 f0 01 00 	movaps %xmm0,0x1f0(%esp)
   13875:	00 
   13876:	0f 29 8c 24 00 02 00 	movaps %xmm1,0x200(%esp)
   1387d:	00 
   1387e:	66 0f 74 c1          	pcmpeqb %xmm1,%xmm0
   13882:	66 0f d7 c0          	pmovmskb %xmm0,%eax
   13886:	f7 d0                	not    %eax
   13888:	66 83 f8 00          	cmp    $0x0,%ax
   1388c:	0f 95 c0             	setne  %al
   1388f:	88 44 24 13          	mov    %al,0x13(%esp)
   13893:	eb 0f                	jmp    138a4 <mem.eqlBytes+0x9a4>
   13895:	eb c3                	jmp    1385a <mem.eqlBytes+0x95a>
   13897:	8b 54 24 14          	mov    0x14(%esp),%edx
   1389b:	8b 4c 24 1c          	mov    0x1c(%esp),%ecx
   1389f:	e8 2c e2 ff ff       	call   11ad0 <builtin.panicOutOfBounds>
   138a4:	8a 44 24 13          	mov    0x13(%esp),%al
   138a8:	34 01                	xor    $0x1,%al
   138aa:	8d 65 f4             	lea    -0xc(%ebp),%esp
   138ad:	5e                   	pop    %esi
   138ae:	5f                   	pop    %edi
   138af:	5b                   	pop    %ebx
   138b0:	5d                   	pop    %ebp
   138b1:	c3                   	ret
   138b2:	66 2e 0f 1f 84 00 00 	nopw   %cs:0x0(%eax,%eax,1)
   138b9:	00 00 00 
   138bc:	0f 1f 40 00          	nopl   0x0(%eax)

000138c0 <device.tty.Terminal.fprintln__anon_1550>:
   138c0:	55                   	push   %ebp
   138c1:	89 e5                	mov    %esp,%ebp
   138c3:	57                   	push   %edi
   138c4:	56                   	push   %esi
   138c5:	81 ec f4 00 00 00    	sub    $0xf4,%esp
   138cb:	89 d0                	mov    %edx,%eax
   138cd:	89 8d 34 ff ff ff    	mov    %ecx,-0xcc(%ebp)
   138d3:	89 8d 3c ff ff ff    	mov    %ecx,-0xc4(%ebp)
   138d9:	8d 95 40 ff ff ff    	lea    -0xc0(%ebp),%edx
   138df:	89 55 c4             	mov    %edx,-0x3c(%ebp)
   138e2:	c7 45 c8 20 00 00 00 	movl   $0x20,-0x38(%ebp)
   138e9:	c7 45 c0 00 00 00 00 	movl   $0x0,-0x40(%ebp)
   138f0:	8b 55 c0             	mov    -0x40(%ebp),%edx
   138f3:	89 95 38 ff ff ff    	mov    %edx,-0xc8(%ebp)
   138f9:	89 4d cc             	mov    %ecx,-0x34(%ebp)
   138fc:	8b 7d cc             	mov    -0x34(%ebp),%edi
   138ff:	83 c7 08             	add    $0x8,%edi
   13902:	be 00 02 00 00       	mov    $0x200,%esi
   13907:	8d 4d d0             	lea    -0x30(%ebp),%ecx
   1390a:	8d 55 c0             	lea    -0x40(%ebp),%edx
   1390d:	89 3c 24             	mov    %edi,(%esp)
   13910:	89 74 24 04          	mov    %esi,0x4(%esp)
   13914:	89 44 24 08          	mov    %eax,0x8(%esp)
   13918:	e8 43 0c 00 00       	call   14560 <fmt.bufPrint__anon_2174>
   1391d:	66 83 7d d8 00       	cmpw   $0x0,-0x28(%ebp)
   13922:	74 4e                	je     13972 <device.tty.Terminal.fprintln__anon_1550+0xb2>
   13924:	eb 6c                	jmp    13992 <device.tty.Terminal.fprintln__anon_1550+0xd2>
   13926:	8b 8d 24 ff ff ff    	mov    -0xdc(%ebp),%ecx
   1392c:	8b 85 20 ff ff ff    	mov    -0xe0(%ebp),%eax
   13932:	89 85 28 ff ff ff    	mov    %eax,-0xd8(%ebp)
   13938:	89 8d 2c ff ff ff    	mov    %ecx,-0xd4(%ebp)
   1393e:	89 4d e4             	mov    %ecx,-0x1c(%ebp)
   13941:	89 45 e8             	mov    %eax,-0x18(%ebp)
   13944:	b8 00 00 82 02       	mov    $0x2820000,%eax
   13949:	89 45 ec             	mov    %eax,-0x14(%ebp)
   1394c:	b8 04 00 82 02       	mov    $0x2820004,%eax
   13951:	66 8b 00             	mov    (%eax),%ax
   13954:	66 b9 50 00          	mov    $0x50,%cx
   13958:	66 f7 e1             	mul    %cx
   1395b:	66 89 85 32 ff ff ff 	mov    %ax,-0xce(%ebp)
   13962:	0f 90 c0             	seto   %al
   13965:	a8 01                	test   $0x1,%al
   13967:	0f 85 f2 00 00 00    	jne    13a5f <device.tty.Terminal.fprintln__anon_1550+0x19f>
   1396d:	e9 10 01 00 00       	jmp    13a82 <device.tty.Terminal.fprintln__anon_1550+0x1c2>
   13972:	8b 45 d0             	mov    -0x30(%ebp),%eax
   13975:	8b 4d d4             	mov    -0x2c(%ebp),%ecx
   13978:	89 4d e0             	mov    %ecx,-0x20(%ebp)
   1397b:	89 45 dc             	mov    %eax,-0x24(%ebp)
   1397e:	8b 4d dc             	mov    -0x24(%ebp),%ecx
   13981:	8b 45 e0             	mov    -0x20(%ebp),%eax
   13984:	89 8d 24 ff ff ff    	mov    %ecx,-0xdc(%ebp)
   1398a:	89 85 20 ff ff ff    	mov    %eax,-0xe0(%ebp)
   13990:	eb 94                	jmp    13926 <device.tty.Terminal.fprintln__anon_1550+0x66>
   13992:	66 8b 45 d8          	mov    -0x28(%ebp),%ax
   13996:	66 83 e8 01          	sub    $0x1,%ax
   1399a:	74 24                	je     139c0 <device.tty.Terminal.fprintln__anon_1550+0x100>
   1399c:	eb 00                	jmp    1399e <device.tty.Terminal.fprintln__anon_1550+0xde>
   1399e:	b9 b9 04 04 00       	mov    $0x404b9,%ecx
   139a3:	ba 17 00 00 00       	mov    $0x17,%edx
   139a8:	31 c0                	xor    %eax,%eax
   139aa:	8d 05 e8 fd 03 00    	lea    0x3fde8,%eax
   139b0:	c7 04 24 00 00 00 00 	movl   $0x0,(%esp)
   139b7:	89 44 24 04          	mov    %eax,0x4(%esp)
   139bb:	e8 f0 e0 ff ff       	call   11ab0 <builtin.default_panic>
   139c0:	8b 85 38 ff ff ff    	mov    -0xc8(%ebp),%eax
   139c6:	89 45 c0             	mov    %eax,-0x40(%ebp)
   139c9:	b8 16 00 00 00       	mov    $0x16,%eax
   139ce:	b9 78 03 04 00       	mov    $0x40378,%ecx
   139d3:	89 8d 24 ff ff ff    	mov    %ecx,-0xdc(%ebp)
   139d9:	89 85 20 ff ff ff    	mov    %eax,-0xe0(%ebp)
   139df:	e9 42 ff ff ff       	jmp    13926 <device.tty.Terminal.fprintln__anon_1550+0x66>
   139e4:	8b 85 28 ff ff ff    	mov    -0xd8(%ebp),%eax
   139ea:	8b b5 2c ff ff ff    	mov    -0xd4(%ebp),%esi
   139f0:	66 8b 95 16 ff ff ff 	mov    -0xea(%ebp),%dx
   139f7:	b9 00 00 82 02       	mov    $0x2820000,%ecx
   139fc:	0f b7 d2             	movzwl %dx,%edx
   139ff:	89 34 24             	mov    %esi,(%esp)
   13a02:	89 44 24 04          	mov    %eax,0x4(%esp)
   13a06:	c7 44 24 08 0f 00 00 	movl   $0xf,0x8(%esp)
   13a0d:	00 
   13a0e:	e8 fd db ff ff       	call   11610 <device.tty.Terminal.write>
   13a13:	8b 85 28 ff ff ff    	mov    -0xd8(%ebp),%eax
   13a19:	8b 8d 34 ff ff ff    	mov    -0xcc(%ebp),%ecx
   13a1f:	be 50 00 00 00       	mov    $0x50,%esi
   13a24:	31 d2                	xor    %edx,%edx
   13a26:	f7 f6                	div    %esi
   13a28:	66 89 45 f2          	mov    %ax,-0xe(%ebp)
   13a2c:	89 4d f4             	mov    %ecx,-0xc(%ebp)
   13a2f:	8b 4d f4             	mov    -0xc(%ebp),%ecx
   13a32:	89 ca                	mov    %ecx,%edx
   13a34:	83 c2 04             	add    $0x4,%edx
   13a37:	89 95 18 ff ff ff    	mov    %edx,-0xe8(%ebp)
   13a3d:	66 8b 49 04          	mov    0x4(%ecx),%cx
   13a41:	66 89 8d 1c ff ff ff 	mov    %cx,-0xe4(%ebp)
   13a48:	66 83 c0 01          	add    $0x1,%ax
   13a4c:	66 89 85 1e ff ff ff 	mov    %ax,-0xe2(%ebp)
   13a53:	0f 92 c0             	setb   %al
   13a56:	a8 01                	test   $0x1,%al
   13a58:	75 79                	jne    13ad3 <device.tty.Terminal.fprintln__anon_1550+0x213>
   13a5a:	e9 97 00 00 00       	jmp    13af6 <device.tty.Terminal.fprintln__anon_1550+0x236>
   13a5f:	8d 0d 29 02 04 00    	lea    0x40229,%ecx
   13a65:	ba 10 00 00 00       	mov    $0x10,%edx
   13a6a:	31 c0                	xor    %eax,%eax
   13a6c:	8d 05 e8 fd 03 00    	lea    0x3fde8,%eax
   13a72:	c7 04 24 00 00 00 00 	movl   $0x0,(%esp)
   13a79:	89 44 24 04          	mov    %eax,0x4(%esp)
   13a7d:	e8 2e e0 ff ff       	call   11ab0 <builtin.default_panic>
   13a82:	66 8b 85 32 ff ff ff 	mov    -0xce(%ebp),%ax
   13a89:	66 83 c0 06          	add    $0x6,%ax
   13a8d:	66 89 85 14 ff ff ff 	mov    %ax,-0xec(%ebp)
   13a94:	0f 92 c0             	setb   %al
   13a97:	a8 01                	test   $0x1,%al
   13a99:	75 02                	jne    13a9d <device.tty.Terminal.fprintln__anon_1550+0x1dd>
   13a9b:	eb 23                	jmp    13ac0 <device.tty.Terminal.fprintln__anon_1550+0x200>
   13a9d:	8d 0d 29 02 04 00    	lea    0x40229,%ecx
   13aa3:	ba 10 00 00 00       	mov    $0x10,%edx
   13aa8:	31 c0                	xor    %eax,%eax
   13aaa:	8d 05 e8 fd 03 00    	lea    0x3fde8,%eax
   13ab0:	c7 04 24 00 00 00 00 	movl   $0x0,(%esp)
   13ab7:	89 44 24 04          	mov    %eax,0x4(%esp)
   13abb:	e8 f0 df ff ff       	call   11ab0 <builtin.default_panic>
   13ac0:	66 8b 85 14 ff ff ff 	mov    -0xec(%ebp),%ax
   13ac7:	66 89 85 16 ff ff ff 	mov    %ax,-0xea(%ebp)
   13ace:	e9 11 ff ff ff       	jmp    139e4 <device.tty.Terminal.fprintln__anon_1550+0x124>
   13ad3:	8d 0d 29 02 04 00    	lea    0x40229,%ecx
   13ad9:	ba 10 00 00 00       	mov    $0x10,%edx
   13ade:	31 c0                	xor    %eax,%eax
   13ae0:	8d 05 e8 fd 03 00    	lea    0x3fde8,%eax
   13ae6:	c7 04 24 00 00 00 00 	movl   $0x0,(%esp)
   13aed:	89 44 24 04          	mov    %eax,0x4(%esp)
   13af1:	e8 ba df ff ff       	call   11ab0 <builtin.default_panic>
   13af6:	66 8b 8d 1e ff ff ff 	mov    -0xe2(%ebp),%cx
   13afd:	66 8b 85 1c ff ff ff 	mov    -0xe4(%ebp),%ax
   13b04:	66 01 c8             	add    %cx,%ax
   13b07:	66 89 85 12 ff ff ff 	mov    %ax,-0xee(%ebp)
   13b0e:	0f 92 c0             	setb   %al
   13b11:	a8 01                	test   $0x1,%al
   13b13:	75 02                	jne    13b17 <device.tty.Terminal.fprintln__anon_1550+0x257>
   13b15:	eb 23                	jmp    13b3a <device.tty.Terminal.fprintln__anon_1550+0x27a>
   13b17:	8d 0d 29 02 04 00    	lea    0x40229,%ecx
   13b1d:	ba 10 00 00 00       	mov    $0x10,%edx
   13b22:	31 c0                	xor    %eax,%eax
   13b24:	8d 05 e8 fd 03 00    	lea    0x3fde8,%eax
   13b2a:	c7 04 24 00 00 00 00 	movl   $0x0,(%esp)
   13b31:	89 44 24 04          	mov    %eax,0x4(%esp)
   13b35:	e8 76 df ff ff       	call   11ab0 <builtin.default_panic>
   13b3a:	8b 85 18 ff ff ff    	mov    -0xe8(%ebp),%eax
   13b40:	66 8b 8d 12 ff ff ff 	mov    -0xee(%ebp),%cx
   13b47:	66 89 08             	mov    %cx,(%eax)
   13b4a:	81 c4 f4 00 00 00    	add    $0xf4,%esp
   13b50:	5e                   	pop    %esi
   13b51:	5f                   	pop    %edi
   13b52:	5d                   	pop    %ebp
   13b53:	c3                   	ret
   13b54:	66 2e 0f 1f 84 00 00 	nopw   %cs:0x0(%eax,%eax,1)
   13b5b:	00 00 00 
   13b5e:	66 90                	xchg   %ax,%ax

00013b60 <fmt.format__anon_1683>:
   13b60:	55                   	push   %ebp
   13b61:	89 e5                	mov    %esp,%ebp
   13b63:	56                   	push   %esi
   13b64:	83 ec 3c             	sub    $0x3c,%esp
   13b67:	89 55 d4             	mov    %edx,-0x2c(%ebp)
   13b6a:	89 4d d8             	mov    %ecx,-0x28(%ebp)
   13b6d:	8b 45 08             	mov    0x8(%ebp),%eax
   13b70:	89 45 dc             	mov    %eax,-0x24(%ebp)
   13b73:	f2 0f 10 02          	movsd  (%edx),%xmm0
   13b77:	f2 0f 11 45 e4       	movsd  %xmm0,-0x1c(%ebp)
   13b7c:	be 3f 03 04 00       	mov    $0x4033f,%esi
   13b81:	b8 1b 00 00 00       	mov    $0x1b,%eax
   13b86:	8d 55 e4             	lea    -0x1c(%ebp),%edx
   13b89:	89 34 24             	mov    %esi,(%esp)
   13b8c:	89 44 24 04          	mov    %eax,0x4(%esp)
   13b90:	e8 0b 01 00 00       	call   13ca0 <io.Writer.writeAll>
   13b95:	66 89 45 e2          	mov    %ax,-0x1e(%ebp)
   13b99:	66 83 f8 00          	cmp    $0x0,%ax
   13b9d:	75 36                	jne    13bd5 <fmt.format__anon_1683+0x75>
   13b9f:	eb 46                	jmp    13be7 <fmt.format__anon_1683+0x87>
   13ba1:	8b 4d d8             	mov    -0x28(%ebp),%ecx
   13ba4:	8b 45 d4             	mov    -0x2c(%ebp),%eax
   13ba7:	f2 0f 10 00          	movsd  (%eax),%xmm0
   13bab:	f2 0f 11 45 f0       	movsd  %xmm0,-0x10(%ebp)
   13bb0:	be 5d 03 04 00       	mov    $0x4035d,%esi
   13bb5:	b8 06 00 00 00       	mov    $0x6,%eax
   13bba:	8d 55 f0             	lea    -0x10(%ebp),%edx
   13bbd:	89 34 24             	mov    %esi,(%esp)
   13bc0:	89 44 24 04          	mov    %eax,0x4(%esp)
   13bc4:	e8 d7 00 00 00       	call   13ca0 <io.Writer.writeAll>
   13bc9:	66 89 45 d2          	mov    %ax,-0x2e(%ebp)
   13bcd:	66 83 f8 00          	cmp    $0x0,%ax
   13bd1:	75 69                	jne    13c3c <fmt.format__anon_1683+0xdc>
   13bd3:	eb 79                	jmp    13c4e <fmt.format__anon_1683+0xee>
   13bd5:	8b 4d d8             	mov    -0x28(%ebp),%ecx
   13bd8:	e8 13 02 00 00       	call   13df0 <builtin.returnError>
   13bdd:	66 8b 45 e2          	mov    -0x1e(%ebp),%ax
   13be1:	83 c4 3c             	add    $0x3c,%esp
   13be4:	5e                   	pop    %esi
   13be5:	5d                   	pop    %ebp
   13be6:	c3                   	ret
   13be7:	8b 45 d4             	mov    -0x2c(%ebp),%eax
   13bea:	8b 4d d8             	mov    -0x28(%ebp),%ecx
   13bed:	8b 55 dc             	mov    -0x24(%ebp),%edx
   13bf0:	c7 45 ec 00 00 00 00 	movl   $0x0,-0x14(%ebp)
   13bf7:	8b 12                	mov    (%edx),%edx
   13bf9:	8d 35 ac f9 03 00    	lea    0x3f9ac,%esi
   13bff:	89 34 24             	mov    %esi,(%esp)
   13c02:	89 44 24 04          	mov    %eax,0x4(%esp)
   13c06:	c7 44 24 08 03 00 00 	movl   $0x3,0x8(%esp)
   13c0d:	00 
   13c0e:	e8 9d 02 00 00       	call   13eb0 <fmt.formatType__anon_2165>
   13c13:	66 89 45 d0          	mov    %ax,-0x30(%ebp)
   13c17:	66 83 f8 00          	cmp    $0x0,%ax
   13c1b:	74 12                	je     13c2f <fmt.format__anon_1683+0xcf>
   13c1d:	8b 4d d8             	mov    -0x28(%ebp),%ecx
   13c20:	e8 cb 01 00 00       	call   13df0 <builtin.returnError>
   13c25:	66 8b 45 d0          	mov    -0x30(%ebp),%ax
   13c29:	83 c4 3c             	add    $0x3c,%esp
   13c2c:	5e                   	pop    %esi
   13c2d:	5d                   	pop    %ebp
   13c2e:	c3                   	ret
   13c2f:	e9 6d ff ff ff       	jmp    13ba1 <fmt.format__anon_1683+0x41>
   13c34:	31 c0                	xor    %eax,%eax
   13c36:	83 c4 3c             	add    $0x3c,%esp
   13c39:	5e                   	pop    %esi
   13c3a:	5d                   	pop    %ebp
   13c3b:	c3                   	ret
   13c3c:	8b 4d d8             	mov    -0x28(%ebp),%ecx
   13c3f:	e8 ac 01 00 00       	call   13df0 <builtin.returnError>
   13c44:	66 8b 45 d2          	mov    -0x2e(%ebp),%ax
   13c48:	83 c4 3c             	add    $0x3c,%esp
   13c4b:	5e                   	pop    %esi
   13c4c:	5d                   	pop    %ebp
   13c4d:	c3                   	ret
   13c4e:	8b 45 d4             	mov    -0x2c(%ebp),%eax
   13c51:	8b 4d d8             	mov    -0x28(%ebp),%ecx
   13c54:	8b 55 dc             	mov    -0x24(%ebp),%edx
   13c57:	c7 45 f8 01 00 00 00 	movl   $0x1,-0x8(%ebp)
   13c5e:	8b 52 04             	mov    0x4(%edx),%edx
   13c61:	8d 35 ac f9 03 00    	lea    0x3f9ac,%esi
   13c67:	89 34 24             	mov    %esi,(%esp)
   13c6a:	89 44 24 04          	mov    %eax,0x4(%esp)
   13c6e:	c7 44 24 08 03 00 00 	movl   $0x3,0x8(%esp)
   13c75:	00 
   13c76:	e8 35 02 00 00       	call   13eb0 <fmt.formatType__anon_2165>
   13c7b:	66 89 45 ce          	mov    %ax,-0x32(%ebp)
   13c7f:	66 83 f8 00          	cmp    $0x0,%ax
   13c83:	74 12                	je     13c97 <fmt.format__anon_1683+0x137>
   13c85:	8b 4d d8             	mov    -0x28(%ebp),%ecx
   13c88:	e8 63 01 00 00       	call   13df0 <builtin.returnError>
   13c8d:	66 8b 45 ce          	mov    -0x32(%ebp),%ax
   13c91:	83 c4 3c             	add    $0x3c,%esp
   13c94:	5e                   	pop    %esi
   13c95:	5d                   	pop    %ebp
   13c96:	c3                   	ret
   13c97:	eb 9b                	jmp    13c34 <fmt.format__anon_1683+0xd4>
   13c99:	0f 1f 80 00 00 00 00 	nopl   0x0(%eax)

00013ca0 <io.Writer.writeAll>:
   13ca0:	55                   	push   %ebp
   13ca1:	89 e5                	mov    %esp,%ebp
   13ca3:	57                   	push   %edi
   13ca4:	56                   	push   %esi
   13ca5:	83 ec 64             	sub    $0x64,%esp
   13ca8:	89 55 bc             	mov    %edx,-0x44(%ebp)
   13cab:	89 4d c0             	mov    %ecx,-0x40(%ebp)
   13cae:	8b 4d 0c             	mov    0xc(%ebp),%ecx
   13cb1:	8b 45 08             	mov    0x8(%ebp),%eax
   13cb4:	89 ca                	mov    %ecx,%edx
   13cb6:	89 55 c4             	mov    %edx,-0x3c(%ebp)
   13cb9:	89 c2                	mov    %eax,%edx
   13cbb:	89 55 c8             	mov    %edx,-0x38(%ebp)
   13cbe:	89 4d d0             	mov    %ecx,-0x30(%ebp)
   13cc1:	89 45 cc             	mov    %eax,-0x34(%ebp)
   13cc4:	c7 45 d4 00 00 00 00 	movl   $0x0,-0x2c(%ebp)
   13ccb:	eb 09                	jmp    13cd6 <io.Writer.writeAll+0x36>
   13ccd:	31 c0                	xor    %eax,%eax
   13ccf:	83 c4 64             	add    $0x64,%esp
   13cd2:	5e                   	pop    %esi
   13cd3:	5f                   	pop    %edi
   13cd4:	5d                   	pop    %ebp
   13cd5:	c3                   	ret
   13cd6:	8b 4d c4             	mov    -0x3c(%ebp),%ecx
   13cd9:	8b 45 d4             	mov    -0x2c(%ebp),%eax
   13cdc:	39 c8                	cmp    %ecx,%eax
   13cde:	75 04                	jne    13ce4 <io.Writer.writeAll+0x44>
   13ce0:	eb 44                	jmp    13d26 <io.Writer.writeAll+0x86>
   13ce2:	eb f2                	jmp    13cd6 <io.Writer.writeAll+0x36>
   13ce4:	8b 45 c8             	mov    -0x38(%ebp),%eax
   13ce7:	8b 4d c4             	mov    -0x3c(%ebp),%ecx
   13cea:	8b 55 bc             	mov    -0x44(%ebp),%edx
   13ced:	8b 75 d4             	mov    -0x2c(%ebp),%esi
   13cf0:	89 75 ac             	mov    %esi,-0x54(%ebp)
   13cf3:	f2 0f 10 02          	movsd  (%edx),%xmm0
   13cf7:	f2 0f 11 45 d8       	movsd  %xmm0,-0x28(%ebp)
   13cfc:	f2 0f 10 45 d8       	movsd  -0x28(%ebp),%xmm0
   13d01:	f2 0f 11 45 e0       	movsd  %xmm0,-0x20(%ebp)
   13d06:	89 4d ec             	mov    %ecx,-0x14(%ebp)
   13d09:	89 45 e8             	mov    %eax,-0x18(%ebp)
   13d0c:	8b 45 d4             	mov    -0x2c(%ebp),%eax
   13d0f:	89 45 b0             	mov    %eax,-0x50(%ebp)
   13d12:	8b 55 e8             	mov    -0x18(%ebp),%edx
   13d15:	8b 4d ec             	mov    -0x14(%ebp),%ecx
   13d18:	89 4d b4             	mov    %ecx,-0x4c(%ebp)
   13d1b:	01 c2                	add    %eax,%edx
   13d1d:	89 55 b8             	mov    %edx,-0x48(%ebp)
   13d20:	39 c8                	cmp    %ecx,%eax
   13d22:	76 17                	jbe    13d3b <io.Writer.writeAll+0x9b>
   13d24:	eb 17                	jmp    13d3d <io.Writer.writeAll+0x9d>
   13d26:	eb a5                	jmp    13ccd <io.Writer.writeAll+0x2d>
   13d28:	8b 45 b4             	mov    -0x4c(%ebp),%eax
   13d2b:	8b 55 b0             	mov    -0x50(%ebp),%edx
   13d2e:	89 c1                	mov    %eax,%ecx
   13d30:	29 d1                	sub    %edx,%ecx
   13d32:	89 4d a8             	mov    %ecx,-0x58(%ebp)
   13d35:	39 c0                	cmp    %eax,%eax
   13d37:	76 1b                	jbe    13d54 <io.Writer.writeAll+0xb4>
   13d39:	eb 1b                	jmp    13d56 <io.Writer.writeAll+0xb6>
   13d3b:	eb eb                	jmp    13d28 <io.Writer.writeAll+0x88>
   13d3d:	8b 55 b4             	mov    -0x4c(%ebp),%edx
   13d40:	8b 4d b0             	mov    -0x50(%ebp),%ecx
   13d43:	e8 f8 f0 ff ff       	call   12e40 <builtin.panicStartGreaterThanEnd>
   13d48:	8b 45 b0             	mov    -0x50(%ebp),%eax
   13d4b:	8b 4d b4             	mov    -0x4c(%ebp),%ecx
   13d4e:	39 c8                	cmp    %ecx,%eax
   13d50:	76 36                	jbe    13d88 <io.Writer.writeAll+0xe8>
   13d52:	eb 36                	jmp    13d8a <io.Writer.writeAll+0xea>
   13d54:	eb f2                	jmp    13d48 <io.Writer.writeAll+0xa8>
   13d56:	8b 55 b4             	mov    -0x4c(%ebp),%edx
   13d59:	89 d1                	mov    %edx,%ecx
   13d5b:	e8 70 dd ff ff       	call   11ad0 <builtin.panicOutOfBounds>
   13d60:	8b 55 c0             	mov    -0x40(%ebp),%edx
   13d63:	8b 75 b8             	mov    -0x48(%ebp),%esi
   13d66:	8b 45 a8             	mov    -0x58(%ebp),%eax
   13d69:	8d 4d f0             	lea    -0x10(%ebp),%ecx
   13d6c:	8d 7d e0             	lea    -0x20(%ebp),%edi
   13d6f:	89 3c 24             	mov    %edi,(%esp)
   13d72:	89 74 24 04          	mov    %esi,0x4(%esp)
   13d76:	89 44 24 08          	mov    %eax,0x8(%esp)
   13d7a:	e8 d1 0b 00 00       	call   14950 <io.Writer.write>
   13d7f:	66 83 7d f4 00       	cmpw   $0x0,-0xc(%ebp)
   13d84:	75 0f                	jne    13d95 <io.Writer.writeAll+0xf5>
   13d86:	eb 28                	jmp    13db0 <io.Writer.writeAll+0x110>
   13d88:	eb d6                	jmp    13d60 <io.Writer.writeAll+0xc0>
   13d8a:	8b 55 b4             	mov    -0x4c(%ebp),%edx
   13d8d:	8b 4d b0             	mov    -0x50(%ebp),%ecx
   13d90:	e8 3b dd ff ff       	call   11ad0 <builtin.panicOutOfBounds>
   13d95:	8b 4d c0             	mov    -0x40(%ebp),%ecx
   13d98:	66 8b 45 f4          	mov    -0xc(%ebp),%ax
   13d9c:	66 89 45 a6          	mov    %ax,-0x5a(%ebp)
   13da0:	e8 4b 00 00 00       	call   13df0 <builtin.returnError>
   13da5:	66 8b 45 a6          	mov    -0x5a(%ebp),%ax
   13da9:	83 c4 64             	add    $0x64,%esp
   13dac:	5e                   	pop    %esi
   13dad:	5f                   	pop    %edi
   13dae:	5d                   	pop    %ebp
   13daf:	c3                   	ret
   13db0:	8b 45 ac             	mov    -0x54(%ebp),%eax
   13db3:	03 45 f0             	add    -0x10(%ebp),%eax
   13db6:	89 45 a0             	mov    %eax,-0x60(%ebp)
   13db9:	0f 92 c0             	setb   %al
   13dbc:	72 02                	jb     13dc0 <io.Writer.writeAll+0x120>
   13dbe:	eb 23                	jmp    13de3 <io.Writer.writeAll+0x143>
   13dc0:	8d 0d 29 02 04 00    	lea    0x40229,%ecx
   13dc6:	ba 10 00 00 00       	mov    $0x10,%edx
   13dcb:	31 c0                	xor    %eax,%eax
   13dcd:	8d 05 e8 fd 03 00    	lea    0x3fde8,%eax
   13dd3:	c7 04 24 00 00 00 00 	movl   $0x0,(%esp)
   13dda:	89 44 24 04          	mov    %eax,0x4(%esp)
   13dde:	e8 cd dc ff ff       	call   11ab0 <builtin.default_panic>
   13de3:	8b 45 a0             	mov    -0x60(%ebp),%eax
   13de6:	89 45 d4             	mov    %eax,-0x2c(%ebp)
   13de9:	e9 f4 fe ff ff       	jmp    13ce2 <io.Writer.writeAll+0x42>
   13dee:	66 90                	xchg   %ax,%ax

00013df0 <builtin.returnError>:
   13df0:	55                   	push   %ebp
   13df1:	89 e5                	mov    %esp,%ebp
   13df3:	83 ec 38             	sub    $0x38,%esp
   13df6:	89 4d e4             	mov    %ecx,-0x1c(%ebp)
   13df9:	89 4d ec             	mov    %ecx,-0x14(%ebp)
   13dfc:	8b 45 04             	mov    0x4(%ebp),%eax
   13dff:	89 45 e8             	mov    %eax,-0x18(%ebp)
   13e02:	89 4d f0             	mov    %ecx,-0x10(%ebp)
   13e05:	89 45 f4             	mov    %eax,-0xc(%ebp)
   13e08:	8b 01                	mov    (%ecx),%eax
   13e0a:	8b 51 04             	mov    0x4(%ecx),%edx
   13e0d:	8b 49 08             	mov    0x8(%ecx),%ecx
   13e10:	39 c8                	cmp    %ecx,%eax
   13e12:	72 22                	jb     13e36 <builtin.returnError+0x46>
   13e14:	eb 40                	jmp    13e56 <builtin.returnError+0x66>
   13e16:	83 c4 38             	add    $0x38,%esp
   13e19:	5d                   	pop    %ebp
   13e1a:	c3                   	ret
   13e1b:	8b 45 e4             	mov    -0x1c(%ebp),%eax
   13e1e:	89 45 fc             	mov    %eax,-0x4(%ebp)
   13e21:	8b 45 fc             	mov    -0x4(%ebp),%eax
   13e24:	89 45 dc             	mov    %eax,-0x24(%ebp)
   13e27:	8b 00                	mov    (%eax),%eax
   13e29:	83 c0 01             	add    $0x1,%eax
   13e2c:	89 45 e0             	mov    %eax,-0x20(%ebp)
   13e2f:	0f 92 c0             	setb   %al
   13e32:	72 3f                	jb     13e73 <builtin.returnError+0x83>
   13e34:	eb 60                	jmp    13e96 <builtin.returnError+0xa6>
   13e36:	8b 45 e4             	mov    -0x1c(%ebp),%eax
   13e39:	89 45 f8             	mov    %eax,-0x8(%ebp)
   13e3c:	8b 4d f8             	mov    -0x8(%ebp),%ecx
   13e3f:	8b 00                	mov    (%eax),%eax
   13e41:	89 45 d0             	mov    %eax,-0x30(%ebp)
   13e44:	8b 51 04             	mov    0x4(%ecx),%edx
   13e47:	89 55 d4             	mov    %edx,-0x2c(%ebp)
   13e4a:	8b 49 08             	mov    0x8(%ecx),%ecx
   13e4d:	89 4d d8             	mov    %ecx,-0x28(%ebp)
   13e50:	39 c8                	cmp    %ecx,%eax
   13e52:	72 12                	jb     13e66 <builtin.returnError+0x76>
   13e54:	eb 12                	jmp    13e68 <builtin.returnError+0x78>
   13e56:	eb c3                	jmp    13e1b <builtin.returnError+0x2b>
   13e58:	8b 45 d4             	mov    -0x2c(%ebp),%eax
   13e5b:	8b 4d d0             	mov    -0x30(%ebp),%ecx
   13e5e:	8b 55 e8             	mov    -0x18(%ebp),%edx
   13e61:	89 14 88             	mov    %edx,(%eax,%ecx,4)
   13e64:	eb b5                	jmp    13e1b <builtin.returnError+0x2b>
   13e66:	eb f0                	jmp    13e58 <builtin.returnError+0x68>
   13e68:	8b 55 d8             	mov    -0x28(%ebp),%edx
   13e6b:	8b 4d d0             	mov    -0x30(%ebp),%ecx
   13e6e:	e8 5d dc ff ff       	call   11ad0 <builtin.panicOutOfBounds>
   13e73:	8d 0d 29 02 04 00    	lea    0x40229,%ecx
   13e79:	ba 10 00 00 00       	mov    $0x10,%edx
   13e7e:	31 c0                	xor    %eax,%eax
   13e80:	8d 05 e8 fd 03 00    	lea    0x3fde8,%eax
   13e86:	c7 04 24 00 00 00 00 	movl   $0x0,(%esp)
   13e8d:	89 44 24 04          	mov    %eax,0x4(%esp)
   13e91:	e8 1a dc ff ff       	call   11ab0 <builtin.default_panic>
   13e96:	8b 45 dc             	mov    -0x24(%ebp),%eax
   13e99:	8b 4d e0             	mov    -0x20(%ebp),%ecx
   13e9c:	89 08                	mov    %ecx,(%eax)
   13e9e:	e9 73 ff ff ff       	jmp    13e16 <builtin.returnError+0x26>
   13ea3:	66 2e 0f 1f 84 00 00 	nopw   %cs:0x0(%eax,%eax,1)
   13eaa:	00 00 00 
   13ead:	0f 1f 00             	nopl   (%eax)

00013eb0 <fmt.formatType__anon_2165>:
   13eb0:	55                   	push   %ebp
   13eb1:	89 e5                	mov    %esp,%ebp
   13eb3:	56                   	push   %esi
   13eb4:	83 ec 38             	sub    $0x38,%esp
   13eb7:	89 55 d0             	mov    %edx,-0x30(%ebp)
   13eba:	89 4d d4             	mov    %ecx,-0x2c(%ebp)
   13ebd:	8b 45 10             	mov    0x10(%ebp),%eax
   13ec0:	8b 45 0c             	mov    0xc(%ebp),%eax
   13ec3:	89 45 d8             	mov    %eax,-0x28(%ebp)
   13ec6:	8b 45 08             	mov    0x8(%ebp),%eax
   13ec9:	89 45 dc             	mov    %eax,-0x24(%ebp)
   13ecc:	89 55 e0             	mov    %edx,-0x20(%ebp)
   13ecf:	c7 45 e8 01 00 00 00 	movl   $0x1,-0x18(%ebp)
   13ed6:	c7 45 e4 74 f9 03 00 	movl   $0x3f974,-0x1c(%ebp)
   13edd:	c7 45 f0 06 00 00 00 	movl   $0x6,-0x10(%ebp)
   13ee4:	c7 45 ec f2 03 04 00 	movl   $0x403f2,-0x14(%ebp)
   13eeb:	c7 45 f8 06 00 00 00 	movl   $0x6,-0x8(%ebp)
   13ef2:	c7 45 f4 f2 03 04 00 	movl   $0x403f2,-0xc(%ebp)
   13ef9:	eb 24                	jmp    13f1f <fmt.formatType__anon_2165+0x6f>
   13efb:	8b 45 d8             	mov    -0x28(%ebp),%eax
   13efe:	8b 75 dc             	mov    -0x24(%ebp),%esi
   13f01:	8b 55 d0             	mov    -0x30(%ebp),%edx
   13f04:	8b 4d d4             	mov    -0x2c(%ebp),%ecx
   13f07:	89 34 24             	mov    %esi,(%esp)
   13f0a:	89 44 24 04          	mov    %eax,0x4(%esp)
   13f0e:	e8 cd 0a 00 00       	call   149e0 <fmt.formatValue__anon_2175>
   13f13:	66 89 45 ce          	mov    %ax,-0x32(%ebp)
   13f17:	66 83 f8 00          	cmp    $0x0,%ax
   13f1b:	74 04                	je     13f21 <fmt.formatType__anon_2165+0x71>
   13f1d:	eb 0c                	jmp    13f2b <fmt.formatType__anon_2165+0x7b>
   13f1f:	eb da                	jmp    13efb <fmt.formatType__anon_2165+0x4b>
   13f21:	66 8b 45 ce          	mov    -0x32(%ebp),%ax
   13f25:	83 c4 38             	add    $0x38,%esp
   13f28:	5e                   	pop    %esi
   13f29:	5d                   	pop    %ebp
   13f2a:	c3                   	ret
   13f2b:	8b 4d d4             	mov    -0x2c(%ebp),%ecx
   13f2e:	e8 bd fe ff ff       	call   13df0 <builtin.returnError>
   13f33:	66 8b 45 ce          	mov    -0x32(%ebp),%ax
   13f37:	83 c4 38             	add    $0x38,%esp
   13f3a:	5e                   	pop    %esi
   13f3b:	5d                   	pop    %ebp
   13f3c:	c3                   	ret
   13f3d:	0f 1f 00             	nopl   (%eax)

00013f40 <io.fixed_buffer_stream.fixedBufferStream__anon_1650>:
   13f40:	55                   	push   %ebp
   13f41:	89 e5                	mov    %esp,%ebp
   13f43:	56                   	push   %esi
   13f44:	83 ec 08             	sub    $0x8,%esp
   13f47:	89 c8                	mov    %ecx,%eax
   13f49:	8b 75 08             	mov    0x8(%ebp),%esi
   13f4c:	89 75 f8             	mov    %esi,-0x8(%ebp)
   13f4f:	89 55 f4             	mov    %edx,-0xc(%ebp)
   13f52:	89 71 04             	mov    %esi,0x4(%ecx)
   13f55:	89 11                	mov    %edx,(%ecx)
   13f57:	c7 41 08 00 00 00 00 	movl   $0x0,0x8(%ecx)
   13f5e:	83 c4 08             	add    $0x8,%esp
   13f61:	5e                   	pop    %esi
   13f62:	5d                   	pop    %ebp
   13f63:	c3                   	ret
   13f64:	66 2e 0f 1f 84 00 00 	nopw   %cs:0x0(%eax,%eax,1)
   13f6b:	00 00 00 
   13f6e:	66 90                	xchg   %ax,%ax

00013f70 <io.fixed_buffer_stream.FixedBufferStream([]u8).writer>:
   13f70:	55                   	push   %ebp
   13f71:	89 e5                	mov    %esp,%ebp
   13f73:	50                   	push   %eax
   13f74:	89 c8                	mov    %ecx,%eax
   13f76:	89 55 fc             	mov    %edx,-0x4(%ebp)
   13f79:	89 11                	mov    %edx,(%ecx)
   13f7b:	83 c4 04             	add    $0x4,%esp
   13f7e:	5d                   	pop    %ebp
   13f7f:	c3                   	ret

00013f80 <io.GenericWriter(*io.fixed_buffer_stream.FixedBufferStream([]u8),error{NoSpaceLeft},(function 'write')).typeErasedWriteFn>:
   13f80:	55                   	push   %ebp
   13f81:	89 e5                	mov    %esp,%ebp
   13f83:	57                   	push   %edi
   13f84:	56                   	push   %esi
   13f85:	83 ec 38             	sub    $0x38,%esp
   13f88:	89 55 cc             	mov    %edx,-0x34(%ebp)
   13f8b:	89 4d d0             	mov    %ecx,-0x30(%ebp)
   13f8e:	89 4d d4             	mov    %ecx,-0x2c(%ebp)
   13f91:	8b 55 10             	mov    0x10(%ebp),%edx
   13f94:	8b 4d 0c             	mov    0xc(%ebp),%ecx
   13f97:	8b 45 08             	mov    0x8(%ebp),%eax
   13f9a:	89 45 d8             	mov    %eax,-0x28(%ebp)
   13f9d:	89 d6                	mov    %edx,%esi
   13f9f:	89 75 dc             	mov    %esi,-0x24(%ebp)
   13fa2:	89 ce                	mov    %ecx,%esi
   13fa4:	89 75 e0             	mov    %esi,-0x20(%ebp)
   13fa7:	89 55 e8             	mov    %edx,-0x18(%ebp)
   13faa:	89 4d e4             	mov    %ecx,-0x1c(%ebp)
   13fad:	83 e0 03             	and    $0x3,%eax
   13fb0:	83 f8 00             	cmp    $0x0,%eax
   13fb3:	74 2f                	je     13fe4 <io.GenericWriter(*io.fixed_buffer_stream.FixedBufferStream([]u8),error{NoSpaceLeft},(function 'write')).typeErasedWriteFn+0x64>
   13fb5:	eb 2f                	jmp    13fe6 <io.GenericWriter(*io.fixed_buffer_stream.FixedBufferStream([]u8),error{NoSpaceLeft},(function 'write')).typeErasedWriteFn+0x66>
   13fb7:	8b 45 dc             	mov    -0x24(%ebp),%eax
   13fba:	8b 75 e0             	mov    -0x20(%ebp),%esi
   13fbd:	8b 55 cc             	mov    -0x34(%ebp),%edx
   13fc0:	8b 4d d8             	mov    -0x28(%ebp),%ecx
   13fc3:	89 4d ec             	mov    %ecx,-0x14(%ebp)
   13fc6:	8b 39                	mov    (%ecx),%edi
   13fc8:	8d 4d f0             	lea    -0x10(%ebp),%ecx
   13fcb:	89 3c 24             	mov    %edi,(%esp)
   13fce:	89 74 24 04          	mov    %esi,0x4(%esp)
   13fd2:	89 44 24 08          	mov    %eax,0x8(%esp)
   13fd6:	e8 a5 06 00 00       	call   14680 <io.fixed_buffer_stream.FixedBufferStream([]u8).write>
   13fdb:	66 83 7d f4 00       	cmpw   $0x0,-0xc(%ebp)
   13fe0:	74 26                	je     14008 <io.GenericWriter(*io.fixed_buffer_stream.FixedBufferStream([]u8),error{NoSpaceLeft},(function 'write')).typeErasedWriteFn+0x88>
   13fe2:	eb 3c                	jmp    14020 <io.GenericWriter(*io.fixed_buffer_stream.FixedBufferStream([]u8),error{NoSpaceLeft},(function 'write')).typeErasedWriteFn+0xa0>
   13fe4:	eb d1                	jmp    13fb7 <io.GenericWriter(*io.fixed_buffer_stream.FixedBufferStream([]u8),error{NoSpaceLeft},(function 'write')).typeErasedWriteFn+0x37>
   13fe6:	b9 63 01 04 00       	mov    $0x40163,%ecx
   13feb:	ba 13 00 00 00       	mov    $0x13,%edx
   13ff0:	31 c0                	xor    %eax,%eax
   13ff2:	8d 05 e8 fd 03 00    	lea    0x3fde8,%eax
   13ff8:	c7 04 24 00 00 00 00 	movl   $0x0,(%esp)
   13fff:	89 44 24 04          	mov    %eax,0x4(%esp)
   14003:	e8 a8 da ff ff       	call   11ab0 <builtin.default_panic>
   14008:	8b 45 d4             	mov    -0x2c(%ebp),%eax
   1400b:	8b 4d d0             	mov    -0x30(%ebp),%ecx
   1400e:	8b 55 f0             	mov    -0x10(%ebp),%edx
   14011:	89 11                	mov    %edx,(%ecx)
   14013:	8b 55 f4             	mov    -0xc(%ebp),%edx
   14016:	89 51 04             	mov    %edx,0x4(%ecx)
   14019:	83 c4 38             	add    $0x38,%esp
   1401c:	5e                   	pop    %esi
   1401d:	5f                   	pop    %edi
   1401e:	5d                   	pop    %ebp
   1401f:	c3                   	ret
   14020:	8b 4d cc             	mov    -0x34(%ebp),%ecx
   14023:	e8 c8 fd ff ff       	call   13df0 <builtin.returnError>
   14028:	8b 4d d0             	mov    -0x30(%ebp),%ecx
   1402b:	8b 45 d4             	mov    -0x2c(%ebp),%eax
   1402e:	8b 55 f0             	mov    -0x10(%ebp),%edx
   14031:	89 11                	mov    %edx,(%ecx)
   14033:	8b 55 f4             	mov    -0xc(%ebp),%edx
   14036:	89 51 04             	mov    %edx,0x4(%ecx)
   14039:	83 c4 38             	add    $0x38,%esp
   1403c:	5e                   	pop    %esi
   1403d:	5f                   	pop    %edi
   1403e:	5d                   	pop    %ebp
   1403f:	c3                   	ret

00014040 <builtin.panicUnwrapError>:
   14040:	55                   	push   %ebp
   14041:	89 e5                	mov    %esp,%ebp
   14043:	56                   	push   %esi
   14044:	83 ec 1c             	sub    $0x1c,%esp
   14047:	66 89 d0             	mov    %dx,%ax
   1404a:	89 4d e4             	mov    %ecx,-0x1c(%ebp)
   1404d:	66 89 45 ea          	mov    %ax,-0x16(%ebp)
   14051:	8b 55 04             	mov    0x4(%ebp),%edx
   14054:	89 55 ec             	mov    %edx,-0x14(%ebp)
   14057:	c6 45 f0 01          	movb   $0x1,-0x10(%ebp)
   1405b:	8b 15 f0 f9 03 00    	mov    0x3f9f0,%edx
   14061:	0f bf f0             	movswl %ax,%esi
   14064:	8b 04 f2             	mov    (%edx,%esi,8),%eax
   14067:	8b 54 f2 04          	mov    0x4(%edx,%esi,8),%edx
   1406b:	89 55 f8             	mov    %edx,-0x8(%ebp)
   1406e:	89 45 f4             	mov    %eax,-0xc(%ebp)
   14071:	8d 55 ec             	lea    -0x14(%ebp),%edx
   14074:	8d 45 f4             	lea    -0xc(%ebp),%eax
   14077:	89 04 24             	mov    %eax,(%esp)
   1407a:	e8 b1 09 00 00       	call   14a30 <debug.panicExtra__anon_2176>
   1407f:	90                   	nop

00014080 <io.fixed_buffer_stream.FixedBufferStream([]u8).getWritten>:
   14080:	55                   	push   %ebp
   14081:	89 e5                	mov    %esp,%ebp
   14083:	83 ec 18             	sub    $0x18,%esp
   14086:	8b 41 08             	mov    0x8(%ecx),%eax
   14089:	89 45 fc             	mov    %eax,-0x4(%ebp)
   1408c:	f2 0f 10 01          	movsd  (%ecx),%xmm0
   14090:	f2 0f 11 45 f4       	movsd  %xmm0,-0xc(%ebp)
   14095:	8b 49 08             	mov    0x8(%ecx),%ecx
   14098:	89 4d e8             	mov    %ecx,-0x18(%ebp)
   1409b:	8b 45 f4             	mov    -0xc(%ebp),%eax
   1409e:	89 45 ec             	mov    %eax,-0x14(%ebp)
   140a1:	8b 45 f8             	mov    -0x8(%ebp),%eax
   140a4:	89 45 f0             	mov    %eax,-0x10(%ebp)
   140a7:	31 c0                	xor    %eax,%eax
   140a9:	39 c8                	cmp    %ecx,%eax
   140ab:	76 0e                	jbe    140bb <io.fixed_buffer_stream.FixedBufferStream([]u8).getWritten+0x3b>
   140ad:	eb 0e                	jmp    140bd <io.fixed_buffer_stream.FixedBufferStream([]u8).getWritten+0x3d>
   140af:	8b 45 e8             	mov    -0x18(%ebp),%eax
   140b2:	8b 4d f0             	mov    -0x10(%ebp),%ecx
   140b5:	39 c8                	cmp    %ecx,%eax
   140b7:	76 19                	jbe    140d2 <io.fixed_buffer_stream.FixedBufferStream([]u8).getWritten+0x52>
   140b9:	eb 19                	jmp    140d4 <io.fixed_buffer_stream.FixedBufferStream([]u8).getWritten+0x54>
   140bb:	eb f2                	jmp    140af <io.fixed_buffer_stream.FixedBufferStream([]u8).getWritten+0x2f>
   140bd:	8b 55 e8             	mov    -0x18(%ebp),%edx
   140c0:	31 c9                	xor    %ecx,%ecx
   140c2:	e8 79 ed ff ff       	call   12e40 <builtin.panicStartGreaterThanEnd>
   140c7:	8b 4d e8             	mov    -0x18(%ebp),%ecx
   140ca:	31 c0                	xor    %eax,%eax
   140cc:	39 c8                	cmp    %ecx,%eax
   140ce:	76 1a                	jbe    140ea <io.fixed_buffer_stream.FixedBufferStream([]u8).getWritten+0x6a>
   140d0:	eb 1a                	jmp    140ec <io.fixed_buffer_stream.FixedBufferStream([]u8).getWritten+0x6c>
   140d2:	eb f3                	jmp    140c7 <io.fixed_buffer_stream.FixedBufferStream([]u8).getWritten+0x47>
   140d4:	8b 55 f0             	mov    -0x10(%ebp),%edx
   140d7:	8b 4d e8             	mov    -0x18(%ebp),%ecx
   140da:	e8 f1 d9 ff ff       	call   11ad0 <builtin.panicOutOfBounds>
   140df:	8b 55 e8             	mov    -0x18(%ebp),%edx
   140e2:	8b 45 ec             	mov    -0x14(%ebp),%eax
   140e5:	83 c4 18             	add    $0x18,%esp
   140e8:	5d                   	pop    %ebp
   140e9:	c3                   	ret
   140ea:	eb f3                	jmp    140df <io.fixed_buffer_stream.FixedBufferStream([]u8).getWritten+0x5f>
   140ec:	8b 55 e8             	mov    -0x18(%ebp),%edx
   140ef:	31 c9                	xor    %ecx,%ecx
   140f1:	e8 da d9 ff ff       	call   11ad0 <builtin.panicOutOfBounds>
   140f6:	66 2e 0f 1f 84 00 00 	nopw   %cs:0x0(%eax,%eax,1)
   140fd:	00 00 00 

00014100 <fmt.bufPrint__anon_2166>:
   14100:	55                   	push   %ebp
   14101:	89 e5                	mov    %esp,%ebp
   14103:	56                   	push   %esi
   14104:	83 ec 64             	sub    $0x64,%esp
   14107:	89 55 a4             	mov    %edx,-0x5c(%ebp)
   1410a:	89 4d a8             	mov    %ecx,-0x58(%ebp)
   1410d:	89 4d ac             	mov    %ecx,-0x54(%ebp)
   14110:	8b 45 10             	mov    0x10(%ebp),%eax
   14113:	89 45 b0             	mov    %eax,-0x50(%ebp)
   14116:	8b 75 0c             	mov    0xc(%ebp),%esi
   14119:	8b 4d 08             	mov    0x8(%ebp),%ecx
   1411c:	89 f0                	mov    %esi,%eax
   1411e:	89 ca                	mov    %ecx,%edx
   14120:	89 75 bc             	mov    %esi,-0x44(%ebp)
   14123:	89 4d b8             	mov    %ecx,-0x48(%ebp)
   14126:	8d 4d cc             	lea    -0x34(%ebp),%ecx
   14129:	89 04 24             	mov    %eax,(%esp)
   1412c:	e8 0f fe ff ff       	call   13f40 <io.fixed_buffer_stream.fixedBufferStream__anon_1650>
   14131:	8b 45 cc             	mov    -0x34(%ebp),%eax
   14134:	89 45 c0             	mov    %eax,-0x40(%ebp)
   14137:	8b 45 d0             	mov    -0x30(%ebp),%eax
   1413a:	89 45 c4             	mov    %eax,-0x3c(%ebp)
   1413d:	8b 45 d4             	mov    -0x2c(%ebp),%eax
   14140:	89 45 c8             	mov    %eax,-0x38(%ebp)
   14143:	8d 4d d8             	lea    -0x28(%ebp),%ecx
   14146:	8d 55 c0             	lea    -0x40(%ebp),%edx
   14149:	e8 22 fe ff ff       	call   13f70 <io.fixed_buffer_stream.FixedBufferStream([]u8).writer>
   1414e:	8b 45 d8             	mov    -0x28(%ebp),%eax
   14151:	89 45 dc             	mov    %eax,-0x24(%ebp)
   14154:	8d 45 dc             	lea    -0x24(%ebp),%eax
   14157:	89 45 e0             	mov    %eax,-0x20(%ebp)
   1415a:	8d 45 dc             	lea    -0x24(%ebp),%eax
   1415d:	89 45 ec             	mov    %eax,-0x14(%ebp)
   14160:	8b 45 ec             	mov    -0x14(%ebp),%eax
   14163:	89 45 e4             	mov    %eax,-0x1c(%ebp)
   14166:	8d 05 80 3f 01 00    	lea    0x13f80,%eax
   1416c:	89 45 e8             	mov    %eax,-0x18(%ebp)
   1416f:	8d 45 e4             	lea    -0x1c(%ebp),%eax
   14172:	89 45 b4             	mov    %eax,-0x4c(%ebp)
   14175:	8b 45 b0             	mov    -0x50(%ebp),%eax
   14178:	8b 4d a4             	mov    -0x5c(%ebp),%ecx
   1417b:	8b 55 b4             	mov    -0x4c(%ebp),%edx
   1417e:	89 04 24             	mov    %eax,(%esp)
   14181:	e8 ca 0a 00 00       	call   14c50 <fmt.format__anon_2177>
   14186:	66 89 45 a2          	mov    %ax,-0x5e(%ebp)
   1418a:	66 83 f8 00          	cmp    $0x0,%ax
   1418e:	74 3d                	je     141cd <fmt.bufPrint__anon_2166+0xcd>
   14190:	eb 3d                	jmp    141cf <fmt.bufPrint__anon_2166+0xcf>
   14192:	8d 4d c0             	lea    -0x40(%ebp),%ecx
   14195:	e8 e6 fe ff ff       	call   14080 <io.fixed_buffer_stream.FixedBufferStream([]u8).getWritten>
   1419a:	8b 4d a8             	mov    -0x58(%ebp),%ecx
   1419d:	89 c6                	mov    %eax,%esi
   1419f:	8b 45 ac             	mov    -0x54(%ebp),%eax
   141a2:	89 75 9c             	mov    %esi,-0x64(%ebp)
   141a5:	89 d6                	mov    %edx,%esi
   141a7:	8b 55 9c             	mov    -0x64(%ebp),%edx
   141aa:	66 c7 45 f8 00 00    	movw   $0x0,-0x8(%ebp)
   141b0:	89 75 f4             	mov    %esi,-0xc(%ebp)
   141b3:	89 55 f0             	mov    %edx,-0x10(%ebp)
   141b6:	8b 55 f0             	mov    -0x10(%ebp),%edx
   141b9:	89 11                	mov    %edx,(%ecx)
   141bb:	8b 55 f4             	mov    -0xc(%ebp),%edx
   141be:	89 51 04             	mov    %edx,0x4(%ecx)
   141c1:	8b 55 f8             	mov    -0x8(%ebp),%edx
   141c4:	89 51 08             	mov    %edx,0x8(%ecx)
   141c7:	83 c4 64             	add    $0x64,%esp
   141ca:	5e                   	pop    %esi
   141cb:	5d                   	pop    %ebp
   141cc:	c3                   	ret
   141cd:	eb c3                	jmp    14192 <fmt.bufPrint__anon_2166+0x92>
   141cf:	66 8b 45 a2          	mov    -0x5e(%ebp),%ax
   141d3:	66 83 e8 01          	sub    $0x1,%ax
   141d7:	74 11                	je     141ea <fmt.bufPrint__anon_2166+0xea>
   141d9:	eb 00                	jmp    141db <fmt.bufPrint__anon_2166+0xdb>
   141db:	66 8b 45 a2          	mov    -0x5e(%ebp),%ax
   141df:	8b 4d a4             	mov    -0x5c(%ebp),%ecx
   141e2:	0f b7 d0             	movzwl %ax,%edx
   141e5:	e8 56 fe ff ff       	call   14040 <builtin.panicUnwrapError>
   141ea:	8b 4d a4             	mov    -0x5c(%ebp),%ecx
   141ed:	e8 fe fb ff ff       	call   13df0 <builtin.returnError>
   141f2:	8b 4d a8             	mov    -0x58(%ebp),%ecx
   141f5:	8b 45 ac             	mov    -0x54(%ebp),%eax
   141f8:	8b 15 40 fa 03 00    	mov    0x3fa40,%edx
   141fe:	89 11                	mov    %edx,(%ecx)
   14200:	8b 15 44 fa 03 00    	mov    0x3fa44,%edx
   14206:	89 51 04             	mov    %edx,0x4(%ecx)
   14209:	8b 15 48 fa 03 00    	mov    0x3fa48,%edx
   1420f:	89 51 08             	mov    %edx,0x8(%ecx)
   14212:	83 c4 64             	add    $0x64,%esp
   14215:	5e                   	pop    %esi
   14216:	5d                   	pop    %ebp
   14217:	c3                   	ret
   14218:	0f 1f 84 00 00 00 00 	nopl   0x0(%eax,%eax,1)
   1421f:	00 

00014220 <fmt.bufPrint__anon_2167>:
   14220:	55                   	push   %ebp
   14221:	89 e5                	mov    %esp,%ebp
   14223:	56                   	push   %esi
   14224:	83 ec 64             	sub    $0x64,%esp
   14227:	89 55 a4             	mov    %edx,-0x5c(%ebp)
   1422a:	89 4d a8             	mov    %ecx,-0x58(%ebp)
   1422d:	89 4d ac             	mov    %ecx,-0x54(%ebp)
   14230:	8b 45 10             	mov    0x10(%ebp),%eax
   14233:	89 45 b0             	mov    %eax,-0x50(%ebp)
   14236:	8b 75 0c             	mov    0xc(%ebp),%esi
   14239:	8b 4d 08             	mov    0x8(%ebp),%ecx
   1423c:	89 f0                	mov    %esi,%eax
   1423e:	89 ca                	mov    %ecx,%edx
   14240:	89 75 bc             	mov    %esi,-0x44(%ebp)
   14243:	89 4d b8             	mov    %ecx,-0x48(%ebp)
   14246:	8d 4d cc             	lea    -0x34(%ebp),%ecx
   14249:	89 04 24             	mov    %eax,(%esp)
   1424c:	e8 ef fc ff ff       	call   13f40 <io.fixed_buffer_stream.fixedBufferStream__anon_1650>
   14251:	8b 45 cc             	mov    -0x34(%ebp),%eax
   14254:	89 45 c0             	mov    %eax,-0x40(%ebp)
   14257:	8b 45 d0             	mov    -0x30(%ebp),%eax
   1425a:	89 45 c4             	mov    %eax,-0x3c(%ebp)
   1425d:	8b 45 d4             	mov    -0x2c(%ebp),%eax
   14260:	89 45 c8             	mov    %eax,-0x38(%ebp)
   14263:	8d 4d d8             	lea    -0x28(%ebp),%ecx
   14266:	8d 55 c0             	lea    -0x40(%ebp),%edx
   14269:	e8 02 fd ff ff       	call   13f70 <io.fixed_buffer_stream.FixedBufferStream([]u8).writer>
   1426e:	8b 45 d8             	mov    -0x28(%ebp),%eax
   14271:	89 45 dc             	mov    %eax,-0x24(%ebp)
   14274:	8d 45 dc             	lea    -0x24(%ebp),%eax
   14277:	89 45 e0             	mov    %eax,-0x20(%ebp)
   1427a:	8d 45 dc             	lea    -0x24(%ebp),%eax
   1427d:	89 45 ec             	mov    %eax,-0x14(%ebp)
   14280:	8b 45 ec             	mov    -0x14(%ebp),%eax
   14283:	89 45 e4             	mov    %eax,-0x1c(%ebp)
   14286:	8d 05 80 3f 01 00    	lea    0x13f80,%eax
   1428c:	89 45 e8             	mov    %eax,-0x18(%ebp)
   1428f:	8d 45 e4             	lea    -0x1c(%ebp),%eax
   14292:	89 45 b4             	mov    %eax,-0x4c(%ebp)
   14295:	8b 45 b0             	mov    -0x50(%ebp),%eax
   14298:	8b 4d a4             	mov    -0x5c(%ebp),%ecx
   1429b:	8b 55 b4             	mov    -0x4c(%ebp),%edx
   1429e:	89 04 24             	mov    %eax,(%esp)
   142a1:	e8 da 0b 00 00       	call   14e80 <fmt.format__anon_2179>
   142a6:	66 89 45 a2          	mov    %ax,-0x5e(%ebp)
   142aa:	66 83 f8 00          	cmp    $0x0,%ax
   142ae:	74 3d                	je     142ed <fmt.bufPrint__anon_2167+0xcd>
   142b0:	eb 3d                	jmp    142ef <fmt.bufPrint__anon_2167+0xcf>
   142b2:	8d 4d c0             	lea    -0x40(%ebp),%ecx
   142b5:	e8 c6 fd ff ff       	call   14080 <io.fixed_buffer_stream.FixedBufferStream([]u8).getWritten>
   142ba:	8b 4d a8             	mov    -0x58(%ebp),%ecx
   142bd:	89 c6                	mov    %eax,%esi
   142bf:	8b 45 ac             	mov    -0x54(%ebp),%eax
   142c2:	89 75 9c             	mov    %esi,-0x64(%ebp)
   142c5:	89 d6                	mov    %edx,%esi
   142c7:	8b 55 9c             	mov    -0x64(%ebp),%edx
   142ca:	66 c7 45 f8 00 00    	movw   $0x0,-0x8(%ebp)
   142d0:	89 75 f4             	mov    %esi,-0xc(%ebp)
   142d3:	89 55 f0             	mov    %edx,-0x10(%ebp)
   142d6:	8b 55 f0             	mov    -0x10(%ebp),%edx
   142d9:	89 11                	mov    %edx,(%ecx)
   142db:	8b 55 f4             	mov    -0xc(%ebp),%edx
   142de:	89 51 04             	mov    %edx,0x4(%ecx)
   142e1:	8b 55 f8             	mov    -0x8(%ebp),%edx
   142e4:	89 51 08             	mov    %edx,0x8(%ecx)
   142e7:	83 c4 64             	add    $0x64,%esp
   142ea:	5e                   	pop    %esi
   142eb:	5d                   	pop    %ebp
   142ec:	c3                   	ret
   142ed:	eb c3                	jmp    142b2 <fmt.bufPrint__anon_2167+0x92>
   142ef:	66 8b 45 a2          	mov    -0x5e(%ebp),%ax
   142f3:	66 83 e8 01          	sub    $0x1,%ax
   142f7:	74 11                	je     1430a <fmt.bufPrint__anon_2167+0xea>
   142f9:	eb 00                	jmp    142fb <fmt.bufPrint__anon_2167+0xdb>
   142fb:	66 8b 45 a2          	mov    -0x5e(%ebp),%ax
   142ff:	8b 4d a4             	mov    -0x5c(%ebp),%ecx
   14302:	0f b7 d0             	movzwl %ax,%edx
   14305:	e8 36 fd ff ff       	call   14040 <builtin.panicUnwrapError>
   1430a:	8b 4d a4             	mov    -0x5c(%ebp),%ecx
   1430d:	e8 de fa ff ff       	call   13df0 <builtin.returnError>
   14312:	8b 4d a8             	mov    -0x58(%ebp),%ecx
   14315:	8b 45 ac             	mov    -0x54(%ebp),%eax
   14318:	8b 15 d4 fa 03 00    	mov    0x3fad4,%edx
   1431e:	89 11                	mov    %edx,(%ecx)
   14320:	8b 15 d8 fa 03 00    	mov    0x3fad8,%edx
   14326:	89 51 04             	mov    %edx,0x4(%ecx)
   14329:	8b 15 dc fa 03 00    	mov    0x3fadc,%edx
   1432f:	89 51 08             	mov    %edx,0x8(%ecx)
   14332:	83 c4 64             	add    $0x64,%esp
   14335:	5e                   	pop    %esi
   14336:	5d                   	pop    %ebp
   14337:	c3                   	ret
   14338:	0f 1f 84 00 00 00 00 	nopl   0x0(%eax,%eax,1)
   1433f:	00 

00014340 <debug.panicExtra__anon_2168>:
   14340:	55                   	push   %ebp
   14341:	89 e5                	mov    %esp,%ebp
   14343:	57                   	push   %edi
   14344:	56                   	push   %esi
   14345:	b8 ec 10 00 00       	mov    $0x10ec,%eax
   1434a:	e8 d1 8c 02 00       	call   3d020 <__zig_probe_stack>
   1434f:	29 c4                	sub    %eax,%esp
   14351:	89 95 24 ef ff ff    	mov    %edx,-0x10dc(%ebp)
   14357:	89 8d 28 ef ff ff    	mov    %ecx,-0x10d8(%ebp)
   1435d:	8b 45 08             	mov    0x8(%ebp),%eax
   14360:	89 85 2c ef ff ff    	mov    %eax,-0x10d4(%ebp)
   14366:	89 8d 38 ef ff ff    	mov    %ecx,-0x10c8(%ebp)
   1436c:	8d 85 3c ef ff ff    	lea    -0x10c4(%ebp),%eax
   14372:	89 85 c0 ef ff ff    	mov    %eax,-0x1040(%ebp)
   14378:	c7 85 c4 ef ff ff 20 	movl   $0x20,-0x103c(%ebp)
   1437f:	00 00 00 
   14382:	c7 85 bc ef ff ff 00 	movl   $0x0,-0x1044(%ebp)
   14389:	00 00 00 
   1438c:	8b 85 bc ef ff ff    	mov    -0x1044(%ebp),%eax
   14392:	89 85 30 ef ff ff    	mov    %eax,-0x10d0(%ebp)
   14398:	8d 05 2f 03 04 00    	lea    0x4032f,%eax
   1439e:	89 85 c8 ef ff ff    	mov    %eax,-0x1038(%ebp)
   143a4:	8d 85 cd ef ff ff    	lea    -0x1033(%ebp),%eax
   143aa:	89 04 24             	mov    %eax,(%esp)
   143ad:	c7 44 24 04 aa 00 00 	movl   $0xaa,0x4(%esp)
   143b4:	00 
   143b5:	c7 44 24 08 0f 10 00 	movl   $0x100f,0x8(%esp)
   143bc:	00 
   143bd:	e8 7e 8d 02 00       	call   3d140 <memset>
   143c2:	8d 85 cd ef ff ff    	lea    -0x1033(%ebp),%eax
   143c8:	89 85 34 ef ff ff    	mov    %eax,-0x10cc(%ebp)
   143ce:	b8 00 10 00 00       	mov    $0x1000,%eax
   143d3:	3d 0f 10 00 00       	cmp    $0x100f,%eax
   143d8:	76 35                	jbe    1440f <debug.panicExtra__anon_2168+0xcf>
   143da:	eb 35                	jmp    14411 <debug.panicExtra__anon_2168+0xd1>
   143dc:	8b 85 2c ef ff ff    	mov    -0x10d4(%ebp),%eax
   143e2:	8b bd 34 ef ff ff    	mov    -0x10cc(%ebp),%edi
   143e8:	be 00 10 00 00       	mov    $0x1000,%esi
   143ed:	8d 4d dc             	lea    -0x24(%ebp),%ecx
   143f0:	8d 95 bc ef ff ff    	lea    -0x1044(%ebp),%edx
   143f6:	89 3c 24             	mov    %edi,(%esp)
   143f9:	89 74 24 04          	mov    %esi,0x4(%esp)
   143fd:	89 44 24 08          	mov    %eax,0x8(%esp)
   14401:	e8 ea 0e 00 00       	call   152f0 <fmt.bufPrint__anon_2183>
   14406:	66 83 7d e4 00       	cmpw   $0x0,-0x1c(%ebp)
   1440b:	74 49                	je     14456 <debug.panicExtra__anon_2168+0x116>
   1440d:	eb 5b                	jmp    1446a <debug.panicExtra__anon_2168+0x12a>
   1440f:	eb cb                	jmp    143dc <debug.panicExtra__anon_2168+0x9c>
   14411:	b9 00 10 00 00       	mov    $0x1000,%ecx
   14416:	ba 0f 10 00 00       	mov    $0x100f,%edx
   1441b:	e8 b0 d6 ff ff       	call   11ad0 <builtin.panicOutOfBounds>
   14420:	8b 85 24 ef ff ff    	mov    -0x10dc(%ebp),%eax
   14426:	8b b5 28 ef ff ff    	mov    -0x10d8(%ebp),%esi
   1442c:	8b 8d 20 ef ff ff    	mov    -0x10e0(%ebp),%ecx
   14432:	8b 95 1c ef ff ff    	mov    -0x10e4(%ebp),%edx
   14438:	89 4d e8             	mov    %ecx,-0x18(%ebp)
   1443b:	89 55 ec             	mov    %edx,-0x14(%ebp)
   1443e:	89 55 f4             	mov    %edx,-0xc(%ebp)
   14441:	89 4d f0             	mov    %ecx,-0x10(%ebp)
   14444:	8b 4d f0             	mov    -0x10(%ebp),%ecx
   14447:	8b 55 f4             	mov    -0xc(%ebp),%edx
   1444a:	89 34 24             	mov    %esi,(%esp)
   1444d:	89 44 24 04          	mov    %eax,0x4(%esp)
   14451:	e8 5a d6 ff ff       	call   11ab0 <builtin.default_panic>
   14456:	8b 4d dc             	mov    -0x24(%ebp),%ecx
   14459:	8b 45 e0             	mov    -0x20(%ebp),%eax
   1445c:	89 8d 20 ef ff ff    	mov    %ecx,-0x10e0(%ebp)
   14462:	89 85 1c ef ff ff    	mov    %eax,-0x10e4(%ebp)
   14468:	eb b6                	jmp    14420 <debug.panicExtra__anon_2168+0xe0>
   1446a:	66 8b 45 e4          	mov    -0x1c(%ebp),%ax
   1446e:	66 83 e8 01          	sub    $0x1,%ax
   14472:	74 24                	je     14498 <debug.panicExtra__anon_2168+0x158>
   14474:	eb 00                	jmp    14476 <debug.panicExtra__anon_2168+0x136>
   14476:	b9 b9 04 04 00       	mov    $0x404b9,%ecx
   1447b:	ba 17 00 00 00       	mov    $0x17,%edx
   14480:	31 c0                	xor    %eax,%eax
   14482:	8d 05 e8 fd 03 00    	lea    0x3fde8,%eax
   14488:	c7 04 24 00 00 00 00 	movl   $0x0,(%esp)
   1448f:	89 44 24 04          	mov    %eax,0x4(%esp)
   14493:	e8 18 d6 ff ff       	call   11ab0 <builtin.default_panic>
   14498:	8d 85 cd ef ff ff    	lea    -0x1033(%ebp),%eax
   1449e:	05 00 10 00 00       	add    $0x1000,%eax
   144a3:	89 85 18 ef ff ff    	mov    %eax,-0x10e8(%ebp)
   144a9:	eb 2c                	jmp    144d7 <debug.panicExtra__anon_2168+0x197>
   144ab:	8b 85 18 ef ff ff    	mov    -0x10e8(%ebp),%eax
   144b1:	89 c2                	mov    %eax,%edx
   144b3:	83 c2 0f             	add    $0xf,%edx
   144b6:	8d 0d 2f 03 04 00    	lea    0x4032f,%ecx
   144bc:	83 c1 0f             	add    $0xf,%ecx
   144bf:	39 c8                	cmp    %ecx,%eax
   144c1:	0f 93 c0             	setae  %al
   144c4:	8d 0d 2f 03 04 00    	lea    0x4032f,%ecx
   144ca:	39 d1                	cmp    %edx,%ecx
   144cc:	0f 93 c1             	setae  %cl
   144cf:	08 c8                	or     %cl,%al
   144d1:	a8 01                	test   $0x1,%al
   144d3:	75 59                	jne    1452e <debug.panicExtra__anon_2168+0x1ee>
   144d5:	eb 59                	jmp    14530 <debug.panicExtra__anon_2168+0x1f0>
   144d7:	eb d2                	jmp    144ab <debug.panicExtra__anon_2168+0x16b>
   144d9:	ba 0f 10 00 00       	mov    $0x100f,%edx
   144de:	89 d1                	mov    %edx,%ecx
   144e0:	e8 eb d5 ff ff       	call   11ad0 <builtin.panicOutOfBounds>
   144e5:	8b 85 30 ef ff ff    	mov    -0x10d0(%ebp),%eax
   144eb:	8b 8d 18 ef ff ff    	mov    -0x10e8(%ebp),%ecx
   144f1:	c7 41 0b 74 65 64 29 	movl   $0x29646574,0xb(%ecx)
   144f8:	c7 41 08 6e 63 61 74 	movl   $0x7461636e,0x8(%ecx)
   144ff:	c7 41 04 20 74 72 75 	movl   $0x75727420,0x4(%ecx)
   14506:	c7 01 28 6d 73 67    	movl   $0x67736d28,(%ecx)
   1450c:	89 85 bc ef ff ff    	mov    %eax,-0x1044(%ebp)
   14512:	b8 0f 10 00 00       	mov    $0x100f,%eax
   14517:	8d 8d cd ef ff ff    	lea    -0x1033(%ebp),%ecx
   1451d:	89 8d 20 ef ff ff    	mov    %ecx,-0x10e0(%ebp)
   14523:	89 85 1c ef ff ff    	mov    %eax,-0x10e4(%ebp)
   14529:	e9 f2 fe ff ff       	jmp    14420 <debug.panicExtra__anon_2168+0xe0>
   1452e:	eb b5                	jmp    144e5 <debug.panicExtra__anon_2168+0x1a5>
   14530:	b9 0c 04 04 00       	mov    $0x4040c,%ecx
   14535:	ba 17 00 00 00       	mov    $0x17,%edx
   1453a:	31 c0                	xor    %eax,%eax
   1453c:	8d 05 e8 fd 03 00    	lea    0x3fde8,%eax
   14542:	c7 04 24 00 00 00 00 	movl   $0x0,(%esp)
   14549:	89 44 24 04          	mov    %eax,0x4(%esp)
   1454d:	e8 5e d5 ff ff       	call   11ab0 <builtin.default_panic>
   14552:	66 2e 0f 1f 84 00 00 	nopw   %cs:0x0(%eax,%eax,1)
   14559:	00 00 00 
   1455c:	0f 1f 40 00          	nopl   0x0(%eax)

00014560 <fmt.bufPrint__anon_2174>:
   14560:	55                   	push   %ebp
   14561:	89 e5                	mov    %esp,%ebp
   14563:	56                   	push   %esi
   14564:	83 ec 64             	sub    $0x64,%esp
   14567:	89 55 a4             	mov    %edx,-0x5c(%ebp)
   1456a:	89 4d a8             	mov    %ecx,-0x58(%ebp)
   1456d:	89 4d ac             	mov    %ecx,-0x54(%ebp)
   14570:	8b 45 10             	mov    0x10(%ebp),%eax
   14573:	89 45 b0             	mov    %eax,-0x50(%ebp)
   14576:	8b 75 0c             	mov    0xc(%ebp),%esi
   14579:	8b 4d 08             	mov    0x8(%ebp),%ecx
   1457c:	89 f0                	mov    %esi,%eax
   1457e:	89 ca                	mov    %ecx,%edx
   14580:	89 75 bc             	mov    %esi,-0x44(%ebp)
   14583:	89 4d b8             	mov    %ecx,-0x48(%ebp)
   14586:	8d 4d cc             	lea    -0x34(%ebp),%ecx
   14589:	89 04 24             	mov    %eax,(%esp)
   1458c:	e8 af f9 ff ff       	call   13f40 <io.fixed_buffer_stream.fixedBufferStream__anon_1650>
   14591:	8b 45 cc             	mov    -0x34(%ebp),%eax
   14594:	89 45 c0             	mov    %eax,-0x40(%ebp)
   14597:	8b 45 d0             	mov    -0x30(%ebp),%eax
   1459a:	89 45 c4             	mov    %eax,-0x3c(%ebp)
   1459d:	8b 45 d4             	mov    -0x2c(%ebp),%eax
   145a0:	89 45 c8             	mov    %eax,-0x38(%ebp)
   145a3:	8d 4d d8             	lea    -0x28(%ebp),%ecx
   145a6:	8d 55 c0             	lea    -0x40(%ebp),%edx
   145a9:	e8 c2 f9 ff ff       	call   13f70 <io.fixed_buffer_stream.FixedBufferStream([]u8).writer>
   145ae:	8b 45 d8             	mov    -0x28(%ebp),%eax
   145b1:	89 45 dc             	mov    %eax,-0x24(%ebp)
   145b4:	8d 45 dc             	lea    -0x24(%ebp),%eax
   145b7:	89 45 e0             	mov    %eax,-0x20(%ebp)
   145ba:	8d 45 dc             	lea    -0x24(%ebp),%eax
   145bd:	89 45 ec             	mov    %eax,-0x14(%ebp)
   145c0:	8b 45 ec             	mov    -0x14(%ebp),%eax
   145c3:	89 45 e4             	mov    %eax,-0x1c(%ebp)
   145c6:	8d 05 80 3f 01 00    	lea    0x13f80,%eax
   145cc:	89 45 e8             	mov    %eax,-0x18(%ebp)
   145cf:	8d 45 e4             	lea    -0x1c(%ebp),%eax
   145d2:	89 45 b4             	mov    %eax,-0x4c(%ebp)
   145d5:	8b 45 b0             	mov    -0x50(%ebp),%eax
   145d8:	8b 4d a4             	mov    -0x5c(%ebp),%ecx
   145db:	8b 55 b4             	mov    -0x4c(%ebp),%edx
   145de:	89 04 24             	mov    %eax,(%esp)
   145e1:	e8 2a 0e 00 00       	call   15410 <fmt.format__anon_2184>
   145e6:	66 89 45 a2          	mov    %ax,-0x5e(%ebp)
   145ea:	66 83 f8 00          	cmp    $0x0,%ax
   145ee:	74 3d                	je     1462d <fmt.bufPrint__anon_2174+0xcd>
   145f0:	eb 3d                	jmp    1462f <fmt.bufPrint__anon_2174+0xcf>
   145f2:	8d 4d c0             	lea    -0x40(%ebp),%ecx
   145f5:	e8 86 fa ff ff       	call   14080 <io.fixed_buffer_stream.FixedBufferStream([]u8).getWritten>
   145fa:	8b 4d a8             	mov    -0x58(%ebp),%ecx
   145fd:	89 c6                	mov    %eax,%esi
   145ff:	8b 45 ac             	mov    -0x54(%ebp),%eax
   14602:	89 75 9c             	mov    %esi,-0x64(%ebp)
   14605:	89 d6                	mov    %edx,%esi
   14607:	8b 55 9c             	mov    -0x64(%ebp),%edx
   1460a:	66 c7 45 f8 00 00    	movw   $0x0,-0x8(%ebp)
   14610:	89 75 f4             	mov    %esi,-0xc(%ebp)
   14613:	89 55 f0             	mov    %edx,-0x10(%ebp)
   14616:	8b 55 f0             	mov    -0x10(%ebp),%edx
   14619:	89 11                	mov    %edx,(%ecx)
   1461b:	8b 55 f4             	mov    -0xc(%ebp),%edx
   1461e:	89 51 04             	mov    %edx,0x4(%ecx)
   14621:	8b 55 f8             	mov    -0x8(%ebp),%edx
   14624:	89 51 08             	mov    %edx,0x8(%ecx)
   14627:	83 c4 64             	add    $0x64,%esp
   1462a:	5e                   	pop    %esi
   1462b:	5d                   	pop    %ebp
   1462c:	c3                   	ret
   1462d:	eb c3                	jmp    145f2 <fmt.bufPrint__anon_2174+0x92>
   1462f:	66 8b 45 a2          	mov    -0x5e(%ebp),%ax
   14633:	66 83 e8 01          	sub    $0x1,%ax
   14637:	74 11                	je     1464a <fmt.bufPrint__anon_2174+0xea>
   14639:	eb 00                	jmp    1463b <fmt.bufPrint__anon_2174+0xdb>
   1463b:	66 8b 45 a2          	mov    -0x5e(%ebp),%ax
   1463f:	8b 4d a4             	mov    -0x5c(%ebp),%ecx
   14642:	0f b7 d0             	movzwl %ax,%edx
   14645:	e8 f6 f9 ff ff       	call   14040 <builtin.panicUnwrapError>
   1464a:	8b 4d a4             	mov    -0x5c(%ebp),%ecx
   1464d:	e8 9e f7 ff ff       	call   13df0 <builtin.returnError>
   14652:	8b 4d a8             	mov    -0x58(%ebp),%ecx
   14655:	8b 45 ac             	mov    -0x54(%ebp),%eax
   14658:	8b 15 2c fb 03 00    	mov    0x3fb2c,%edx
   1465e:	89 11                	mov    %edx,(%ecx)
   14660:	8b 15 30 fb 03 00    	mov    0x3fb30,%edx
   14666:	89 51 04             	mov    %edx,0x4(%ecx)
   14669:	8b 15 34 fb 03 00    	mov    0x3fb34,%edx
   1466f:	89 51 08             	mov    %edx,0x8(%ecx)
   14672:	83 c4 64             	add    $0x64,%esp
   14675:	5e                   	pop    %esi
   14676:	5d                   	pop    %ebp
   14677:	c3                   	ret
   14678:	0f 1f 84 00 00 00 00 	nopl   0x0(%eax,%eax,1)
   1467f:	00 

00014680 <io.fixed_buffer_stream.FixedBufferStream([]u8).write>:
   14680:	55                   	push   %ebp
   14681:	89 e5                	mov    %esp,%ebp
   14683:	57                   	push   %edi
   14684:	56                   	push   %esi
   14685:	83 ec 7c             	sub    $0x7c,%esp
   14688:	89 55 bc             	mov    %edx,-0x44(%ebp)
   1468b:	89 4d c0             	mov    %ecx,-0x40(%ebp)
   1468e:	89 4d c4             	mov    %ecx,-0x3c(%ebp)
   14691:	8b 55 10             	mov    0x10(%ebp),%edx
   14694:	8b 4d 0c             	mov    0xc(%ebp),%ecx
   14697:	8b 45 08             	mov    0x8(%ebp),%eax
   1469a:	89 45 c8             	mov    %eax,-0x38(%ebp)
   1469d:	89 d0                	mov    %edx,%eax
   1469f:	89 45 cc             	mov    %eax,-0x34(%ebp)
   146a2:	89 ce                	mov    %ecx,%esi
   146a4:	89 75 d0             	mov    %esi,-0x30(%ebp)
   146a7:	89 55 d8             	mov    %edx,-0x28(%ebp)
   146aa:	89 4d d4             	mov    %ecx,-0x2c(%ebp)
   146ad:	83 f8 00             	cmp    $0x0,%eax
   146b0:	74 13                	je     146c5 <io.fixed_buffer_stream.FixedBufferStream([]u8).write+0x45>
   146b2:	eb 2f                	jmp    146e3 <io.fixed_buffer_stream.FixedBufferStream([]u8).write+0x63>
   146b4:	8b 4d c8             	mov    -0x38(%ebp),%ecx
   146b7:	8b 41 08             	mov    0x8(%ecx),%eax
   146ba:	8b 11                	mov    (%ecx),%edx
   146bc:	8b 49 04             	mov    0x4(%ecx),%ecx
   146bf:	39 c8                	cmp    %ecx,%eax
   146c1:	73 37                	jae    146fa <io.fixed_buffer_stream.FixedBufferStream([]u8).write+0x7a>
   146c3:	eb 5b                	jmp    14720 <io.fixed_buffer_stream.FixedBufferStream([]u8).write+0xa0>
   146c5:	8b 45 c4             	mov    -0x3c(%ebp),%eax
   146c8:	8b 4d c0             	mov    -0x40(%ebp),%ecx
   146cb:	8b 15 e8 fd 03 00    	mov    0x3fde8,%edx
   146d1:	89 11                	mov    %edx,(%ecx)
   146d3:	8b 15 ec fd 03 00    	mov    0x3fdec,%edx
   146d9:	89 51 04             	mov    %edx,0x4(%ecx)
   146dc:	83 c4 7c             	add    $0x7c,%esp
   146df:	5e                   	pop    %esi
   146e0:	5f                   	pop    %edi
   146e1:	5d                   	pop    %ebp
   146e2:	c3                   	ret
   146e3:	eb cf                	jmp    146b4 <io.fixed_buffer_stream.FixedBufferStream([]u8).write+0x34>
   146e5:	8b 4d c8             	mov    -0x38(%ebp),%ecx
   146e8:	8b 01                	mov    (%ecx),%eax
   146ea:	8b 41 04             	mov    0x4(%ecx),%eax
   146ed:	2b 41 08             	sub    0x8(%ecx),%eax
   146f0:	89 45 b8             	mov    %eax,-0x48(%ebp)
   146f3:	0f 92 c0             	setb   %al
   146f6:	72 2a                	jb     14722 <io.fixed_buffer_stream.FixedBufferStream([]u8).write+0xa2>
   146f8:	eb 4b                	jmp    14745 <io.fixed_buffer_stream.FixedBufferStream([]u8).write+0xc5>
   146fa:	8b 4d bc             	mov    -0x44(%ebp),%ecx
   146fd:	e8 ee f6 ff ff       	call   13df0 <builtin.returnError>
   14702:	8b 4d c0             	mov    -0x40(%ebp),%ecx
   14705:	8b 45 c4             	mov    -0x3c(%ebp),%eax
   14708:	8b 15 b0 fe 03 00    	mov    0x3feb0,%edx
   1470e:	89 11                	mov    %edx,(%ecx)
   14710:	8b 15 b4 fe 03 00    	mov    0x3feb4,%edx
   14716:	89 51 04             	mov    %edx,0x4(%ecx)
   14719:	83 c4 7c             	add    $0x7c,%esp
   1471c:	5e                   	pop    %esi
   1471d:	5f                   	pop    %edi
   1471e:	5d                   	pop    %ebp
   1471f:	c3                   	ret
   14720:	eb c3                	jmp    146e5 <io.fixed_buffer_stream.FixedBufferStream([]u8).write+0x65>
   14722:	8d 0d 29 02 04 00    	lea    0x40229,%ecx
   14728:	ba 10 00 00 00       	mov    $0x10,%edx
   1472d:	31 c0                	xor    %eax,%eax
   1472f:	8d 05 e8 fd 03 00    	lea    0x3fde8,%eax
   14735:	c7 04 24 00 00 00 00 	movl   $0x0,(%esp)
   1473c:	89 44 24 04          	mov    %eax,0x4(%esp)
   14740:	e8 6b d3 ff ff       	call   11ab0 <builtin.default_panic>
   14745:	8b 45 c8             	mov    -0x38(%ebp),%eax
   14748:	8b 4d b8             	mov    -0x48(%ebp),%ecx
   1474b:	8b 55 cc             	mov    -0x34(%ebp),%edx
   1474e:	89 ce                	mov    %ecx,%esi
   14750:	29 d6                	sub    %edx,%esi
   14752:	0f 42 d1             	cmovb  %ecx,%edx
   14755:	89 55 a4             	mov    %edx,-0x5c(%ebp)
   14758:	89 55 dc             	mov    %edx,-0x24(%ebp)
   1475b:	89 45 e0             	mov    %eax,-0x20(%ebp)
   1475e:	8b 4d e0             	mov    -0x20(%ebp),%ecx
   14761:	8b 40 08             	mov    0x8(%eax),%eax
   14764:	89 45 a8             	mov    %eax,-0x58(%ebp)
   14767:	8b 31                	mov    (%ecx),%esi
   14769:	8b 49 04             	mov    0x4(%ecx),%ecx
   1476c:	89 4d ac             	mov    %ecx,-0x54(%ebp)
   1476f:	01 c6                	add    %eax,%esi
   14771:	89 75 b0             	mov    %esi,-0x50(%ebp)
   14774:	01 d0                	add    %edx,%eax
   14776:	89 45 b4             	mov    %eax,-0x4c(%ebp)
   14779:	39 c8                	cmp    %ecx,%eax
   1477b:	76 0e                	jbe    1478b <io.fixed_buffer_stream.FixedBufferStream([]u8).write+0x10b>
   1477d:	eb 0e                	jmp    1478d <io.fixed_buffer_stream.FixedBufferStream([]u8).write+0x10d>
   1477f:	8b 45 a8             	mov    -0x58(%ebp),%eax
   14782:	8b 4d b4             	mov    -0x4c(%ebp),%ecx
   14785:	39 c8                	cmp    %ecx,%eax
   14787:	76 3d                	jbe    147c6 <io.fixed_buffer_stream.FixedBufferStream([]u8).write+0x146>
   14789:	eb 3d                	jmp    147c8 <io.fixed_buffer_stream.FixedBufferStream([]u8).write+0x148>
   1478b:	eb f2                	jmp    1477f <io.fixed_buffer_stream.FixedBufferStream([]u8).write+0xff>
   1478d:	8b 55 ac             	mov    -0x54(%ebp),%edx
   14790:	8b 4d b4             	mov    -0x4c(%ebp),%ecx
   14793:	e8 38 d3 ff ff       	call   11ad0 <builtin.panicOutOfBounds>
   14798:	8b 4d a4             	mov    -0x5c(%ebp),%ecx
   1479b:	8b 45 cc             	mov    -0x34(%ebp),%eax
   1479e:	8b 55 d0             	mov    -0x30(%ebp),%edx
   147a1:	8b 75 b0             	mov    -0x50(%ebp),%esi
   147a4:	89 cf                	mov    %ecx,%edi
   147a6:	89 7d 94             	mov    %edi,-0x6c(%ebp)
   147a9:	89 75 98             	mov    %esi,-0x68(%ebp)
   147ac:	89 55 e4             	mov    %edx,-0x1c(%ebp)
   147af:	89 45 e8             	mov    %eax,-0x18(%ebp)
   147b2:	8b 45 e4             	mov    -0x1c(%ebp),%eax
   147b5:	89 45 9c             	mov    %eax,-0x64(%ebp)
   147b8:	8b 45 e8             	mov    -0x18(%ebp),%eax
   147bb:	89 45 a0             	mov    %eax,-0x60(%ebp)
   147be:	31 c0                	xor    %eax,%eax
   147c0:	39 c8                	cmp    %ecx,%eax
   147c2:	76 1b                	jbe    147df <io.fixed_buffer_stream.FixedBufferStream([]u8).write+0x15f>
   147c4:	eb 1b                	jmp    147e1 <io.fixed_buffer_stream.FixedBufferStream([]u8).write+0x161>
   147c6:	eb d0                	jmp    14798 <io.fixed_buffer_stream.FixedBufferStream([]u8).write+0x118>
   147c8:	8b 55 b4             	mov    -0x4c(%ebp),%edx
   147cb:	8b 4d a8             	mov    -0x58(%ebp),%ecx
   147ce:	e8 fd d2 ff ff       	call   11ad0 <builtin.panicOutOfBounds>
   147d3:	8b 45 a4             	mov    -0x5c(%ebp),%eax
   147d6:	8b 4d a0             	mov    -0x60(%ebp),%ecx
   147d9:	39 c8                	cmp    %ecx,%eax
   147db:	76 19                	jbe    147f6 <io.fixed_buffer_stream.FixedBufferStream([]u8).write+0x176>
   147dd:	eb 19                	jmp    147f8 <io.fixed_buffer_stream.FixedBufferStream([]u8).write+0x178>
   147df:	eb f2                	jmp    147d3 <io.fixed_buffer_stream.FixedBufferStream([]u8).write+0x153>
   147e1:	8b 55 a4             	mov    -0x5c(%ebp),%edx
   147e4:	31 c9                	xor    %ecx,%ecx
   147e6:	e8 55 e6 ff ff       	call   12e40 <builtin.panicStartGreaterThanEnd>
   147eb:	8b 4d a4             	mov    -0x5c(%ebp),%ecx
   147ee:	31 c0                	xor    %eax,%eax
   147f0:	39 c8                	cmp    %ecx,%eax
   147f2:	76 21                	jbe    14815 <io.fixed_buffer_stream.FixedBufferStream([]u8).write+0x195>
   147f4:	eb 21                	jmp    14817 <io.fixed_buffer_stream.FixedBufferStream([]u8).write+0x197>
   147f6:	eb f3                	jmp    147eb <io.fixed_buffer_stream.FixedBufferStream([]u8).write+0x16b>
   147f8:	8b 55 a0             	mov    -0x60(%ebp),%edx
   147fb:	8b 4d a4             	mov    -0x5c(%ebp),%ecx
   147fe:	e8 cd d2 ff ff       	call   11ad0 <builtin.panicOutOfBounds>
   14803:	8b 45 94             	mov    -0x6c(%ebp),%eax
   14806:	8b 55 9c             	mov    -0x64(%ebp),%edx
   14809:	8b 4d a4             	mov    -0x5c(%ebp),%ecx
   1480c:	89 55 90             	mov    %edx,-0x70(%ebp)
   1480f:	39 c8                	cmp    %ecx,%eax
   14811:	74 31                	je     14844 <io.fixed_buffer_stream.FixedBufferStream([]u8).write+0x1c4>
   14813:	eb 31                	jmp    14846 <io.fixed_buffer_stream.FixedBufferStream([]u8).write+0x1c6>
   14815:	eb ec                	jmp    14803 <io.fixed_buffer_stream.FixedBufferStream([]u8).write+0x183>
   14817:	8b 55 a4             	mov    -0x5c(%ebp),%edx
   1481a:	31 c9                	xor    %ecx,%ecx
   1481c:	e8 af d2 ff ff       	call   11ad0 <builtin.panicOutOfBounds>
   14821:	8b 4d 90             	mov    -0x70(%ebp),%ecx
   14824:	8b 45 98             	mov    -0x68(%ebp),%eax
   14827:	8b 7d 94             	mov    -0x6c(%ebp),%edi
   1482a:	89 ce                	mov    %ecx,%esi
   1482c:	01 fe                	add    %edi,%esi
   1482e:	89 c2                	mov    %eax,%edx
   14830:	01 fa                	add    %edi,%edx
   14832:	39 f0                	cmp    %esi,%eax
   14834:	0f 93 c0             	setae  %al
   14837:	39 d1                	cmp    %edx,%ecx
   14839:	0f 93 c1             	setae  %cl
   1483c:	08 c8                	or     %cl,%al
   1483e:	a8 01                	test   $0x1,%al
   14840:	75 60                	jne    148a2 <io.fixed_buffer_stream.FixedBufferStream([]u8).write+0x222>
   14842:	eb 60                	jmp    148a4 <io.fixed_buffer_stream.FixedBufferStream([]u8).write+0x224>
   14844:	eb db                	jmp    14821 <io.fixed_buffer_stream.FixedBufferStream([]u8).write+0x1a1>
   14846:	b9 c4 03 04 00       	mov    $0x403c4,%ecx
   1484b:	ba 28 00 00 00       	mov    $0x28,%edx
   14850:	31 c0                	xor    %eax,%eax
   14852:	8d 05 e8 fd 03 00    	lea    0x3fde8,%eax
   14858:	c7 04 24 00 00 00 00 	movl   $0x0,(%esp)
   1485f:	89 44 24 04          	mov    %eax,0x4(%esp)
   14863:	e8 48 d2 ff ff       	call   11ab0 <builtin.default_panic>
   14868:	8b 45 94             	mov    -0x6c(%ebp),%eax
   1486b:	8b 4d 90             	mov    -0x70(%ebp),%ecx
   1486e:	8b 55 98             	mov    -0x68(%ebp),%edx
   14871:	89 14 24             	mov    %edx,(%esp)
   14874:	89 4c 24 04          	mov    %ecx,0x4(%esp)
   14878:	89 44 24 08          	mov    %eax,0x8(%esp)
   1487c:	e8 cf 87 02 00       	call   3d050 <memcpy>
   14881:	8b 4d c8             	mov    -0x38(%ebp),%ecx
   14884:	8b 45 a4             	mov    -0x5c(%ebp),%eax
   14887:	89 4d ec             	mov    %ecx,-0x14(%ebp)
   1488a:	8b 4d ec             	mov    -0x14(%ebp),%ecx
   1488d:	89 ca                	mov    %ecx,%edx
   1488f:	83 c2 08             	add    $0x8,%edx
   14892:	89 55 88             	mov    %edx,-0x78(%ebp)
   14895:	03 41 08             	add    0x8(%ecx),%eax
   14898:	89 45 8c             	mov    %eax,-0x74(%ebp)
   1489b:	0f 92 c0             	setb   %al
   1489e:	72 26                	jb     148c6 <io.fixed_buffer_stream.FixedBufferStream([]u8).write+0x246>
   148a0:	eb 47                	jmp    148e9 <io.fixed_buffer_stream.FixedBufferStream([]u8).write+0x269>
   148a2:	eb c4                	jmp    14868 <io.fixed_buffer_stream.FixedBufferStream([]u8).write+0x1e8>
   148a4:	b9 0c 04 04 00       	mov    $0x4040c,%ecx
   148a9:	ba 17 00 00 00       	mov    $0x17,%edx
   148ae:	31 c0                	xor    %eax,%eax
   148b0:	8d 05 e8 fd 03 00    	lea    0x3fde8,%eax
   148b6:	c7 04 24 00 00 00 00 	movl   $0x0,(%esp)
   148bd:	89 44 24 04          	mov    %eax,0x4(%esp)
   148c1:	e8 ea d1 ff ff       	call   11ab0 <builtin.default_panic>
   148c6:	8d 0d 29 02 04 00    	lea    0x40229,%ecx
   148cc:	ba 10 00 00 00       	mov    $0x10,%edx
   148d1:	31 c0                	xor    %eax,%eax
   148d3:	8d 05 e8 fd 03 00    	lea    0x3fde8,%eax
   148d9:	c7 04 24 00 00 00 00 	movl   $0x0,(%esp)
   148e0:	89 44 24 04          	mov    %eax,0x4(%esp)
   148e4:	e8 c7 d1 ff ff       	call   11ab0 <builtin.default_panic>
   148e9:	8b 45 a4             	mov    -0x5c(%ebp),%eax
   148ec:	8b 4d 88             	mov    -0x78(%ebp),%ecx
   148ef:	8b 55 8c             	mov    -0x74(%ebp),%edx
   148f2:	89 11                	mov    %edx,(%ecx)
   148f4:	83 f8 00             	cmp    $0x0,%eax
   148f7:	74 26                	je     1491f <io.fixed_buffer_stream.FixedBufferStream([]u8).write+0x29f>
   148f9:	eb 4a                	jmp    14945 <io.fixed_buffer_stream.FixedBufferStream([]u8).write+0x2c5>
   148fb:	8b 45 c4             	mov    -0x3c(%ebp),%eax
   148fe:	8b 4d c0             	mov    -0x40(%ebp),%ecx
   14901:	8b 55 a4             	mov    -0x5c(%ebp),%edx
   14904:	66 c7 45 f4 00 00    	movw   $0x0,-0xc(%ebp)
   1490a:	89 55 f0             	mov    %edx,-0x10(%ebp)
   1490d:	8b 55 f0             	mov    -0x10(%ebp),%edx
   14910:	89 11                	mov    %edx,(%ecx)
   14912:	8b 55 f4             	mov    -0xc(%ebp),%edx
   14915:	89 51 04             	mov    %edx,0x4(%ecx)
   14918:	83 c4 7c             	add    $0x7c,%esp
   1491b:	5e                   	pop    %esi
   1491c:	5f                   	pop    %edi
   1491d:	5d                   	pop    %ebp
   1491e:	c3                   	ret
   1491f:	8b 4d bc             	mov    -0x44(%ebp),%ecx
   14922:	e8 c9 f4 ff ff       	call   13df0 <builtin.returnError>
   14927:	8b 4d c0             	mov    -0x40(%ebp),%ecx
   1492a:	8b 45 c4             	mov    -0x3c(%ebp),%eax
   1492d:	8b 15 b0 fe 03 00    	mov    0x3feb0,%edx
   14933:	89 11                	mov    %edx,(%ecx)
   14935:	8b 15 b4 fe 03 00    	mov    0x3feb4,%edx
   1493b:	89 51 04             	mov    %edx,0x4(%ecx)
   1493e:	83 c4 7c             	add    $0x7c,%esp
   14941:	5e                   	pop    %esi
   14942:	5f                   	pop    %edi
   14943:	5d                   	pop    %ebp
   14944:	c3                   	ret
   14945:	eb b4                	jmp    148fb <io.fixed_buffer_stream.FixedBufferStream([]u8).write+0x27b>
   14947:	66 0f 1f 84 00 00 00 	nopw   0x0(%eax,%eax,1)
   1494e:	00 00 

00014950 <io.Writer.write>:
   14950:	55                   	push   %ebp
   14951:	89 e5                	mov    %esp,%ebp
   14953:	53                   	push   %ebx
   14954:	57                   	push   %edi
   14955:	56                   	push   %esi
   14956:	83 ec 30             	sub    $0x30,%esp
   14959:	89 55 d0             	mov    %edx,-0x30(%ebp)
   1495c:	89 4d d4             	mov    %ecx,-0x2c(%ebp)
   1495f:	89 4d d8             	mov    %ecx,-0x28(%ebp)
   14962:	8b 5d 10             	mov    0x10(%ebp),%ebx
   14965:	8b 45 0c             	mov    0xc(%ebp),%eax
   14968:	8b 4d 08             	mov    0x8(%ebp),%ecx
   1496b:	89 de                	mov    %ebx,%esi
   1496d:	89 c7                	mov    %eax,%edi
   1496f:	89 5d e0             	mov    %ebx,-0x20(%ebp)
   14972:	89 45 dc             	mov    %eax,-0x24(%ebp)
   14975:	8b 01                	mov    (%ecx),%eax
   14977:	89 45 e4             	mov    %eax,-0x1c(%ebp)
   1497a:	8b 41 04             	mov    0x4(%ecx),%eax
   1497d:	89 45 e8             	mov    %eax,-0x18(%ebp)
   14980:	8b 45 e8             	mov    -0x18(%ebp),%eax
   14983:	8b 19                	mov    (%ecx),%ebx
   14985:	8d 4d ec             	lea    -0x14(%ebp),%ecx
   14988:	89 1c 24             	mov    %ebx,(%esp)
   1498b:	89 7c 24 04          	mov    %edi,0x4(%esp)
   1498f:	89 74 24 08          	mov    %esi,0x8(%esp)
   14993:	ff d0                	call   *%eax
   14995:	66 83 7d f0 00       	cmpw   $0x0,-0x10(%ebp)
   1499a:	75 19                	jne    149b5 <io.Writer.write+0x65>
   1499c:	8b 45 d8             	mov    -0x28(%ebp),%eax
   1499f:	8b 4d d4             	mov    -0x2c(%ebp),%ecx
   149a2:	8b 55 ec             	mov    -0x14(%ebp),%edx
   149a5:	89 11                	mov    %edx,(%ecx)
   149a7:	8b 55 f0             	mov    -0x10(%ebp),%edx
   149aa:	89 51 04             	mov    %edx,0x4(%ecx)
   149ad:	83 c4 30             	add    $0x30,%esp
   149b0:	5e                   	pop    %esi
   149b1:	5f                   	pop    %edi
   149b2:	5b                   	pop    %ebx
   149b3:	5d                   	pop    %ebp
   149b4:	c3                   	ret
   149b5:	8b 4d d0             	mov    -0x30(%ebp),%ecx
   149b8:	e8 33 f4 ff ff       	call   13df0 <builtin.returnError>
   149bd:	8b 4d d4             	mov    -0x2c(%ebp),%ecx
   149c0:	8b 45 d8             	mov    -0x28(%ebp),%eax
   149c3:	8b 55 ec             	mov    -0x14(%ebp),%edx
   149c6:	89 11                	mov    %edx,(%ecx)
   149c8:	8b 55 f0             	mov    -0x10(%ebp),%edx
   149cb:	89 51 04             	mov    %edx,0x4(%ecx)
   149ce:	83 c4 30             	add    $0x30,%esp
   149d1:	5e                   	pop    %esi
   149d2:	5f                   	pop    %edi
   149d3:	5b                   	pop    %ebx
   149d4:	5d                   	pop    %ebp
   149d5:	c3                   	ret
   149d6:	66 2e 0f 1f 84 00 00 	nopw   %cs:0x0(%eax,%eax,1)
   149dd:	00 00 00 

000149e0 <fmt.formatValue__anon_2175>:
   149e0:	55                   	push   %ebp
   149e1:	89 e5                	mov    %esp,%ebp
   149e3:	56                   	push   %esi
   149e4:	83 ec 14             	sub    $0x14,%esp
   149e7:	89 4d f0             	mov    %ecx,-0x10(%ebp)
   149ea:	8b 45 0c             	mov    0xc(%ebp),%eax
   149ed:	8b 75 08             	mov    0x8(%ebp),%esi
   149f0:	89 55 f8             	mov    %edx,-0x8(%ebp)
   149f3:	89 34 24             	mov    %esi,(%esp)
   149f6:	89 44 24 04          	mov    %eax,0x4(%esp)
   149fa:	e8 11 21 00 00       	call   16b10 <fmt.formatIntValue__anon_2185>
   149ff:	66 89 45 f6          	mov    %ax,-0xa(%ebp)
   14a03:	66 83 f8 00          	cmp    $0x0,%ax
   14a07:	75 0a                	jne    14a13 <fmt.formatValue__anon_2175+0x33>
   14a09:	66 8b 45 f6          	mov    -0xa(%ebp),%ax
   14a0d:	83 c4 14             	add    $0x14,%esp
   14a10:	5e                   	pop    %esi
   14a11:	5d                   	pop    %ebp
   14a12:	c3                   	ret
   14a13:	8b 4d f0             	mov    -0x10(%ebp),%ecx
   14a16:	e8 d5 f3 ff ff       	call   13df0 <builtin.returnError>
   14a1b:	66 8b 45 f6          	mov    -0xa(%ebp),%ax
   14a1f:	83 c4 14             	add    $0x14,%esp
   14a22:	5e                   	pop    %esi
   14a23:	5d                   	pop    %ebp
   14a24:	c3                   	ret
   14a25:	66 2e 0f 1f 84 00 00 	nopw   %cs:0x0(%eax,%eax,1)
   14a2c:	00 00 00 
   14a2f:	90                   	nop

00014a30 <debug.panicExtra__anon_2176>:
   14a30:	55                   	push   %ebp
   14a31:	89 e5                	mov    %esp,%ebp
   14a33:	57                   	push   %edi
   14a34:	56                   	push   %esi
   14a35:	b8 ec 10 00 00       	mov    $0x10ec,%eax
   14a3a:	e8 e1 85 02 00       	call   3d020 <__zig_probe_stack>
   14a3f:	29 c4                	sub    %eax,%esp
   14a41:	89 95 24 ef ff ff    	mov    %edx,-0x10dc(%ebp)
   14a47:	89 8d 28 ef ff ff    	mov    %ecx,-0x10d8(%ebp)
   14a4d:	8b 45 08             	mov    0x8(%ebp),%eax
   14a50:	89 85 2c ef ff ff    	mov    %eax,-0x10d4(%ebp)
   14a56:	89 8d 38 ef ff ff    	mov    %ecx,-0x10c8(%ebp)
   14a5c:	8d 85 3c ef ff ff    	lea    -0x10c4(%ebp),%eax
   14a62:	89 85 c0 ef ff ff    	mov    %eax,-0x1040(%ebp)
   14a68:	c7 85 c4 ef ff ff 20 	movl   $0x20,-0x103c(%ebp)
   14a6f:	00 00 00 
   14a72:	c7 85 bc ef ff ff 00 	movl   $0x0,-0x1044(%ebp)
   14a79:	00 00 00 
   14a7c:	8b 85 bc ef ff ff    	mov    -0x1044(%ebp),%eax
   14a82:	89 85 30 ef ff ff    	mov    %eax,-0x10d0(%ebp)
   14a88:	8d 05 2f 03 04 00    	lea    0x4032f,%eax
   14a8e:	89 85 c8 ef ff ff    	mov    %eax,-0x1038(%ebp)
   14a94:	8d 85 cd ef ff ff    	lea    -0x1033(%ebp),%eax
   14a9a:	89 04 24             	mov    %eax,(%esp)
   14a9d:	c7 44 24 04 aa 00 00 	movl   $0xaa,0x4(%esp)
   14aa4:	00 
   14aa5:	c7 44 24 08 0f 10 00 	movl   $0x100f,0x8(%esp)
   14aac:	00 
   14aad:	e8 8e 86 02 00       	call   3d140 <memset>
   14ab2:	8d 85 cd ef ff ff    	lea    -0x1033(%ebp),%eax
   14ab8:	89 85 34 ef ff ff    	mov    %eax,-0x10cc(%ebp)
   14abe:	b8 00 10 00 00       	mov    $0x1000,%eax
   14ac3:	3d 0f 10 00 00       	cmp    $0x100f,%eax
   14ac8:	76 35                	jbe    14aff <debug.panicExtra__anon_2176+0xcf>
   14aca:	eb 35                	jmp    14b01 <debug.panicExtra__anon_2176+0xd1>
   14acc:	8b 85 2c ef ff ff    	mov    -0x10d4(%ebp),%eax
   14ad2:	8b bd 34 ef ff ff    	mov    -0x10cc(%ebp),%edi
   14ad8:	be 00 10 00 00       	mov    $0x1000,%esi
   14add:	8d 4d dc             	lea    -0x24(%ebp),%ecx
   14ae0:	8d 95 bc ef ff ff    	lea    -0x1044(%ebp),%edx
   14ae6:	89 3c 24             	mov    %edi,(%esp)
   14ae9:	89 74 24 04          	mov    %esi,0x4(%esp)
   14aed:	89 44 24 08          	mov    %eax,0x8(%esp)
   14af1:	e8 7a 20 00 00       	call   16b70 <fmt.bufPrint__anon_2192>
   14af6:	66 83 7d e4 00       	cmpw   $0x0,-0x1c(%ebp)
   14afb:	74 49                	je     14b46 <debug.panicExtra__anon_2176+0x116>
   14afd:	eb 5b                	jmp    14b5a <debug.panicExtra__anon_2176+0x12a>
   14aff:	eb cb                	jmp    14acc <debug.panicExtra__anon_2176+0x9c>
   14b01:	b9 00 10 00 00       	mov    $0x1000,%ecx
   14b06:	ba 0f 10 00 00       	mov    $0x100f,%edx
   14b0b:	e8 c0 cf ff ff       	call   11ad0 <builtin.panicOutOfBounds>
   14b10:	8b 85 24 ef ff ff    	mov    -0x10dc(%ebp),%eax
   14b16:	8b b5 28 ef ff ff    	mov    -0x10d8(%ebp),%esi
   14b1c:	8b 8d 20 ef ff ff    	mov    -0x10e0(%ebp),%ecx
   14b22:	8b 95 1c ef ff ff    	mov    -0x10e4(%ebp),%edx
   14b28:	89 4d e8             	mov    %ecx,-0x18(%ebp)
   14b2b:	89 55 ec             	mov    %edx,-0x14(%ebp)
   14b2e:	89 55 f4             	mov    %edx,-0xc(%ebp)
   14b31:	89 4d f0             	mov    %ecx,-0x10(%ebp)
   14b34:	8b 4d f0             	mov    -0x10(%ebp),%ecx
   14b37:	8b 55 f4             	mov    -0xc(%ebp),%edx
   14b3a:	89 34 24             	mov    %esi,(%esp)
   14b3d:	89 44 24 04          	mov    %eax,0x4(%esp)
   14b41:	e8 6a cf ff ff       	call   11ab0 <builtin.default_panic>
   14b46:	8b 4d dc             	mov    -0x24(%ebp),%ecx
   14b49:	8b 45 e0             	mov    -0x20(%ebp),%eax
   14b4c:	89 8d 20 ef ff ff    	mov    %ecx,-0x10e0(%ebp)
   14b52:	89 85 1c ef ff ff    	mov    %eax,-0x10e4(%ebp)
   14b58:	eb b6                	jmp    14b10 <debug.panicExtra__anon_2176+0xe0>
   14b5a:	66 8b 45 e4          	mov    -0x1c(%ebp),%ax
   14b5e:	66 83 e8 01          	sub    $0x1,%ax
   14b62:	74 24                	je     14b88 <debug.panicExtra__anon_2176+0x158>
   14b64:	eb 00                	jmp    14b66 <debug.panicExtra__anon_2176+0x136>
   14b66:	b9 b9 04 04 00       	mov    $0x404b9,%ecx
   14b6b:	ba 17 00 00 00       	mov    $0x17,%edx
   14b70:	31 c0                	xor    %eax,%eax
   14b72:	8d 05 e8 fd 03 00    	lea    0x3fde8,%eax
   14b78:	c7 04 24 00 00 00 00 	movl   $0x0,(%esp)
   14b7f:	89 44 24 04          	mov    %eax,0x4(%esp)
   14b83:	e8 28 cf ff ff       	call   11ab0 <builtin.default_panic>
   14b88:	8d 85 cd ef ff ff    	lea    -0x1033(%ebp),%eax
   14b8e:	05 00 10 00 00       	add    $0x1000,%eax
   14b93:	89 85 18 ef ff ff    	mov    %eax,-0x10e8(%ebp)
   14b99:	eb 2c                	jmp    14bc7 <debug.panicExtra__anon_2176+0x197>
   14b9b:	8b 85 18 ef ff ff    	mov    -0x10e8(%ebp),%eax
   14ba1:	89 c2                	mov    %eax,%edx
   14ba3:	83 c2 0f             	add    $0xf,%edx
   14ba6:	8d 0d 2f 03 04 00    	lea    0x4032f,%ecx
   14bac:	83 c1 0f             	add    $0xf,%ecx
   14baf:	39 c8                	cmp    %ecx,%eax
   14bb1:	0f 93 c0             	setae  %al
   14bb4:	8d 0d 2f 03 04 00    	lea    0x4032f,%ecx
   14bba:	39 d1                	cmp    %edx,%ecx
   14bbc:	0f 93 c1             	setae  %cl
   14bbf:	08 c8                	or     %cl,%al
   14bc1:	a8 01                	test   $0x1,%al
   14bc3:	75 59                	jne    14c1e <debug.panicExtra__anon_2176+0x1ee>
   14bc5:	eb 59                	jmp    14c20 <debug.panicExtra__anon_2176+0x1f0>
   14bc7:	eb d2                	jmp    14b9b <debug.panicExtra__anon_2176+0x16b>
   14bc9:	ba 0f 10 00 00       	mov    $0x100f,%edx
   14bce:	89 d1                	mov    %edx,%ecx
   14bd0:	e8 fb ce ff ff       	call   11ad0 <builtin.panicOutOfBounds>
   14bd5:	8b 85 30 ef ff ff    	mov    -0x10d0(%ebp),%eax
   14bdb:	8b 8d 18 ef ff ff    	mov    -0x10e8(%ebp),%ecx
   14be1:	c7 41 0b 74 65 64 29 	movl   $0x29646574,0xb(%ecx)
   14be8:	c7 41 08 6e 63 61 74 	movl   $0x7461636e,0x8(%ecx)
   14bef:	c7 41 04 20 74 72 75 	movl   $0x75727420,0x4(%ecx)
   14bf6:	c7 01 28 6d 73 67    	movl   $0x67736d28,(%ecx)
   14bfc:	89 85 bc ef ff ff    	mov    %eax,-0x1044(%ebp)
   14c02:	b8 0f 10 00 00       	mov    $0x100f,%eax
   14c07:	8d 8d cd ef ff ff    	lea    -0x1033(%ebp),%ecx
   14c0d:	89 8d 20 ef ff ff    	mov    %ecx,-0x10e0(%ebp)
   14c13:	89 85 1c ef ff ff    	mov    %eax,-0x10e4(%ebp)
   14c19:	e9 f2 fe ff ff       	jmp    14b10 <debug.panicExtra__anon_2176+0xe0>
   14c1e:	eb b5                	jmp    14bd5 <debug.panicExtra__anon_2176+0x1a5>
   14c20:	b9 0c 04 04 00       	mov    $0x4040c,%ecx
   14c25:	ba 17 00 00 00       	mov    $0x17,%edx
   14c2a:	31 c0                	xor    %eax,%eax
   14c2c:	8d 05 e8 fd 03 00    	lea    0x3fde8,%eax
   14c32:	c7 04 24 00 00 00 00 	movl   $0x0,(%esp)
   14c39:	89 44 24 04          	mov    %eax,0x4(%esp)
   14c3d:	e8 6e ce ff ff       	call   11ab0 <builtin.default_panic>
   14c42:	66 2e 0f 1f 84 00 00 	nopw   %cs:0x0(%eax,%eax,1)
   14c49:	00 00 00 
   14c4c:	0f 1f 40 00          	nopl   0x0(%eax)

00014c50 <fmt.format__anon_2177>:
   14c50:	55                   	push   %ebp
   14c51:	89 e5                	mov    %esp,%ebp
   14c53:	56                   	push   %esi
   14c54:	83 ec 44             	sub    $0x44,%esp
   14c57:	89 55 cc             	mov    %edx,-0x34(%ebp)
   14c5a:	89 4d d0             	mov    %ecx,-0x30(%ebp)
   14c5d:	8b 45 08             	mov    0x8(%ebp),%eax
   14c60:	89 45 d4             	mov    %eax,-0x2c(%ebp)
   14c63:	f2 0f 10 02          	movsd  (%edx),%xmm0
   14c67:	f2 0f 11 45 dc       	movsd  %xmm0,-0x24(%ebp)
   14c6c:	be 68 00 04 00       	mov    $0x40068,%esi
   14c71:	b8 14 00 00 00       	mov    $0x14,%eax
   14c76:	8d 55 dc             	lea    -0x24(%ebp),%edx
   14c79:	89 34 24             	mov    %esi,(%esp)
   14c7c:	89 44 24 04          	mov    %eax,0x4(%esp)
   14c80:	e8 1b f0 ff ff       	call   13ca0 <io.Writer.writeAll>
   14c85:	66 89 45 da          	mov    %ax,-0x26(%ebp)
   14c89:	66 83 f8 00          	cmp    $0x0,%ax
   14c8d:	75 3d                	jne    14ccc <fmt.format__anon_2177+0x7c>
   14c8f:	eb 4d                	jmp    14cde <fmt.format__anon_2177+0x8e>
   14c91:	8b 4d d0             	mov    -0x30(%ebp),%ecx
   14c94:	8b 45 cc             	mov    -0x34(%ebp),%eax
   14c97:	f2 0f 10 00          	movsd  (%eax),%xmm0
   14c9b:	f2 0f 11 45 e8       	movsd  %xmm0,-0x18(%ebp)
   14ca0:	be 7f 00 04 00       	mov    $0x4007f,%esi
   14ca5:	b8 01 00 00 00       	mov    $0x1,%eax
   14caa:	8d 55 e8             	lea    -0x18(%ebp),%edx
   14cad:	89 34 24             	mov    %esi,(%esp)
   14cb0:	89 44 24 04          	mov    %eax,0x4(%esp)
