
webserver.elf:     file format elf32-i386


Disassembly of section .text:

00011000 <_start>:
   11000:	e8 0b 00 00 00       	call   11010 <main>
   11005:	f4                   	hlt
   11006:	0f 0b                	ud2
   11008:	0f 1f 84 00 00 00 00 	nopl   0x0(%eax,%eax,1)
   1100f:	00 

00011010 <main>:
   11010:	55                   	push   %ebp
   11011:	89 e5                	mov    %esp,%ebp
   11013:	83 ec 08             	sub    $0x8,%esp
   11016:	e8 a5 00 00 00       	call   110c0 <io.video.clear_screen>
   1101b:	c7 45 fc 00 00 00 00 	movl   $0x0,-0x4(%ebp)
   11022:	eb 05                	jmp    11029 <main+0x19>
   11024:	83 c4 08             	add    $0x8,%esp
   11027:	5d                   	pop    %ebp
   11028:	c3                   	ret
   11029:	8b 45 fc             	mov    -0x4(%ebp),%eax
   1102c:	89 45 f8             	mov    %eax,-0x8(%ebp)
   1102f:	83 f8 06             	cmp    $0x6,%eax
   11032:	72 0d                	jb     11041 <main+0x31>
   11034:	eb 76                	jmp    110ac <main+0x9c>
   11036:	8b 45 f8             	mov    -0x8(%ebp),%eax
   11039:	83 c0 01             	add    $0x1,%eax
   1103c:	89 45 fc             	mov    %eax,-0x4(%ebp)
   1103f:	eb e8                	jmp    11029 <main+0x19>
   11041:	b9 63 bd 03 00       	mov    $0x3bd63,%ecx
   11046:	ba 11 00 00 00       	mov    $0x11,%edx
   1104b:	e8 a0 00 00 00       	call   110f0 <io.video.println>
   11050:	b9 f6 bd 03 00       	mov    $0x3bdf6,%ecx
   11055:	ba 08 00 00 00       	mov    $0x8,%edx
   1105a:	e8 91 00 00 00       	call   110f0 <io.video.println>
   1105f:	b9 c8 ba 03 00       	mov    $0x3bac8,%ecx
   11064:	ba 06 00 00 00       	mov    $0x6,%edx
   11069:	e8 82 00 00 00       	call   110f0 <io.video.println>
   1106e:	b9 fe bc 03 00       	mov    $0x3bcfe,%ecx
   11073:	ba 0d 00 00 00       	mov    $0xd,%edx
   11078:	e8 73 00 00 00       	call   110f0 <io.video.println>
   1107d:	b9 6e bc 03 00       	mov    $0x3bc6e,%ecx
   11082:	ba 09 00 00 00       	mov    $0x9,%edx
   11087:	e8 64 00 00 00       	call   110f0 <io.video.println>
   1108c:	b9 c1 bb 03 00       	mov    $0x3bbc1,%ecx
   11091:	ba 0b 00 00 00       	mov    $0xb,%edx
   11096:	e8 55 00 00 00       	call   110f0 <io.video.println>
   1109b:	b9 17 bc 03 00       	mov    $0x3bc17,%ecx
   110a0:	ba 01 00 00 00       	mov    $0x1,%edx
   110a5:	e8 46 00 00 00       	call   110f0 <io.video.println>
   110aa:	eb 8a                	jmp    11036 <main+0x26>
   110ac:	e9 73 ff ff ff       	jmp    11024 <main+0x14>
   110b1:	66 2e 0f 1f 84 00 00 	nopw   %cs:0x0(%eax,%eax,1)
   110b8:	00 00 00 
   110bb:	0f 1f 44 00 00       	nopl   0x0(%eax,%eax,1)

000110c0 <io.video.clear_screen>:
   110c0:	55                   	push   %ebp
   110c1:	89 e5                	mov    %esp,%ebp
   110c3:	83 ec 0c             	sub    $0xc,%esp
   110c6:	89 e0                	mov    %esp,%eax
   110c8:	c7 40 08 a0 0f 00 00 	movl   $0xfa0,0x8(%eax)
   110cf:	c7 40 04 00 00 00 00 	movl   $0x0,0x4(%eax)
   110d6:	c7 00 00 80 0b 00    	movl   $0xb8000,(%eax)
   110dc:	e8 1f 8f 02 00       	call   3a000 <memset>
   110e1:	83 c4 0c             	add    $0xc,%esp
   110e4:	5d                   	pop    %ebp
   110e5:	c3                   	ret
   110e6:	66 2e 0f 1f 84 00 00 	nopw   %cs:0x0(%eax,%eax,1)
   110ed:	00 00 00 

000110f0 <io.video.println>:
   110f0:	55                   	push   %ebp
   110f1:	89 e5                	mov    %esp,%ebp
   110f3:	53                   	push   %ebx
   110f4:	57                   	push   %edi
   110f5:	56                   	push   %esi
   110f6:	83 e4 f0             	and    $0xfffffff0,%esp
   110f9:	81 ec b0 01 00 00    	sub    $0x1b0,%esp
   110ff:	89 d0                	mov    %edx,%eax
   11101:	89 44 24 78          	mov    %eax,0x78(%esp)
   11105:	89 c8                	mov    %ecx,%eax
   11107:	89 44 24 7c          	mov    %eax,0x7c(%esp)
   1110b:	89 94 24 88 00 00 00 	mov    %edx,0x88(%esp)
   11112:	89 8c 24 84 00 00 00 	mov    %ecx,0x84(%esp)
   11119:	8d 84 24 8c 00 00 00 	lea    0x8c(%esp),%eax
   11120:	89 84 24 10 01 00 00 	mov    %eax,0x110(%esp)
   11127:	c7 84 24 14 01 00 00 	movl   $0x20,0x114(%esp)
   1112e:	20 00 00 00 
   11132:	c7 84 24 0c 01 00 00 	movl   $0x0,0x10c(%esp)
   11139:	00 00 00 00 
   1113d:	8b 84 24 0c 01 00 00 	mov    0x10c(%esp),%eax
   11144:	89 84 24 80 00 00 00 	mov    %eax,0x80(%esp)
   1114b:	66 83 3d 8c da 03 00 	cmpw   $0x18,0x3da8c
   11152:	18 
   11153:	74 12                	je     11167 <io.video.println+0x77>
   11155:	eb 1d                	jmp    11174 <io.video.println+0x84>
   11157:	c7 84 24 34 01 00 00 	movl   $0x0,0x134(%esp)
   1115e:	00 00 00 00 
   11162:	e9 a8 03 00 00       	jmp    1150f <io.video.println+0x41f>
   11167:	c7 84 24 18 01 00 00 	movl   $0x0,0x118(%esp)
   1116e:	00 00 00 00 
   11172:	eb 04                	jmp    11178 <io.video.println+0x88>
   11174:	eb e1                	jmp    11157 <io.video.println+0x67>
   11176:	eb df                	jmp    11157 <io.video.println+0x67>
   11178:	8b 84 24 18 01 00 00 	mov    0x118(%esp),%eax
   1117f:	89 44 24 74          	mov    %eax,0x74(%esp)
   11183:	83 f8 17             	cmp    $0x17,%eax
   11186:	72 12                	jb     1119a <io.video.println+0xaa>
   11188:	eb 24                	jmp    111ae <io.video.println+0xbe>
   1118a:	8b 44 24 74          	mov    0x74(%esp),%eax
   1118e:	83 c0 01             	add    $0x1,%eax
   11191:	89 84 24 18 01 00 00 	mov    %eax,0x118(%esp)
   11198:	eb de                	jmp    11178 <io.video.println+0x88>
   1119a:	8b 44 24 74          	mov    0x74(%esp),%eax
   1119e:	89 84 24 1c 01 00 00 	mov    %eax,0x11c(%esp)
   111a5:	3d ff ff 00 00       	cmp    $0xffff,%eax
   111aa:	76 34                	jbe    111e0 <io.video.println+0xf0>
   111ac:	eb 34                	jmp    111e2 <io.video.println+0xf2>
   111ae:	eb c6                	jmp    11176 <io.video.println+0x86>
   111b0:	8b 44 24 74          	mov    0x74(%esp),%eax
   111b4:	31 d2                	xor    %edx,%edx
   111b6:	0f b7 c8             	movzwl %ax,%ecx
   111b9:	e8 82 06 00 00       	call   11840 <io.video.get_video_mode_3_byte_offset>
   111be:	66 89 c1             	mov    %ax,%cx
   111c1:	8b 44 24 74          	mov    0x74(%esp),%eax
   111c5:	66 89 4c 24 6e       	mov    %cx,0x6e(%esp)
   111ca:	66 89 8c 24 20 01 00 	mov    %cx,0x120(%esp)
   111d1:	00 
   111d2:	83 c0 01             	add    $0x1,%eax
   111d5:	89 44 24 70          	mov    %eax,0x70(%esp)
   111d9:	0f 92 c0             	setb   %al
   111dc:	72 26                	jb     11204 <io.video.println+0x114>
   111de:	eb 47                	jmp    11227 <io.video.println+0x137>
   111e0:	eb ce                	jmp    111b0 <io.video.println+0xc0>
   111e2:	b9 aa bc 03 00       	mov    $0x3bcaa,%ecx
   111e7:	ba 1b 00 00 00       	mov    $0x1b,%edx
   111ec:	31 c0                	xor    %eax,%eax
   111ee:	8d 05 48 b8 03 00    	lea    0x3b848,%eax
   111f4:	c7 04 24 00 00 00 00 	movl   $0x0,(%esp)
   111fb:	89 44 24 04          	mov    %eax,0x4(%esp)
   111ff:	e8 1c 06 00 00       	call   11820 <builtin.default_panic>
   11204:	8d 0d 3b bc 03 00    	lea    0x3bc3b,%ecx
   1120a:	ba 10 00 00 00       	mov    $0x10,%edx
   1120f:	31 c0                	xor    %eax,%eax
   11211:	8d 05 48 b8 03 00    	lea    0x3b848,%eax
   11217:	c7 04 24 00 00 00 00 	movl   $0x0,(%esp)
   1121e:	89 44 24 04          	mov    %eax,0x4(%esp)
   11222:	e8 f9 05 00 00       	call   11820 <builtin.default_panic>
   11227:	8b 44 24 70          	mov    0x70(%esp),%eax
   1122b:	3d ff ff 00 00       	cmp    $0xffff,%eax
   11230:	76 37                	jbe    11269 <io.video.println+0x179>
   11232:	eb 37                	jmp    1126b <io.video.println+0x17b>
   11234:	8b 44 24 70          	mov    0x70(%esp),%eax
   11238:	31 d2                	xor    %edx,%edx
   1123a:	0f b7 c8             	movzwl %ax,%ecx
   1123d:	e8 fe 05 00 00       	call   11840 <io.video.get_video_mode_3_byte_offset>
   11242:	66 89 c1             	mov    %ax,%cx
   11245:	66 8b 44 24 6e       	mov    0x6e(%esp),%ax
   1124a:	66 89 4c 24 6a       	mov    %cx,0x6a(%esp)
   1124f:	66 89 8c 24 22 01 00 	mov    %cx,0x122(%esp)
   11256:	00 
   11257:	66 83 c0 50          	add    $0x50,%ax
   1125b:	66 89 44 24 6c       	mov    %ax,0x6c(%esp)
   11260:	0f 92 c0             	setb   %al
   11263:	a8 01                	test   $0x1,%al
   11265:	75 26                	jne    1128d <io.video.println+0x19d>
   11267:	eb 47                	jmp    112b0 <io.video.println+0x1c0>
   11269:	eb c9                	jmp    11234 <io.video.println+0x144>
   1126b:	b9 aa bc 03 00       	mov    $0x3bcaa,%ecx
   11270:	ba 1b 00 00 00       	mov    $0x1b,%edx
   11275:	31 c0                	xor    %eax,%eax
   11277:	8d 05 48 b8 03 00    	lea    0x3b848,%eax
   1127d:	c7 04 24 00 00 00 00 	movl   $0x0,(%esp)
   11284:	89 44 24 04          	mov    %eax,0x4(%esp)
   11288:	e8 93 05 00 00       	call   11820 <builtin.default_panic>
   1128d:	8d 0d 3b bc 03 00    	lea    0x3bc3b,%ecx
   11293:	ba 10 00 00 00       	mov    $0x10,%edx
   11298:	31 c0                	xor    %eax,%eax
   1129a:	8d 05 48 b8 03 00    	lea    0x3b848,%eax
   112a0:	c7 04 24 00 00 00 00 	movl   $0x0,(%esp)
   112a7:	89 44 24 04          	mov    %eax,0x4(%esp)
   112ab:	e8 70 05 00 00       	call   11820 <builtin.default_panic>
   112b0:	66 8b 4c 24 6c       	mov    0x6c(%esp),%cx
   112b5:	66 8b 44 24 6e       	mov    0x6e(%esp),%ax
   112ba:	0f b7 c0             	movzwl %ax,%eax
   112bd:	89 44 24 5c          	mov    %eax,0x5c(%esp)
   112c1:	ba 00 80 0b 00       	mov    $0xb8000,%edx
   112c6:	01 c2                	add    %eax,%edx
   112c8:	89 54 24 60          	mov    %edx,0x60(%esp)
   112cc:	0f b7 c9             	movzwl %cx,%ecx
   112cf:	89 4c 24 64          	mov    %ecx,0x64(%esp)
   112d3:	39 c8                	cmp    %ecx,%eax
   112d5:	76 1b                	jbe    112f2 <io.video.println+0x202>
   112d7:	eb 1b                	jmp    112f4 <io.video.println+0x204>
   112d9:	8b 44 24 64          	mov    0x64(%esp),%eax
   112dd:	8b 54 24 5c          	mov    0x5c(%esp),%edx
   112e1:	89 c1                	mov    %eax,%ecx
   112e3:	29 d1                	sub    %edx,%ecx
   112e5:	89 4c 24 58          	mov    %ecx,0x58(%esp)
   112e9:	3d a0 0f 00 00       	cmp    $0xfa0,%eax
   112ee:	76 1f                	jbe    1130f <io.video.println+0x21f>
   112f0:	eb 1f                	jmp    11311 <io.video.println+0x221>
   112f2:	eb e5                	jmp    112d9 <io.video.println+0x1e9>
   112f4:	8b 54 24 64          	mov    0x64(%esp),%edx
   112f8:	8b 4c 24 5c          	mov    0x5c(%esp),%ecx
   112fc:	e8 9f 05 00 00       	call   118a0 <builtin.panicStartGreaterThanEnd>
   11301:	8b 44 24 5c          	mov    0x5c(%esp),%eax
   11305:	8b 4c 24 64          	mov    0x64(%esp),%ecx
   11309:	39 c8                	cmp    %ecx,%eax
   1130b:	76 4b                	jbe    11358 <io.video.println+0x268>
   1130d:	eb 4b                	jmp    1135a <io.video.println+0x26a>
   1130f:	eb f0                	jmp    11301 <io.video.println+0x211>
   11311:	8b 4c 24 64          	mov    0x64(%esp),%ecx
   11315:	ba a0 0f 00 00       	mov    $0xfa0,%edx
   1131a:	e8 b1 05 00 00       	call   118d0 <builtin.panicOutOfBounds>
   1131f:	66 8b 44 24 6a       	mov    0x6a(%esp),%ax
   11324:	8b 4c 24 60          	mov    0x60(%esp),%ecx
   11328:	8b 54 24 58          	mov    0x58(%esp),%edx
   1132c:	89 d6                	mov    %edx,%esi
   1132e:	89 74 24 4c          	mov    %esi,0x4c(%esp)
   11332:	89 ce                	mov    %ecx,%esi
   11334:	89 74 24 50          	mov    %esi,0x50(%esp)
   11338:	89 94 24 28 01 00 00 	mov    %edx,0x128(%esp)
   1133f:	89 8c 24 24 01 00 00 	mov    %ecx,0x124(%esp)
   11346:	66 83 c0 01          	add    $0x1,%ax
   1134a:	66 89 44 24 56       	mov    %ax,0x56(%esp)
   1134f:	0f 92 c0             	setb   %al
   11352:	a8 01                	test   $0x1,%al
   11354:	75 11                	jne    11367 <io.video.println+0x277>
   11356:	eb 32                	jmp    1138a <io.video.println+0x29a>
   11358:	eb c5                	jmp    1131f <io.video.println+0x22f>
   1135a:	8b 54 24 64          	mov    0x64(%esp),%edx
   1135e:	8b 4c 24 5c          	mov    0x5c(%esp),%ecx
   11362:	e8 69 05 00 00       	call   118d0 <builtin.panicOutOfBounds>
   11367:	8d 0d 3b bc 03 00    	lea    0x3bc3b,%ecx
   1136d:	ba 10 00 00 00       	mov    $0x10,%edx
   11372:	31 c0                	xor    %eax,%eax
   11374:	8d 05 48 b8 03 00    	lea    0x3b848,%eax
   1137a:	c7 04 24 00 00 00 00 	movl   $0x0,(%esp)
   11381:	89 44 24 04          	mov    %eax,0x4(%esp)
   11385:	e8 96 04 00 00       	call   11820 <builtin.default_panic>
   1138a:	66 8b 44 24 6a       	mov    0x6a(%esp),%ax
   1138f:	66 83 c0 50          	add    $0x50,%ax
   11393:	66 89 44 24 4a       	mov    %ax,0x4a(%esp)
   11398:	0f 92 c0             	setb   %al
   1139b:	a8 01                	test   $0x1,%al
   1139d:	75 02                	jne    113a1 <io.video.println+0x2b1>
   1139f:	eb 23                	jmp    113c4 <io.video.println+0x2d4>
   113a1:	8d 0d 3b bc 03 00    	lea    0x3bc3b,%ecx
   113a7:	ba 10 00 00 00       	mov    $0x10,%edx
   113ac:	31 c0                	xor    %eax,%eax
   113ae:	8d 05 48 b8 03 00    	lea    0x3b848,%eax
   113b4:	c7 04 24 00 00 00 00 	movl   $0x0,(%esp)
   113bb:	89 44 24 04          	mov    %eax,0x4(%esp)
   113bf:	e8 5c 04 00 00       	call   11820 <builtin.default_panic>
   113c4:	66 8b 4c 24 4a       	mov    0x4a(%esp),%cx
   113c9:	66 8b 44 24 56       	mov    0x56(%esp),%ax
   113ce:	0f b7 c0             	movzwl %ax,%eax
   113d1:	89 44 24 3c          	mov    %eax,0x3c(%esp)
   113d5:	ba 00 80 0b 00       	mov    $0xb8000,%edx
   113da:	01 c2                	add    %eax,%edx
   113dc:	89 54 24 40          	mov    %edx,0x40(%esp)
   113e0:	0f b7 c9             	movzwl %cx,%ecx
   113e3:	89 4c 24 44          	mov    %ecx,0x44(%esp)
   113e7:	39 c8                	cmp    %ecx,%eax
   113e9:	76 1b                	jbe    11406 <io.video.println+0x316>
   113eb:	eb 1b                	jmp    11408 <io.video.println+0x318>
   113ed:	8b 44 24 44          	mov    0x44(%esp),%eax
   113f1:	8b 54 24 3c          	mov    0x3c(%esp),%edx
   113f5:	89 c1                	mov    %eax,%ecx
   113f7:	29 d1                	sub    %edx,%ecx
   113f9:	89 4c 24 38          	mov    %ecx,0x38(%esp)
   113fd:	3d a0 0f 00 00       	cmp    $0xfa0,%eax
   11402:	76 1f                	jbe    11423 <io.video.println+0x333>
   11404:	eb 1f                	jmp    11425 <io.video.println+0x335>
   11406:	eb e5                	jmp    113ed <io.video.println+0x2fd>
   11408:	8b 54 24 44          	mov    0x44(%esp),%edx
   1140c:	8b 4c 24 3c          	mov    0x3c(%esp),%ecx
   11410:	e8 8b 04 00 00       	call   118a0 <builtin.panicStartGreaterThanEnd>
   11415:	8b 44 24 3c          	mov    0x3c(%esp),%eax
   11419:	8b 4c 24 44          	mov    0x44(%esp),%ecx
   1141d:	39 c8                	cmp    %ecx,%eax
   1141f:	76 3e                	jbe    1145f <io.video.println+0x36f>
   11421:	eb 3e                	jmp    11461 <io.video.println+0x371>
   11423:	eb f0                	jmp    11415 <io.video.println+0x325>
   11425:	8b 4c 24 44          	mov    0x44(%esp),%ecx
   11429:	ba a0 0f 00 00       	mov    $0xfa0,%edx
   1142e:	e8 9d 04 00 00       	call   118d0 <builtin.panicOutOfBounds>
   11433:	8b 4c 24 4c          	mov    0x4c(%esp),%ecx
   11437:	8b 54 24 40          	mov    0x40(%esp),%edx
   1143b:	8b 74 24 38          	mov    0x38(%esp),%esi
   1143f:	89 f0                	mov    %esi,%eax
   11441:	89 44 24 30          	mov    %eax,0x30(%esp)
   11445:	89 d7                	mov    %edx,%edi
   11447:	89 7c 24 34          	mov    %edi,0x34(%esp)
   1144b:	89 b4 24 30 01 00 00 	mov    %esi,0x130(%esp)
   11452:	89 94 24 2c 01 00 00 	mov    %edx,0x12c(%esp)
   11459:	39 c8                	cmp    %ecx,%eax
   1145b:	74 37                	je     11494 <io.video.println+0x3a4>
   1145d:	eb 37                	jmp    11496 <io.video.println+0x3a6>
   1145f:	eb d2                	jmp    11433 <io.video.println+0x343>
   11461:	8b 54 24 44          	mov    0x44(%esp),%edx
   11465:	8b 4c 24 3c          	mov    0x3c(%esp),%ecx
   11469:	e8 62 04 00 00       	call   118d0 <builtin.panicOutOfBounds>
   1146e:	8b 4c 24 50          	mov    0x50(%esp),%ecx
   11472:	8b 44 24 34          	mov    0x34(%esp),%eax
   11476:	8b 7c 24 30          	mov    0x30(%esp),%edi
   1147a:	89 ce                	mov    %ecx,%esi
   1147c:	01 fe                	add    %edi,%esi
   1147e:	89 c2                	mov    %eax,%edx
   11480:	01 fa                	add    %edi,%edx
   11482:	39 f0                	cmp    %esi,%eax
   11484:	0f 93 c0             	setae  %al
   11487:	39 d1                	cmp    %edx,%ecx
   11489:	0f 93 c1             	setae  %cl
   1148c:	08 c8                	or     %cl,%al
   1148e:	a8 01                	test   $0x1,%al
   11490:	75 46                	jne    114d8 <io.video.println+0x3e8>
   11492:	eb 46                	jmp    114da <io.video.println+0x3ea>
   11494:	eb d8                	jmp    1146e <io.video.println+0x37e>
   11496:	b9 3a bd 03 00       	mov    $0x3bd3a,%ecx
   1149b:	ba 28 00 00 00       	mov    $0x28,%edx
   114a0:	31 c0                	xor    %eax,%eax
   114a2:	8d 05 48 b8 03 00    	lea    0x3b848,%eax
   114a8:	c7 04 24 00 00 00 00 	movl   $0x0,(%esp)
   114af:	89 44 24 04          	mov    %eax,0x4(%esp)
   114b3:	e8 68 03 00 00       	call   11820 <builtin.default_panic>
   114b8:	8b 4c 24 34          	mov    0x34(%esp),%ecx
   114bc:	8b 54 24 50          	mov    0x50(%esp),%edx
   114c0:	8b 74 24 30          	mov    0x30(%esp),%esi
   114c4:	89 e0                	mov    %esp,%eax
   114c6:	89 70 08             	mov    %esi,0x8(%eax)
   114c9:	89 50 04             	mov    %edx,0x4(%eax)
   114cc:	89 08                	mov    %ecx,(%eax)
   114ce:	e8 3d 8a 02 00       	call   39f10 <memcpy>
   114d3:	e9 b2 fc ff ff       	jmp    1118a <io.video.println+0x9a>
   114d8:	eb de                	jmp    114b8 <io.video.println+0x3c8>
   114da:	b9 8b bd 03 00       	mov    $0x3bd8b,%ecx
   114df:	ba 17 00 00 00       	mov    $0x17,%edx
   114e4:	31 c0                	xor    %eax,%eax
   114e6:	8d 05 48 b8 03 00    	lea    0x3b848,%eax
   114ec:	c7 04 24 00 00 00 00 	movl   $0x0,(%esp)
   114f3:	89 44 24 04          	mov    %eax,0x4(%esp)
   114f7:	e8 24 03 00 00       	call   11820 <builtin.default_panic>
   114fc:	66 83 3d 8c da 03 00 	cmpw   $0x19,0x3da8c
   11503:	19 
   11504:	0f 82 12 02 00 00    	jb     1171c <io.video.println+0x62c>
   1150a:	e9 25 02 00 00       	jmp    11734 <io.video.println+0x644>
   1150f:	8b 84 24 34 01 00 00 	mov    0x134(%esp),%eax
   11516:	89 44 24 2c          	mov    %eax,0x2c(%esp)
   1151a:	83 f8 50             	cmp    $0x50,%eax
   1151d:	72 12                	jb     11531 <io.video.println+0x441>
   1151f:	eb 25                	jmp    11546 <io.video.println+0x456>
   11521:	8b 44 24 2c          	mov    0x2c(%esp),%eax
   11525:	83 c0 01             	add    $0x1,%eax
   11528:	89 84 24 34 01 00 00 	mov    %eax,0x134(%esp)
   1152f:	eb de                	jmp    1150f <io.video.println+0x41f>
   11531:	8b 44 24 2c          	mov    0x2c(%esp),%eax
   11535:	8b 4c 24 78          	mov    0x78(%esp),%ecx
   11539:	89 84 24 38 01 00 00 	mov    %eax,0x138(%esp)
   11540:	39 c8                	cmp    %ecx,%eax
   11542:	72 2c                	jb     11570 <io.video.println+0x480>
   11544:	eb 38                	jmp    1157e <io.video.println+0x48e>
   11546:	eb b4                	jmp    114fc <io.video.println+0x40c>
   11548:	8b 44 24 2c          	mov    0x2c(%esp),%eax
   1154c:	8a 4c 24 28          	mov    0x28(%esp),%cl
   11550:	88 4c 24 29          	mov    %cl,0x29(%esp)
   11554:	88 8c 24 3d 01 00 00 	mov    %cl,0x13d(%esp)
   1155b:	66 8b 0d 8c da 03 00 	mov    0x3da8c,%cx
   11562:	66 89 4c 24 2a       	mov    %cx,0x2a(%esp)
   11567:	3d ff ff 00 00       	cmp    $0xffff,%eax
   1156c:	76 69                	jbe    115d7 <io.video.println+0x4e7>
   1156e:	eb 69                	jmp    115d9 <io.video.println+0x4e9>
   11570:	8b 44 24 2c          	mov    0x2c(%esp),%eax
   11574:	8b 4c 24 78          	mov    0x78(%esp),%ecx
   11578:	39 c8                	cmp    %ecx,%eax
   1157a:	72 1b                	jb     11597 <io.video.println+0x4a7>
   1157c:	eb 1b                	jmp    11599 <io.video.println+0x4a9>
   1157e:	b0 20                	mov    $0x20,%al
   11580:	88 44 24 28          	mov    %al,0x28(%esp)
   11584:	eb c2                	jmp    11548 <io.video.println+0x458>
   11586:	8b 44 24 7c          	mov    0x7c(%esp),%eax
   1158a:	8b 4c 24 2c          	mov    0x2c(%esp),%ecx
   1158e:	8a 04 08             	mov    (%eax,%ecx,1),%al
   11591:	88 44 24 28          	mov    %al,0x28(%esp)
   11595:	eb b1                	jmp    11548 <io.video.println+0x458>
   11597:	eb ed                	jmp    11586 <io.video.println+0x496>
   11599:	8b 54 24 78          	mov    0x78(%esp),%edx
   1159d:	8b 4c 24 2c          	mov    0x2c(%esp),%ecx
   115a1:	e8 2a 03 00 00       	call   118d0 <builtin.panicOutOfBounds>
   115a6:	66 8b 4c 24 2a       	mov    0x2a(%esp),%cx
   115ab:	8b 44 24 2c          	mov    0x2c(%esp),%eax
   115af:	0f b7 c9             	movzwl %cx,%ecx
   115b2:	0f b7 d0             	movzwl %ax,%edx
   115b5:	e8 86 02 00 00       	call   11840 <io.video.get_video_mode_3_byte_offset>
   115ba:	66 89 44 24 22       	mov    %ax,0x22(%esp)
   115bf:	66 89 84 24 3e 01 00 	mov    %ax,0x13e(%esp)
   115c6:	00 
   115c7:	0f b7 c0             	movzwl %ax,%eax
   115ca:	89 44 24 24          	mov    %eax,0x24(%esp)
   115ce:	3d a0 0f 00 00       	cmp    $0xfa0,%eax
   115d3:	72 4d                	jb     11622 <io.video.println+0x532>
   115d5:	eb 4d                	jmp    11624 <io.video.println+0x534>
   115d7:	eb cd                	jmp    115a6 <io.video.println+0x4b6>
   115d9:	b9 aa bc 03 00       	mov    $0x3bcaa,%ecx
   115de:	ba 1b 00 00 00       	mov    $0x1b,%edx
   115e3:	31 c0                	xor    %eax,%eax
   115e5:	8d 05 48 b8 03 00    	lea    0x3b848,%eax
   115eb:	c7 04 24 00 00 00 00 	movl   $0x0,(%esp)
   115f2:	89 44 24 04          	mov    %eax,0x4(%esp)
   115f6:	e8 25 02 00 00       	call   11820 <builtin.default_panic>
   115fb:	66 8b 44 24 22       	mov    0x22(%esp),%ax
   11600:	8b 54 24 24          	mov    0x24(%esp),%edx
   11604:	8a 5c 24 29          	mov    0x29(%esp),%bl
   11608:	b9 00 80 0b 00       	mov    $0xb8000,%ecx
   1160d:	88 1c 11             	mov    %bl,(%ecx,%edx,1)
   11610:	66 83 c0 01          	add    $0x1,%ax
   11614:	66 89 44 24 20       	mov    %ax,0x20(%esp)
   11619:	0f 92 c0             	setb   %al
   1161c:	a8 01                	test   $0x1,%al
   1161e:	75 12                	jne    11632 <io.video.println+0x542>
   11620:	eb 33                	jmp    11655 <io.video.println+0x565>
   11622:	eb d7                	jmp    115fb <io.video.println+0x50b>
   11624:	8b 4c 24 24          	mov    0x24(%esp),%ecx
   11628:	ba a0 0f 00 00       	mov    $0xfa0,%edx
   1162d:	e8 9e 02 00 00       	call   118d0 <builtin.panicOutOfBounds>
   11632:	8d 0d 3b bc 03 00    	lea    0x3bc3b,%ecx
   11638:	ba 10 00 00 00       	mov    $0x10,%edx
   1163d:	31 c0                	xor    %eax,%eax
   1163f:	8d 05 48 b8 03 00    	lea    0x3b848,%eax
   11645:	c7 04 24 00 00 00 00 	movl   $0x0,(%esp)
   1164c:	89 44 24 04          	mov    %eax,0x4(%esp)
   11650:	e8 cb 01 00 00       	call   11820 <builtin.default_panic>
   11655:	66 8b 44 24 20       	mov    0x20(%esp),%ax
   1165a:	0f b7 c0             	movzwl %ax,%eax
   1165d:	89 44 24 1c          	mov    %eax,0x1c(%esp)
   11661:	3d a0 0f 00 00       	cmp    $0xfa0,%eax
   11666:	72 14                	jb     1167c <io.video.println+0x58c>
   11668:	eb 14                	jmp    1167e <io.video.println+0x58e>
   1166a:	8b 4c 24 1c          	mov    0x1c(%esp),%ecx
   1166e:	b8 00 80 0b 00       	mov    $0xb8000,%eax
   11673:	c6 04 08 0f          	movb   $0xf,(%eax,%ecx,1)
   11677:	e9 a5 fe ff ff       	jmp    11521 <io.video.println+0x431>
   1167c:	eb ec                	jmp    1166a <io.video.println+0x57a>
   1167e:	8b 4c 24 1c          	mov    0x1c(%esp),%ecx
   11682:	ba a0 0f 00 00       	mov    $0xfa0,%edx
   11687:	e8 44 02 00 00       	call   118d0 <builtin.panicOutOfBounds>
   1168c:	0f 28 05 20 b6 03 00 	movaps 0x3b620,%xmm0
   11693:	0f 29 84 24 80 01 00 	movaps %xmm0,0x180(%esp)
   1169a:	00 
   1169b:	0f 29 84 24 70 01 00 	movaps %xmm0,0x170(%esp)
   116a2:	00 
   116a3:	0f 29 84 24 60 01 00 	movaps %xmm0,0x160(%esp)
   116aa:	00 
   116ab:	0f 29 84 24 50 01 00 	movaps %xmm0,0x150(%esp)
   116b2:	00 
   116b3:	0f 29 84 24 40 01 00 	movaps %xmm0,0x140(%esp)
   116ba:	00 
   116bb:	0f 57 c0             	xorps  %xmm0,%xmm0
   116be:	0f 29 84 24 80 01 00 	movaps %xmm0,0x180(%esp)
   116c5:	00 
   116c6:	0f 29 84 24 70 01 00 	movaps %xmm0,0x170(%esp)
   116cd:	00 
   116ce:	0f 29 84 24 60 01 00 	movaps %xmm0,0x160(%esp)
   116d5:	00 
   116d6:	0f 29 84 24 50 01 00 	movaps %xmm0,0x150(%esp)
   116dd:	00 
   116de:	0f 29 84 24 40 01 00 	movaps %xmm0,0x140(%esp)
   116e5:	00 
   116e6:	b8 50 00 00 00       	mov    $0x50,%eax
   116eb:	8d b4 24 40 01 00 00 	lea    0x140(%esp),%esi
   116f2:	8d 8c 24 90 01 00 00 	lea    0x190(%esp),%ecx
   116f9:	8d 94 24 0c 01 00 00 	lea    0x10c(%esp),%edx
   11700:	89 34 24             	mov    %esi,(%esp)
   11703:	89 44 24 04          	mov    %eax,0x4(%esp)
   11707:	e8 f4 01 00 00       	call   11900 <fmt.bufPrint__anon_1138>
   1170c:	66 83 bc 24 98 01 00 	cmpw   $0x0,0x198(%esp)
   11713:	00 00 
   11715:	74 78                	je     1178f <io.video.println+0x69f>
   11717:	e9 a7 00 00 00       	jmp    117c3 <io.video.println+0x6d3>
   1171c:	66 a1 8c da 03 00    	mov    0x3da8c,%ax
   11722:	66 83 c0 01          	add    $0x1,%ax
   11726:	66 89 44 24 1a       	mov    %ax,0x1a(%esp)
   1172b:	0f 92 c0             	setb   %al
   1172e:	a8 01                	test   $0x1,%al
   11730:	75 07                	jne    11739 <io.video.println+0x649>
   11732:	eb 28                	jmp    1175c <io.video.println+0x66c>
   11734:	e9 53 ff ff ff       	jmp    1168c <io.video.println+0x59c>
   11739:	8d 0d 3b bc 03 00    	lea    0x3bc3b,%ecx
   1173f:	ba 10 00 00 00       	mov    $0x10,%edx
   11744:	31 c0                	xor    %eax,%eax
   11746:	8d 05 48 b8 03 00    	lea    0x3b848,%eax
   1174c:	c7 04 24 00 00 00 00 	movl   $0x0,(%esp)
   11753:	89 44 24 04          	mov    %eax,0x4(%esp)
   11757:	e8 c4 00 00 00       	call   11820 <builtin.default_panic>
   1175c:	66 8b 44 24 1a       	mov    0x1a(%esp),%ax
   11761:	66 a3 8c da 03 00    	mov    %ax,0x3da8c
   11767:	e9 20 ff ff ff       	jmp    1168c <io.video.println+0x59c>
   1176c:	8b 4c 24 14          	mov    0x14(%esp),%ecx
   11770:	8b 54 24 10          	mov    0x10(%esp),%edx
   11774:	89 8c 24 a4 01 00 00 	mov    %ecx,0x1a4(%esp)
   1177b:	89 94 24 a8 01 00 00 	mov    %edx,0x1a8(%esp)
   11782:	e8 89 02 00 00       	call   11a10 <io.video.printdbg>
   11787:	8d 65 f4             	lea    -0xc(%ebp),%esp
   1178a:	5e                   	pop    %esi
   1178b:	5f                   	pop    %edi
   1178c:	5b                   	pop    %ebx
   1178d:	5d                   	pop    %ebp
   1178e:	c3                   	ret
   1178f:	8b 84 24 90 01 00 00 	mov    0x190(%esp),%eax
   11796:	8b 8c 24 94 01 00 00 	mov    0x194(%esp),%ecx
   1179d:	89 8c 24 a0 01 00 00 	mov    %ecx,0x1a0(%esp)
   117a4:	89 84 24 9c 01 00 00 	mov    %eax,0x19c(%esp)
   117ab:	8b 8c 24 9c 01 00 00 	mov    0x19c(%esp),%ecx
   117b2:	8b 84 24 a0 01 00 00 	mov    0x1a0(%esp),%eax
   117b9:	89 4c 24 14          	mov    %ecx,0x14(%esp)
   117bd:	89 44 24 10          	mov    %eax,0x10(%esp)
   117c1:	eb a9                	jmp    1176c <io.video.println+0x67c>
   117c3:	66 8b 84 24 98 01 00 	mov    0x198(%esp),%ax
   117ca:	00 
   117cb:	66 83 e8 01          	sub    $0x1,%ax
   117cf:	74 24                	je     117f5 <io.video.println+0x705>
   117d1:	eb 00                	jmp    117d3 <io.video.println+0x6e3>
   117d3:	b9 ff bd 03 00       	mov    $0x3bdff,%ecx
   117d8:	ba 17 00 00 00       	mov    $0x17,%edx
   117dd:	31 c0                	xor    %eax,%eax
   117df:	8d 05 48 b8 03 00    	lea    0x3b848,%eax
   117e5:	c7 04 24 00 00 00 00 	movl   $0x0,(%esp)
   117ec:	89 44 24 04          	mov    %eax,0x4(%esp)
   117f0:	e8 2b 00 00 00       	call   11820 <builtin.default_panic>
   117f5:	8b 84 24 80 00 00 00 	mov    0x80(%esp),%eax
   117fc:	89 84 24 0c 01 00 00 	mov    %eax,0x10c(%esp)
   11803:	b8 0f 00 00 00       	mov    $0xf,%eax
   11808:	b9 38 be 03 00       	mov    $0x3be38,%ecx
   1180d:	89 4c 24 14          	mov    %ecx,0x14(%esp)
   11811:	89 44 24 10          	mov    %eax,0x10(%esp)
   11815:	e9 52 ff ff ff       	jmp    1176c <io.video.println+0x67c>
   1181a:	66 0f 1f 44 00 00    	nopw   0x0(%eax,%eax,1)

00011820 <builtin.default_panic>:
   11820:	55                   	push   %ebp
   11821:	89 e5                	mov    %esp,%ebp
   11823:	83 ec 08             	sub    $0x8,%esp
   11826:	8b 45 08             	mov    0x8(%ebp),%eax
   11829:	89 55 fc             	mov    %edx,-0x4(%ebp)
   1182c:	89 4d f8             	mov    %ecx,-0x8(%ebp)
   1182f:	cc                   	int3
   11830:	eb fd                	jmp    1182f <builtin.default_panic+0xf>
   11832:	66 2e 0f 1f 84 00 00 	nopw   %cs:0x0(%eax,%eax,1)
   11839:	00 00 00 
   1183c:	0f 1f 40 00          	nopl   0x0(%eax)

00011840 <io.video.get_video_mode_3_byte_offset>:
   11840:	55                   	push   %ebp
   11841:	89 e5                	mov    %esp,%ebp
   11843:	83 ec 10             	sub    $0x10,%esp
   11846:	66 89 d0             	mov    %dx,%ax
   11849:	66 89 4d fc          	mov    %cx,-0x4(%ebp)
   1184d:	66 89 45 fe          	mov    %ax,-0x2(%ebp)
   11851:	0f b7 c9             	movzwl %cx,%ecx
   11854:	0f b7 d0             	movzwl %ax,%edx
   11857:	e8 24 03 00 00       	call   11b80 <io.video.get_video_mode_3_offset>
   1185c:	66 b9 02 00          	mov    $0x2,%cx
   11860:	66 f7 e1             	mul    %cx
   11863:	66 89 45 fa          	mov    %ax,-0x6(%ebp)
   11867:	0f 90 c0             	seto   %al
   1186a:	a8 01                	test   $0x1,%al
   1186c:	75 02                	jne    11870 <io.video.get_video_mode_3_byte_offset+0x30>
   1186e:	eb 23                	jmp    11893 <io.video.get_video_mode_3_byte_offset+0x53>
   11870:	8d 0d 3b bc 03 00    	lea    0x3bc3b,%ecx
   11876:	ba 10 00 00 00       	mov    $0x10,%edx
   1187b:	31 c0                	xor    %eax,%eax
   1187d:	8d 05 48 b8 03 00    	lea    0x3b848,%eax
   11883:	c7 04 24 00 00 00 00 	movl   $0x0,(%esp)
   1188a:	89 44 24 04          	mov    %eax,0x4(%esp)
   1188e:	e8 8d ff ff ff       	call   11820 <builtin.default_panic>
   11893:	66 8b 45 fa          	mov    -0x6(%ebp),%ax
   11897:	83 c4 10             	add    $0x10,%esp
   1189a:	5d                   	pop    %ebp
   1189b:	c3                   	ret
   1189c:	0f 1f 40 00          	nopl   0x0(%eax)

000118a0 <builtin.panicStartGreaterThanEnd>:
   118a0:	55                   	push   %ebp
   118a1:	89 e5                	mov    %esp,%ebp
   118a3:	83 ec 1c             	sub    $0x1c,%esp
   118a6:	89 4d e8             	mov    %ecx,-0x18(%ebp)
   118a9:	89 55 ec             	mov    %edx,-0x14(%ebp)
   118ac:	8b 45 04             	mov    0x4(%ebp),%eax
   118af:	89 45 f0             	mov    %eax,-0x10(%ebp)
   118b2:	c6 45 f4 01          	movb   $0x1,-0xc(%ebp)
   118b6:	89 4d f8             	mov    %ecx,-0x8(%ebp)
   118b9:	89 55 fc             	mov    %edx,-0x4(%ebp)
   118bc:	31 c9                	xor    %ecx,%ecx
   118be:	8d 55 f0             	lea    -0x10(%ebp),%edx
   118c1:	8d 45 f8             	lea    -0x8(%ebp),%eax
   118c4:	89 04 24             	mov    %eax,(%esp)
   118c7:	e8 54 03 00 00       	call   11c20 <debug.panicExtra__anon_1139>
   118cc:	0f 1f 40 00          	nopl   0x0(%eax)

000118d0 <builtin.panicOutOfBounds>:
   118d0:	55                   	push   %ebp
   118d1:	89 e5                	mov    %esp,%ebp
   118d3:	83 ec 1c             	sub    $0x1c,%esp
   118d6:	89 4d e8             	mov    %ecx,-0x18(%ebp)
   118d9:	89 55 ec             	mov    %edx,-0x14(%ebp)
   118dc:	8b 45 04             	mov    0x4(%ebp),%eax
   118df:	89 45 f0             	mov    %eax,-0x10(%ebp)
   118e2:	c6 45 f4 01          	movb   $0x1,-0xc(%ebp)
   118e6:	89 4d f8             	mov    %ecx,-0x8(%ebp)
   118e9:	89 55 fc             	mov    %edx,-0x4(%ebp)
   118ec:	31 c9                	xor    %ecx,%ecx
   118ee:	8d 55 f0             	lea    -0x10(%ebp),%edx
   118f1:	8d 45 f8             	lea    -0x8(%ebp),%eax
   118f4:	89 04 24             	mov    %eax,(%esp)
   118f7:	e8 44 05 00 00       	call   11e40 <debug.panicExtra__anon_1140>
   118fc:	0f 1f 40 00          	nopl   0x0(%eax)

00011900 <fmt.bufPrint__anon_1138>:
   11900:	55                   	push   %ebp
   11901:	89 e5                	mov    %esp,%ebp
   11903:	56                   	push   %esi
   11904:	83 ec 60             	sub    $0x60,%esp
   11907:	89 55 a8             	mov    %edx,-0x58(%ebp)
   1190a:	89 4d ac             	mov    %ecx,-0x54(%ebp)
   1190d:	89 4d b0             	mov    %ecx,-0x50(%ebp)
   11910:	8b 75 0c             	mov    0xc(%ebp),%esi
   11913:	8b 4d 08             	mov    0x8(%ebp),%ecx
   11916:	89 f0                	mov    %esi,%eax
   11918:	89 ca                	mov    %ecx,%edx
   1191a:	89 75 bc             	mov    %esi,-0x44(%ebp)
   1191d:	89 4d b8             	mov    %ecx,-0x48(%ebp)
   11920:	8d 4d cc             	lea    -0x34(%ebp),%ecx
   11923:	89 04 24             	mov    %eax,(%esp)
   11926:	e8 65 0a 00 00       	call   12390 <io.fixed_buffer_stream.fixedBufferStream__anon_1240>
   1192b:	8b 45 cc             	mov    -0x34(%ebp),%eax
   1192e:	89 45 c0             	mov    %eax,-0x40(%ebp)
   11931:	8b 45 d0             	mov    -0x30(%ebp),%eax
   11934:	89 45 c4             	mov    %eax,-0x3c(%ebp)
   11937:	8b 45 d4             	mov    -0x2c(%ebp),%eax
   1193a:	89 45 c8             	mov    %eax,-0x38(%ebp)
   1193d:	8d 4d d8             	lea    -0x28(%ebp),%ecx
   11940:	8d 55 c0             	lea    -0x40(%ebp),%edx
   11943:	e8 78 0a 00 00       	call   123c0 <io.fixed_buffer_stream.FixedBufferStream([]u8).writer>
   11948:	8b 45 d8             	mov    -0x28(%ebp),%eax
   1194b:	89 45 dc             	mov    %eax,-0x24(%ebp)
   1194e:	8d 45 dc             	lea    -0x24(%ebp),%eax
   11951:	89 45 e0             	mov    %eax,-0x20(%ebp)
   11954:	8d 45 dc             	lea    -0x24(%ebp),%eax
   11957:	89 45 ec             	mov    %eax,-0x14(%ebp)
   1195a:	8b 45 ec             	mov    -0x14(%ebp),%eax
   1195d:	89 45 e4             	mov    %eax,-0x1c(%ebp)
   11960:	8d 05 d0 23 01 00    	lea    0x123d0,%eax
   11966:	89 45 e8             	mov    %eax,-0x18(%ebp)
   11969:	8d 45 e4             	lea    -0x1c(%ebp),%eax
   1196c:	89 45 b4             	mov    %eax,-0x4c(%ebp)
   1196f:	8b 4d a8             	mov    -0x58(%ebp),%ecx
   11972:	8b 55 b4             	mov    -0x4c(%ebp),%edx
   11975:	e8 e6 06 00 00       	call   12060 <fmt.format__anon_1273>
   1197a:	66 89 45 a6          	mov    %ax,-0x5a(%ebp)
   1197e:	66 83 f8 00          	cmp    $0x0,%ax
   11982:	74 3d                	je     119c1 <fmt.bufPrint__anon_1138+0xc1>
   11984:	eb 3d                	jmp    119c3 <fmt.bufPrint__anon_1138+0xc3>
   11986:	8d 4d c0             	lea    -0x40(%ebp),%ecx
   11989:	e8 42 0b 00 00       	call   124d0 <io.fixed_buffer_stream.FixedBufferStream([]u8).getWritten>
   1198e:	8b 4d ac             	mov    -0x54(%ebp),%ecx
   11991:	89 c6                	mov    %eax,%esi
   11993:	8b 45 b0             	mov    -0x50(%ebp),%eax
   11996:	89 75 a0             	mov    %esi,-0x60(%ebp)
   11999:	89 d6                	mov    %edx,%esi
   1199b:	8b 55 a0             	mov    -0x60(%ebp),%edx
   1199e:	66 c7 45 f8 00 00    	movw   $0x0,-0x8(%ebp)
   119a4:	89 75 f4             	mov    %esi,-0xc(%ebp)
   119a7:	89 55 f0             	mov    %edx,-0x10(%ebp)
   119aa:	8b 55 f0             	mov    -0x10(%ebp),%edx
   119ad:	89 11                	mov    %edx,(%ecx)
   119af:	8b 55 f4             	mov    -0xc(%ebp),%edx
   119b2:	89 51 04             	mov    %edx,0x4(%ecx)
   119b5:	8b 55 f8             	mov    -0x8(%ebp),%edx
   119b8:	89 51 08             	mov    %edx,0x8(%ecx)
   119bb:	83 c4 60             	add    $0x60,%esp
   119be:	5e                   	pop    %esi
   119bf:	5d                   	pop    %ebp
   119c0:	c3                   	ret
   119c1:	eb c3                	jmp    11986 <fmt.bufPrint__anon_1138+0x86>
   119c3:	66 8b 45 a6          	mov    -0x5a(%ebp),%ax
   119c7:	66 83 e8 01          	sub    $0x1,%ax
   119cb:	74 11                	je     119de <fmt.bufPrint__anon_1138+0xde>
   119cd:	eb 00                	jmp    119cf <fmt.bufPrint__anon_1138+0xcf>
   119cf:	66 8b 45 a6          	mov    -0x5a(%ebp),%ax
   119d3:	8b 4d a8             	mov    -0x58(%ebp),%ecx
   119d6:	0f b7 d0             	movzwl %ax,%edx
   119d9:	e8 b2 0a 00 00       	call   12490 <builtin.panicUnwrapError>
   119de:	8b 4d a8             	mov    -0x58(%ebp),%ecx
   119e1:	e8 6a 08 00 00       	call   12250 <builtin.returnError>
   119e6:	8b 4d ac             	mov    -0x54(%ebp),%ecx
   119e9:	8b 45 b0             	mov    -0x50(%ebp),%eax
   119ec:	8b 15 80 b1 03 00    	mov    0x3b180,%edx
   119f2:	89 11                	mov    %edx,(%ecx)
   119f4:	8b 15 84 b1 03 00    	mov    0x3b184,%edx
   119fa:	89 51 04             	mov    %edx,0x4(%ecx)
   119fd:	8b 15 88 b1 03 00    	mov    0x3b188,%edx
   11a03:	89 51 08             	mov    %edx,0x8(%ecx)
   11a06:	83 c4 60             	add    $0x60,%esp
   11a09:	5e                   	pop    %esi
   11a0a:	5d                   	pop    %ebp
   11a0b:	c3                   	ret
   11a0c:	0f 1f 40 00          	nopl   0x0(%eax)

00011a10 <io.video.printdbg>:
   11a10:	55                   	push   %ebp
   11a11:	89 e5                	mov    %esp,%ebp
   11a13:	53                   	push   %ebx
   11a14:	83 ec 38             	sub    $0x38,%esp
   11a17:	89 d0                	mov    %edx,%eax
   11a19:	89 45 e0             	mov    %eax,-0x20(%ebp)
   11a1c:	89 c8                	mov    %ecx,%eax
   11a1e:	89 45 e4             	mov    %eax,-0x1c(%ebp)
   11a21:	89 55 ec             	mov    %edx,-0x14(%ebp)
   11a24:	89 4d e8             	mov    %ecx,-0x18(%ebp)
   11a27:	c7 45 f0 00 00 00 00 	movl   $0x0,-0x10(%ebp)
   11a2e:	eb 06                	jmp    11a36 <io.video.printdbg+0x26>
   11a30:	83 c4 38             	add    $0x38,%esp
   11a33:	5b                   	pop    %ebx
   11a34:	5d                   	pop    %ebp
   11a35:	c3                   	ret
   11a36:	8b 45 f0             	mov    -0x10(%ebp),%eax
   11a39:	89 45 dc             	mov    %eax,-0x24(%ebp)
   11a3c:	83 f8 50             	cmp    $0x50,%eax
   11a3f:	72 0d                	jb     11a4e <io.video.printdbg+0x3e>
   11a41:	eb 1a                	jmp    11a5d <io.video.printdbg+0x4d>
   11a43:	8b 45 dc             	mov    -0x24(%ebp),%eax
   11a46:	83 c0 01             	add    $0x1,%eax
   11a49:	89 45 f0             	mov    %eax,-0x10(%ebp)
   11a4c:	eb e8                	jmp    11a36 <io.video.printdbg+0x26>
   11a4e:	8b 45 dc             	mov    -0x24(%ebp),%eax
   11a51:	8b 4d e0             	mov    -0x20(%ebp),%ecx
   11a54:	89 45 f4             	mov    %eax,-0xc(%ebp)
   11a57:	39 c8                	cmp    %ecx,%eax
   11a59:	72 19                	jb     11a74 <io.video.printdbg+0x64>
   11a5b:	eb 23                	jmp    11a80 <io.video.printdbg+0x70>
   11a5d:	eb d1                	jmp    11a30 <io.video.printdbg+0x20>
   11a5f:	8b 45 dc             	mov    -0x24(%ebp),%eax
   11a62:	8a 4d da             	mov    -0x26(%ebp),%cl
   11a65:	88 4d db             	mov    %cl,-0x25(%ebp)
   11a68:	88 4d f9             	mov    %cl,-0x7(%ebp)
   11a6b:	3d ff ff 00 00       	cmp    $0xffff,%eax
   11a70:	76 57                	jbe    11ac9 <io.video.printdbg+0xb9>
   11a72:	eb 57                	jmp    11acb <io.video.printdbg+0xbb>
   11a74:	8b 45 dc             	mov    -0x24(%ebp),%eax
   11a77:	8b 4d e0             	mov    -0x20(%ebp),%ecx
   11a7a:	39 c8                	cmp    %ecx,%eax
   11a7c:	72 17                	jb     11a95 <io.video.printdbg+0x85>
   11a7e:	eb 17                	jmp    11a97 <io.video.printdbg+0x87>
   11a80:	b0 20                	mov    $0x20,%al
   11a82:	88 45 da             	mov    %al,-0x26(%ebp)
   11a85:	eb d8                	jmp    11a5f <io.video.printdbg+0x4f>
   11a87:	8b 45 e4             	mov    -0x1c(%ebp),%eax
   11a8a:	8b 4d dc             	mov    -0x24(%ebp),%ecx
   11a8d:	8a 04 08             	mov    (%eax,%ecx,1),%al
   11a90:	88 45 da             	mov    %al,-0x26(%ebp)
   11a93:	eb ca                	jmp    11a5f <io.video.printdbg+0x4f>
   11a95:	eb f0                	jmp    11a87 <io.video.printdbg+0x77>
   11a97:	8b 55 e0             	mov    -0x20(%ebp),%edx
   11a9a:	8b 4d dc             	mov    -0x24(%ebp),%ecx
   11a9d:	e8 2e fe ff ff       	call   118d0 <builtin.panicOutOfBounds>
   11aa2:	8b 45 dc             	mov    -0x24(%ebp),%eax
   11aa5:	b9 18 00 00 00       	mov    $0x18,%ecx
   11aaa:	0f b7 d0             	movzwl %ax,%edx
   11aad:	e8 8e fd ff ff       	call   11840 <io.video.get_video_mode_3_byte_offset>
   11ab2:	66 89 45 d2          	mov    %ax,-0x2e(%ebp)
   11ab6:	66 89 45 fa          	mov    %ax,-0x6(%ebp)
   11aba:	0f b7 c0             	movzwl %ax,%eax
   11abd:	89 45 d4             	mov    %eax,-0x2c(%ebp)
   11ac0:	3d a0 0f 00 00       	cmp    $0xfa0,%eax
   11ac5:	72 49                	jb     11b10 <io.video.printdbg+0x100>
   11ac7:	eb 49                	jmp    11b12 <io.video.printdbg+0x102>
   11ac9:	eb d7                	jmp    11aa2 <io.video.printdbg+0x92>
   11acb:	b9 aa bc 03 00       	mov    $0x3bcaa,%ecx
   11ad0:	ba 1b 00 00 00       	mov    $0x1b,%edx
   11ad5:	31 c0                	xor    %eax,%eax
   11ad7:	8d 05 48 b8 03 00    	lea    0x3b848,%eax
   11add:	c7 04 24 00 00 00 00 	movl   $0x0,(%esp)
   11ae4:	89 44 24 04          	mov    %eax,0x4(%esp)
   11ae8:	e8 33 fd ff ff       	call   11820 <builtin.default_panic>
   11aed:	66 8b 45 d2          	mov    -0x2e(%ebp),%ax
   11af1:	8b 55 d4             	mov    -0x2c(%ebp),%edx
   11af4:	8a 5d db             	mov    -0x25(%ebp),%bl
   11af7:	b9 00 80 0b 00       	mov    $0xb8000,%ecx
   11afc:	88 1c 11             	mov    %bl,(%ecx,%edx,1)
   11aff:	66 83 c0 01          	add    $0x1,%ax
   11b03:	66 89 45 d0          	mov    %ax,-0x30(%ebp)
   11b07:	0f 92 c0             	setb   %al
   11b0a:	a8 01                	test   $0x1,%al
   11b0c:	75 11                	jne    11b1f <io.video.printdbg+0x10f>
   11b0e:	eb 32                	jmp    11b42 <io.video.printdbg+0x132>
   11b10:	eb db                	jmp    11aed <io.video.printdbg+0xdd>
   11b12:	8b 4d d4             	mov    -0x2c(%ebp),%ecx
   11b15:	ba a0 0f 00 00       	mov    $0xfa0,%edx
   11b1a:	e8 b1 fd ff ff       	call   118d0 <builtin.panicOutOfBounds>
   11b1f:	8d 0d 3b bc 03 00    	lea    0x3bc3b,%ecx
   11b25:	ba 10 00 00 00       	mov    $0x10,%edx
   11b2a:	31 c0                	xor    %eax,%eax
   11b2c:	8d 05 48 b8 03 00    	lea    0x3b848,%eax
   11b32:	c7 04 24 00 00 00 00 	movl   $0x0,(%esp)
   11b39:	89 44 24 04          	mov    %eax,0x4(%esp)
   11b3d:	e8 de fc ff ff       	call   11820 <builtin.default_panic>
   11b42:	66 8b 45 d0          	mov    -0x30(%ebp),%ax
   11b46:	0f b7 c0             	movzwl %ax,%eax
   11b49:	89 45 cc             	mov    %eax,-0x34(%ebp)
   11b4c:	3d a0 0f 00 00       	cmp    $0xfa0,%eax
   11b51:	72 13                	jb     11b66 <io.video.printdbg+0x156>
   11b53:	eb 13                	jmp    11b68 <io.video.printdbg+0x158>
   11b55:	8b 4d cc             	mov    -0x34(%ebp),%ecx
   11b58:	b8 00 80 0b 00       	mov    $0xb8000,%eax
   11b5d:	c6 04 08 1f          	movb   $0x1f,(%eax,%ecx,1)
   11b61:	e9 dd fe ff ff       	jmp    11a43 <io.video.printdbg+0x33>
   11b66:	eb ed                	jmp    11b55 <io.video.printdbg+0x145>
   11b68:	8b 4d cc             	mov    -0x34(%ebp),%ecx
   11b6b:	ba a0 0f 00 00       	mov    $0xfa0,%edx
   11b70:	e8 5b fd ff ff       	call   118d0 <builtin.panicOutOfBounds>
   11b75:	66 2e 0f 1f 84 00 00 	nopw   %cs:0x0(%eax,%eax,1)
   11b7c:	00 00 00 
   11b7f:	90                   	nop

00011b80 <io.video.get_video_mode_3_offset>:
   11b80:	55                   	push   %ebp
   11b81:	89 e5                	mov    %esp,%ebp
   11b83:	83 ec 14             	sub    $0x14,%esp
   11b86:	89 c8                	mov    %ecx,%eax
   11b88:	66 89 d1             	mov    %dx,%cx
   11b8b:	66 89 4d f8          	mov    %cx,-0x8(%ebp)
   11b8f:	66 89 45 fc          	mov    %ax,-0x4(%ebp)
   11b93:	66 89 4d fe          	mov    %cx,-0x2(%ebp)
   11b97:	66 b9 50 00          	mov    $0x50,%cx
   11b9b:	66 f7 e1             	mul    %cx
   11b9e:	66 89 45 fa          	mov    %ax,-0x6(%ebp)
   11ba2:	0f 90 c0             	seto   %al
   11ba5:	a8 01                	test   $0x1,%al
   11ba7:	75 02                	jne    11bab <io.video.get_video_mode_3_offset+0x2b>
   11ba9:	eb 23                	jmp    11bce <io.video.get_video_mode_3_offset+0x4e>
   11bab:	8d 0d 3b bc 03 00    	lea    0x3bc3b,%ecx
   11bb1:	ba 10 00 00 00       	mov    $0x10,%edx
   11bb6:	31 c0                	xor    %eax,%eax
   11bb8:	8d 05 48 b8 03 00    	lea    0x3b848,%eax
   11bbe:	c7 04 24 00 00 00 00 	movl   $0x0,(%esp)
   11bc5:	89 44 24 04          	mov    %eax,0x4(%esp)
   11bc9:	e8 52 fc ff ff       	call   11820 <builtin.default_panic>
   11bce:	66 8b 4d f8          	mov    -0x8(%ebp),%cx
   11bd2:	66 8b 45 fa          	mov    -0x6(%ebp),%ax
   11bd6:	66 01 c8             	add    %cx,%ax
   11bd9:	66 89 45 f6          	mov    %ax,-0xa(%ebp)
   11bdd:	0f 92 c0             	setb   %al
   11be0:	a8 01                	test   $0x1,%al
   11be2:	75 02                	jne    11be6 <io.video.get_video_mode_3_offset+0x66>
   11be4:	eb 23                	jmp    11c09 <io.video.get_video_mode_3_offset+0x89>
   11be6:	8d 0d 3b bc 03 00    	lea    0x3bc3b,%ecx
   11bec:	ba 10 00 00 00       	mov    $0x10,%edx
   11bf1:	31 c0                	xor    %eax,%eax
   11bf3:	8d 05 48 b8 03 00    	lea    0x3b848,%eax
   11bf9:	c7 04 24 00 00 00 00 	movl   $0x0,(%esp)
   11c00:	89 44 24 04          	mov    %eax,0x4(%esp)
   11c04:	e8 17 fc ff ff       	call   11820 <builtin.default_panic>
   11c09:	66 8b 45 f6          	mov    -0xa(%ebp),%ax
   11c0d:	83 c4 14             	add    $0x14,%esp
   11c10:	5d                   	pop    %ebp
   11c11:	c3                   	ret
   11c12:	66 2e 0f 1f 84 00 00 	nopw   %cs:0x0(%eax,%eax,1)
   11c19:	00 00 00 
   11c1c:	0f 1f 40 00          	nopl   0x0(%eax)

00011c20 <debug.panicExtra__anon_1139>:
   11c20:	55                   	push   %ebp
   11c21:	89 e5                	mov    %esp,%ebp
   11c23:	57                   	push   %edi
   11c24:	56                   	push   %esi
   11c25:	b8 ec 10 00 00       	mov    $0x10ec,%eax
   11c2a:	e8 b1 82 02 00       	call   39ee0 <__zig_probe_stack>
   11c2f:	29 c4                	sub    %eax,%esp
   11c31:	89 95 24 ef ff ff    	mov    %edx,-0x10dc(%ebp)
   11c37:	89 8d 28 ef ff ff    	mov    %ecx,-0x10d8(%ebp)
   11c3d:	8b 45 08             	mov    0x8(%ebp),%eax
   11c40:	89 85 2c ef ff ff    	mov    %eax,-0x10d4(%ebp)
   11c46:	89 8d 38 ef ff ff    	mov    %ecx,-0x10c8(%ebp)
   11c4c:	8d 85 3c ef ff ff    	lea    -0x10c4(%ebp),%eax
   11c52:	89 85 c0 ef ff ff    	mov    %eax,-0x1040(%ebp)
   11c58:	c7 85 c4 ef ff ff 20 	movl   $0x20,-0x103c(%ebp)
   11c5f:	00 00 00 
   11c62:	c7 85 bc ef ff ff 00 	movl   $0x0,-0x1044(%ebp)
   11c69:	00 00 00 
   11c6c:	8b 85 bc ef ff ff    	mov    -0x1044(%ebp),%eax
   11c72:	89 85 30 ef ff ff    	mov    %eax,-0x10d0(%ebp)
   11c78:	8d 05 c6 bc 03 00    	lea    0x3bcc6,%eax
   11c7e:	89 85 c8 ef ff ff    	mov    %eax,-0x1038(%ebp)
   11c84:	8d 85 cd ef ff ff    	lea    -0x1033(%ebp),%eax
   11c8a:	89 04 24             	mov    %eax,(%esp)
   11c8d:	c7 44 24 04 aa 00 00 	movl   $0xaa,0x4(%esp)
   11c94:	00 
   11c95:	c7 44 24 08 0f 10 00 	movl   $0x100f,0x8(%esp)
   11c9c:	00 
   11c9d:	e8 5e 83 02 00       	call   3a000 <memset>
   11ca2:	8d 85 cd ef ff ff    	lea    -0x1033(%ebp),%eax
   11ca8:	89 85 34 ef ff ff    	mov    %eax,-0x10cc(%ebp)
   11cae:	b8 00 10 00 00       	mov    $0x1000,%eax
   11cb3:	3d 0f 10 00 00       	cmp    $0x100f,%eax
   11cb8:	76 35                	jbe    11cef <debug.panicExtra__anon_1139+0xcf>
   11cba:	eb 35                	jmp    11cf1 <debug.panicExtra__anon_1139+0xd1>
   11cbc:	8b 85 2c ef ff ff    	mov    -0x10d4(%ebp),%eax
   11cc2:	8b bd 34 ef ff ff    	mov    -0x10cc(%ebp),%edi
   11cc8:	be 00 10 00 00       	mov    $0x1000,%esi
   11ccd:	8d 4d dc             	lea    -0x24(%ebp),%ecx
   11cd0:	8d 95 bc ef ff ff    	lea    -0x1044(%ebp),%edx
   11cd6:	89 3c 24             	mov    %edi,(%esp)
   11cd9:	89 74 24 04          	mov    %esi,0x4(%esp)
   11cdd:	89 44 24 08          	mov    %eax,0x8(%esp)
   11ce1:	e8 6a 08 00 00       	call   12550 <fmt.bufPrint__anon_1756>
   11ce6:	66 83 7d e4 00       	cmpw   $0x0,-0x1c(%ebp)
   11ceb:	74 49                	je     11d36 <debug.panicExtra__anon_1139+0x116>
   11ced:	eb 5b                	jmp    11d4a <debug.panicExtra__anon_1139+0x12a>
   11cef:	eb cb                	jmp    11cbc <debug.panicExtra__anon_1139+0x9c>
   11cf1:	b9 00 10 00 00       	mov    $0x1000,%ecx
   11cf6:	ba 0f 10 00 00       	mov    $0x100f,%edx
   11cfb:	e8 d0 fb ff ff       	call   118d0 <builtin.panicOutOfBounds>
   11d00:	8b 85 24 ef ff ff    	mov    -0x10dc(%ebp),%eax
   11d06:	8b b5 28 ef ff ff    	mov    -0x10d8(%ebp),%esi
   11d0c:	8b 8d 20 ef ff ff    	mov    -0x10e0(%ebp),%ecx
   11d12:	8b 95 1c ef ff ff    	mov    -0x10e4(%ebp),%edx
   11d18:	89 4d e8             	mov    %ecx,-0x18(%ebp)
   11d1b:	89 55 ec             	mov    %edx,-0x14(%ebp)
   11d1e:	89 55 f4             	mov    %edx,-0xc(%ebp)
   11d21:	89 4d f0             	mov    %ecx,-0x10(%ebp)
   11d24:	8b 4d f0             	mov    -0x10(%ebp),%ecx
   11d27:	8b 55 f4             	mov    -0xc(%ebp),%edx
   11d2a:	89 34 24             	mov    %esi,(%esp)
   11d2d:	89 44 24 04          	mov    %eax,0x4(%esp)
   11d31:	e8 ea fa ff ff       	call   11820 <builtin.default_panic>
   11d36:	8b 4d dc             	mov    -0x24(%ebp),%ecx
   11d39:	8b 45 e0             	mov    -0x20(%ebp),%eax
   11d3c:	89 8d 20 ef ff ff    	mov    %ecx,-0x10e0(%ebp)
   11d42:	89 85 1c ef ff ff    	mov    %eax,-0x10e4(%ebp)
   11d48:	eb b6                	jmp    11d00 <debug.panicExtra__anon_1139+0xe0>
   11d4a:	66 8b 45 e4          	mov    -0x1c(%ebp),%ax
   11d4e:	66 83 e8 01          	sub    $0x1,%ax
   11d52:	74 24                	je     11d78 <debug.panicExtra__anon_1139+0x158>
   11d54:	eb 00                	jmp    11d56 <debug.panicExtra__anon_1139+0x136>
   11d56:	b9 ff bd 03 00       	mov    $0x3bdff,%ecx
   11d5b:	ba 17 00 00 00       	mov    $0x17,%edx
   11d60:	31 c0                	xor    %eax,%eax
   11d62:	8d 05 48 b8 03 00    	lea    0x3b848,%eax
   11d68:	c7 04 24 00 00 00 00 	movl   $0x0,(%esp)
   11d6f:	89 44 24 04          	mov    %eax,0x4(%esp)
   11d73:	e8 a8 fa ff ff       	call   11820 <builtin.default_panic>
   11d78:	8d 85 cd ef ff ff    	lea    -0x1033(%ebp),%eax
   11d7e:	05 00 10 00 00       	add    $0x1000,%eax
   11d83:	89 85 18 ef ff ff    	mov    %eax,-0x10e8(%ebp)
   11d89:	eb 2c                	jmp    11db7 <debug.panicExtra__anon_1139+0x197>
   11d8b:	8b 85 18 ef ff ff    	mov    -0x10e8(%ebp),%eax
   11d91:	89 c2                	mov    %eax,%edx
   11d93:	83 c2 0f             	add    $0xf,%edx
   11d96:	8d 0d c6 bc 03 00    	lea    0x3bcc6,%ecx
   11d9c:	83 c1 0f             	add    $0xf,%ecx
   11d9f:	39 c8                	cmp    %ecx,%eax
   11da1:	0f 93 c0             	setae  %al
   11da4:	8d 0d c6 bc 03 00    	lea    0x3bcc6,%ecx
   11daa:	39 d1                	cmp    %edx,%ecx
   11dac:	0f 93 c1             	setae  %cl
   11daf:	08 c8                	or     %cl,%al
   11db1:	a8 01                	test   $0x1,%al
   11db3:	75 59                	jne    11e0e <debug.panicExtra__anon_1139+0x1ee>
   11db5:	eb 59                	jmp    11e10 <debug.panicExtra__anon_1139+0x1f0>
   11db7:	eb d2                	jmp    11d8b <debug.panicExtra__anon_1139+0x16b>
   11db9:	ba 0f 10 00 00       	mov    $0x100f,%edx
   11dbe:	89 d1                	mov    %edx,%ecx
   11dc0:	e8 0b fb ff ff       	call   118d0 <builtin.panicOutOfBounds>
   11dc5:	8b 85 30 ef ff ff    	mov    -0x10d0(%ebp),%eax
   11dcb:	8b 8d 18 ef ff ff    	mov    -0x10e8(%ebp),%ecx
   11dd1:	c7 41 0b 74 65 64 29 	movl   $0x29646574,0xb(%ecx)
   11dd8:	c7 41 08 6e 63 61 74 	movl   $0x7461636e,0x8(%ecx)
   11ddf:	c7 41 04 20 74 72 75 	movl   $0x75727420,0x4(%ecx)
   11de6:	c7 01 28 6d 73 67    	movl   $0x67736d28,(%ecx)
   11dec:	89 85 bc ef ff ff    	mov    %eax,-0x1044(%ebp)
   11df2:	b8 0f 10 00 00       	mov    $0x100f,%eax
   11df7:	8d 8d cd ef ff ff    	lea    -0x1033(%ebp),%ecx
   11dfd:	89 8d 20 ef ff ff    	mov    %ecx,-0x10e0(%ebp)
   11e03:	89 85 1c ef ff ff    	mov    %eax,-0x10e4(%ebp)
   11e09:	e9 f2 fe ff ff       	jmp    11d00 <debug.panicExtra__anon_1139+0xe0>
   11e0e:	eb b5                	jmp    11dc5 <debug.panicExtra__anon_1139+0x1a5>
   11e10:	b9 8b bd 03 00       	mov    $0x3bd8b,%ecx
   11e15:	ba 17 00 00 00       	mov    $0x17,%edx
   11e1a:	31 c0                	xor    %eax,%eax
   11e1c:	8d 05 48 b8 03 00    	lea    0x3b848,%eax
   11e22:	c7 04 24 00 00 00 00 	movl   $0x0,(%esp)
   11e29:	89 44 24 04          	mov    %eax,0x4(%esp)
   11e2d:	e8 ee f9 ff ff       	call   11820 <builtin.default_panic>
   11e32:	66 2e 0f 1f 84 00 00 	nopw   %cs:0x0(%eax,%eax,1)
   11e39:	00 00 00 
   11e3c:	0f 1f 40 00          	nopl   0x0(%eax)

00011e40 <debug.panicExtra__anon_1140>:
   11e40:	55                   	push   %ebp
   11e41:	89 e5                	mov    %esp,%ebp
   11e43:	57                   	push   %edi
   11e44:	56                   	push   %esi
   11e45:	b8 ec 10 00 00       	mov    $0x10ec,%eax
   11e4a:	e8 91 80 02 00       	call   39ee0 <__zig_probe_stack>
   11e4f:	29 c4                	sub    %eax,%esp
   11e51:	89 95 24 ef ff ff    	mov    %edx,-0x10dc(%ebp)
   11e57:	89 8d 28 ef ff ff    	mov    %ecx,-0x10d8(%ebp)
   11e5d:	8b 45 08             	mov    0x8(%ebp),%eax
   11e60:	89 85 2c ef ff ff    	mov    %eax,-0x10d4(%ebp)
   11e66:	89 8d 38 ef ff ff    	mov    %ecx,-0x10c8(%ebp)
   11e6c:	8d 85 3c ef ff ff    	lea    -0x10c4(%ebp),%eax
   11e72:	89 85 c0 ef ff ff    	mov    %eax,-0x1040(%ebp)
   11e78:	c7 85 c4 ef ff ff 20 	movl   $0x20,-0x103c(%ebp)
   11e7f:	00 00 00 
   11e82:	c7 85 bc ef ff ff 00 	movl   $0x0,-0x1044(%ebp)
   11e89:	00 00 00 
   11e8c:	8b 85 bc ef ff ff    	mov    -0x1044(%ebp),%eax
   11e92:	89 85 30 ef ff ff    	mov    %eax,-0x10d0(%ebp)
   11e98:	8d 05 c6 bc 03 00    	lea    0x3bcc6,%eax
   11e9e:	89 85 c8 ef ff ff    	mov    %eax,-0x1038(%ebp)
   11ea4:	8d 85 cd ef ff ff    	lea    -0x1033(%ebp),%eax
   11eaa:	89 04 24             	mov    %eax,(%esp)
   11ead:	c7 44 24 04 aa 00 00 	movl   $0xaa,0x4(%esp)
   11eb4:	00 
   11eb5:	c7 44 24 08 0f 10 00 	movl   $0x100f,0x8(%esp)
   11ebc:	00 
   11ebd:	e8 3e 81 02 00       	call   3a000 <memset>
   11ec2:	8d 85 cd ef ff ff    	lea    -0x1033(%ebp),%eax
   11ec8:	89 85 34 ef ff ff    	mov    %eax,-0x10cc(%ebp)
   11ece:	b8 00 10 00 00       	mov    $0x1000,%eax
   11ed3:	3d 0f 10 00 00       	cmp    $0x100f,%eax
   11ed8:	76 35                	jbe    11f0f <debug.panicExtra__anon_1140+0xcf>
   11eda:	eb 35                	jmp    11f11 <debug.panicExtra__anon_1140+0xd1>
   11edc:	8b 85 2c ef ff ff    	mov    -0x10d4(%ebp),%eax
   11ee2:	8b bd 34 ef ff ff    	mov    -0x10cc(%ebp),%edi
   11ee8:	be 00 10 00 00       	mov    $0x1000,%esi
   11eed:	8d 4d dc             	lea    -0x24(%ebp),%ecx
   11ef0:	8d 95 bc ef ff ff    	lea    -0x1044(%ebp),%edx
   11ef6:	89 3c 24             	mov    %edi,(%esp)
   11ef9:	89 74 24 04          	mov    %esi,0x4(%esp)
   11efd:	89 44 24 08          	mov    %eax,0x8(%esp)
   11f01:	e8 6a 07 00 00       	call   12670 <fmt.bufPrint__anon_1757>
   11f06:	66 83 7d e4 00       	cmpw   $0x0,-0x1c(%ebp)
   11f0b:	74 49                	je     11f56 <debug.panicExtra__anon_1140+0x116>
   11f0d:	eb 5b                	jmp    11f6a <debug.panicExtra__anon_1140+0x12a>
   11f0f:	eb cb                	jmp    11edc <debug.panicExtra__anon_1140+0x9c>
   11f11:	b9 00 10 00 00       	mov    $0x1000,%ecx
   11f16:	ba 0f 10 00 00       	mov    $0x100f,%edx
   11f1b:	e8 b0 f9 ff ff       	call   118d0 <builtin.panicOutOfBounds>
   11f20:	8b 85 24 ef ff ff    	mov    -0x10dc(%ebp),%eax
   11f26:	8b b5 28 ef ff ff    	mov    -0x10d8(%ebp),%esi
   11f2c:	8b 8d 20 ef ff ff    	mov    -0x10e0(%ebp),%ecx
   11f32:	8b 95 1c ef ff ff    	mov    -0x10e4(%ebp),%edx
   11f38:	89 4d e8             	mov    %ecx,-0x18(%ebp)
   11f3b:	89 55 ec             	mov    %edx,-0x14(%ebp)
   11f3e:	89 55 f4             	mov    %edx,-0xc(%ebp)
   11f41:	89 4d f0             	mov    %ecx,-0x10(%ebp)
   11f44:	8b 4d f0             	mov    -0x10(%ebp),%ecx
   11f47:	8b 55 f4             	mov    -0xc(%ebp),%edx
   11f4a:	89 34 24             	mov    %esi,(%esp)
   11f4d:	89 44 24 04          	mov    %eax,0x4(%esp)
   11f51:	e8 ca f8 ff ff       	call   11820 <builtin.default_panic>
   11f56:	8b 4d dc             	mov    -0x24(%ebp),%ecx
   11f59:	8b 45 e0             	mov    -0x20(%ebp),%eax
   11f5c:	89 8d 20 ef ff ff    	mov    %ecx,-0x10e0(%ebp)
   11f62:	89 85 1c ef ff ff    	mov    %eax,-0x10e4(%ebp)
   11f68:	eb b6                	jmp    11f20 <debug.panicExtra__anon_1140+0xe0>
   11f6a:	66 8b 45 e4          	mov    -0x1c(%ebp),%ax
   11f6e:	66 83 e8 01          	sub    $0x1,%ax
   11f72:	74 24                	je     11f98 <debug.panicExtra__anon_1140+0x158>
   11f74:	eb 00                	jmp    11f76 <debug.panicExtra__anon_1140+0x136>
   11f76:	b9 ff bd 03 00       	mov    $0x3bdff,%ecx
   11f7b:	ba 17 00 00 00       	mov    $0x17,%edx
   11f80:	31 c0                	xor    %eax,%eax
   11f82:	8d 05 48 b8 03 00    	lea    0x3b848,%eax
   11f88:	c7 04 24 00 00 00 00 	movl   $0x0,(%esp)
   11f8f:	89 44 24 04          	mov    %eax,0x4(%esp)
   11f93:	e8 88 f8 ff ff       	call   11820 <builtin.default_panic>
   11f98:	8d 85 cd ef ff ff    	lea    -0x1033(%ebp),%eax
   11f9e:	05 00 10 00 00       	add    $0x1000,%eax
   11fa3:	89 85 18 ef ff ff    	mov    %eax,-0x10e8(%ebp)
   11fa9:	eb 2c                	jmp    11fd7 <debug.panicExtra__anon_1140+0x197>
   11fab:	8b 85 18 ef ff ff    	mov    -0x10e8(%ebp),%eax
   11fb1:	89 c2                	mov    %eax,%edx
   11fb3:	83 c2 0f             	add    $0xf,%edx
   11fb6:	8d 0d c6 bc 03 00    	lea    0x3bcc6,%ecx
   11fbc:	83 c1 0f             	add    $0xf,%ecx
   11fbf:	39 c8                	cmp    %ecx,%eax
   11fc1:	0f 93 c0             	setae  %al
   11fc4:	8d 0d c6 bc 03 00    	lea    0x3bcc6,%ecx
   11fca:	39 d1                	cmp    %edx,%ecx
   11fcc:	0f 93 c1             	setae  %cl
   11fcf:	08 c8                	or     %cl,%al
   11fd1:	a8 01                	test   $0x1,%al
   11fd3:	75 59                	jne    1202e <debug.panicExtra__anon_1140+0x1ee>
   11fd5:	eb 59                	jmp    12030 <debug.panicExtra__anon_1140+0x1f0>
   11fd7:	eb d2                	jmp    11fab <debug.panicExtra__anon_1140+0x16b>
   11fd9:	ba 0f 10 00 00       	mov    $0x100f,%edx
   11fde:	89 d1                	mov    %edx,%ecx
   11fe0:	e8 eb f8 ff ff       	call   118d0 <builtin.panicOutOfBounds>
   11fe5:	8b 85 30 ef ff ff    	mov    -0x10d0(%ebp),%eax
   11feb:	8b 8d 18 ef ff ff    	mov    -0x10e8(%ebp),%ecx
   11ff1:	c7 41 0b 74 65 64 29 	movl   $0x29646574,0xb(%ecx)
   11ff8:	c7 41 08 6e 63 61 74 	movl   $0x7461636e,0x8(%ecx)
   11fff:	c7 41 04 20 74 72 75 	movl   $0x75727420,0x4(%ecx)
   12006:	c7 01 28 6d 73 67    	movl   $0x67736d28,(%ecx)
   1200c:	89 85 bc ef ff ff    	mov    %eax,-0x1044(%ebp)
   12012:	b8 0f 10 00 00       	mov    $0x100f,%eax
   12017:	8d 8d cd ef ff ff    	lea    -0x1033(%ebp),%ecx
   1201d:	89 8d 20 ef ff ff    	mov    %ecx,-0x10e0(%ebp)
   12023:	89 85 1c ef ff ff    	mov    %eax,-0x10e4(%ebp)
   12029:	e9 f2 fe ff ff       	jmp    11f20 <debug.panicExtra__anon_1140+0xe0>
   1202e:	eb b5                	jmp    11fe5 <debug.panicExtra__anon_1140+0x1a5>
   12030:	b9 8b bd 03 00       	mov    $0x3bd8b,%ecx
   12035:	ba 17 00 00 00       	mov    $0x17,%edx
   1203a:	31 c0                	xor    %eax,%eax
   1203c:	8d 05 48 b8 03 00    	lea    0x3b848,%eax
   12042:	c7 04 24 00 00 00 00 	movl   $0x0,(%esp)
   12049:	89 44 24 04          	mov    %eax,0x4(%esp)
   1204d:	e8 ce f7 ff ff       	call   11820 <builtin.default_panic>
   12052:	66 2e 0f 1f 84 00 00 	nopw   %cs:0x0(%eax,%eax,1)
   12059:	00 00 00 
   1205c:	0f 1f 40 00          	nopl   0x0(%eax)

00012060 <fmt.format__anon_1273>:
   12060:	55                   	push   %ebp
   12061:	89 e5                	mov    %esp,%ebp
   12063:	56                   	push   %esi
   12064:	83 ec 24             	sub    $0x24,%esp
   12067:	89 55 e4             	mov    %edx,-0x1c(%ebp)
   1206a:	89 4d e8             	mov    %ecx,-0x18(%ebp)
   1206d:	f2 0f 10 02          	movsd  (%edx),%xmm0
   12071:	f2 0f 11 45 f0       	movsd  %xmm0,-0x10(%ebp)
   12076:	be 0c bd 03 00       	mov    $0x3bd0c,%esi
   1207b:	b8 0d 00 00 00       	mov    $0xd,%eax
   12080:	8d 55 f0             	lea    -0x10(%ebp),%edx
   12083:	89 34 24             	mov    %esi,(%esp)
   12086:	89 44 24 04          	mov    %eax,0x4(%esp)
   1208a:	e8 71 00 00 00       	call   12100 <io.Writer.writeAll>
   1208f:	66 89 45 ee          	mov    %ax,-0x12(%ebp)
   12093:	66 83 f8 00          	cmp    $0x0,%ax
   12097:	75 0a                	jne    120a3 <fmt.format__anon_1273+0x43>
   12099:	eb 1a                	jmp    120b5 <fmt.format__anon_1273+0x55>
   1209b:	31 c0                	xor    %eax,%eax
   1209d:	83 c4 24             	add    $0x24,%esp
   120a0:	5e                   	pop    %esi
   120a1:	5d                   	pop    %ebp
   120a2:	c3                   	ret
   120a3:	8b 4d e8             	mov    -0x18(%ebp),%ecx
   120a6:	e8 a5 01 00 00       	call   12250 <builtin.returnError>
   120ab:	66 8b 45 ee          	mov    -0x12(%ebp),%ax
   120af:	83 c4 24             	add    $0x24,%esp
   120b2:	5e                   	pop    %esi
   120b3:	5d                   	pop    %ebp
   120b4:	c3                   	ret
   120b5:	8b 45 e4             	mov    -0x1c(%ebp),%eax
   120b8:	8b 4d e8             	mov    -0x18(%ebp),%ecx
   120bb:	c7 45 f8 00 00 00 00 	movl   $0x0,-0x8(%ebp)
   120c2:	8d 15 68 b1 03 00    	lea    0x3b168,%edx
   120c8:	89 04 24             	mov    %eax,(%esp)
   120cb:	c7 44 24 04 03 00 00 	movl   $0x3,0x4(%esp)
   120d2:	00 
   120d3:	e8 38 02 00 00       	call   12310 <fmt.formatType__anon_1755>
   120d8:	66 89 45 e2          	mov    %ax,-0x1e(%ebp)
   120dc:	66 83 f8 00          	cmp    $0x0,%ax
   120e0:	74 12                	je     120f4 <fmt.format__anon_1273+0x94>
   120e2:	8b 4d e8             	mov    -0x18(%ebp),%ecx
   120e5:	e8 66 01 00 00       	call   12250 <builtin.returnError>
   120ea:	66 8b 45 e2          	mov    -0x1e(%ebp),%ax
   120ee:	83 c4 24             	add    $0x24,%esp
   120f1:	5e                   	pop    %esi
   120f2:	5d                   	pop    %ebp
   120f3:	c3                   	ret
   120f4:	eb a5                	jmp    1209b <fmt.format__anon_1273+0x3b>
   120f6:	66 2e 0f 1f 84 00 00 	nopw   %cs:0x0(%eax,%eax,1)
   120fd:	00 00 00 

00012100 <io.Writer.writeAll>:
   12100:	55                   	push   %ebp
   12101:	89 e5                	mov    %esp,%ebp
   12103:	57                   	push   %edi
   12104:	56                   	push   %esi
   12105:	83 ec 64             	sub    $0x64,%esp
   12108:	89 55 bc             	mov    %edx,-0x44(%ebp)
   1210b:	89 4d c0             	mov    %ecx,-0x40(%ebp)
   1210e:	8b 4d 0c             	mov    0xc(%ebp),%ecx
   12111:	8b 45 08             	mov    0x8(%ebp),%eax
   12114:	89 ca                	mov    %ecx,%edx
   12116:	89 55 c4             	mov    %edx,-0x3c(%ebp)
   12119:	89 c2                	mov    %eax,%edx
   1211b:	89 55 c8             	mov    %edx,-0x38(%ebp)
   1211e:	89 4d d0             	mov    %ecx,-0x30(%ebp)
   12121:	89 45 cc             	mov    %eax,-0x34(%ebp)
   12124:	c7 45 d4 00 00 00 00 	movl   $0x0,-0x2c(%ebp)
   1212b:	eb 09                	jmp    12136 <io.Writer.writeAll+0x36>
   1212d:	31 c0                	xor    %eax,%eax
   1212f:	83 c4 64             	add    $0x64,%esp
   12132:	5e                   	pop    %esi
   12133:	5f                   	pop    %edi
   12134:	5d                   	pop    %ebp
   12135:	c3                   	ret
   12136:	8b 4d c4             	mov    -0x3c(%ebp),%ecx
   12139:	8b 45 d4             	mov    -0x2c(%ebp),%eax
   1213c:	39 c8                	cmp    %ecx,%eax
   1213e:	75 04                	jne    12144 <io.Writer.writeAll+0x44>
   12140:	eb 44                	jmp    12186 <io.Writer.writeAll+0x86>
   12142:	eb f2                	jmp    12136 <io.Writer.writeAll+0x36>
   12144:	8b 45 c8             	mov    -0x38(%ebp),%eax
   12147:	8b 4d c4             	mov    -0x3c(%ebp),%ecx
   1214a:	8b 55 bc             	mov    -0x44(%ebp),%edx
   1214d:	8b 75 d4             	mov    -0x2c(%ebp),%esi
   12150:	89 75 ac             	mov    %esi,-0x54(%ebp)
   12153:	f2 0f 10 02          	movsd  (%edx),%xmm0
   12157:	f2 0f 11 45 d8       	movsd  %xmm0,-0x28(%ebp)
   1215c:	f2 0f 10 45 d8       	movsd  -0x28(%ebp),%xmm0
   12161:	f2 0f 11 45 e0       	movsd  %xmm0,-0x20(%ebp)
   12166:	89 4d ec             	mov    %ecx,-0x14(%ebp)
   12169:	89 45 e8             	mov    %eax,-0x18(%ebp)
   1216c:	8b 45 d4             	mov    -0x2c(%ebp),%eax
   1216f:	89 45 b0             	mov    %eax,-0x50(%ebp)
   12172:	8b 55 e8             	mov    -0x18(%ebp),%edx
   12175:	8b 4d ec             	mov    -0x14(%ebp),%ecx
   12178:	89 4d b4             	mov    %ecx,-0x4c(%ebp)
   1217b:	01 c2                	add    %eax,%edx
   1217d:	89 55 b8             	mov    %edx,-0x48(%ebp)
   12180:	39 c8                	cmp    %ecx,%eax
   12182:	76 17                	jbe    1219b <io.Writer.writeAll+0x9b>
   12184:	eb 17                	jmp    1219d <io.Writer.writeAll+0x9d>
   12186:	eb a5                	jmp    1212d <io.Writer.writeAll+0x2d>
   12188:	8b 45 b4             	mov    -0x4c(%ebp),%eax
   1218b:	8b 55 b0             	mov    -0x50(%ebp),%edx
   1218e:	89 c1                	mov    %eax,%ecx
   12190:	29 d1                	sub    %edx,%ecx
   12192:	89 4d a8             	mov    %ecx,-0x58(%ebp)
   12195:	39 c0                	cmp    %eax,%eax
   12197:	76 1b                	jbe    121b4 <io.Writer.writeAll+0xb4>
   12199:	eb 1b                	jmp    121b6 <io.Writer.writeAll+0xb6>
   1219b:	eb eb                	jmp    12188 <io.Writer.writeAll+0x88>
   1219d:	8b 55 b4             	mov    -0x4c(%ebp),%edx
   121a0:	8b 4d b0             	mov    -0x50(%ebp),%ecx
   121a3:	e8 f8 f6 ff ff       	call   118a0 <builtin.panicStartGreaterThanEnd>
   121a8:	8b 45 b0             	mov    -0x50(%ebp),%eax
   121ab:	8b 4d b4             	mov    -0x4c(%ebp),%ecx
   121ae:	39 c8                	cmp    %ecx,%eax
   121b0:	76 36                	jbe    121e8 <io.Writer.writeAll+0xe8>
   121b2:	eb 36                	jmp    121ea <io.Writer.writeAll+0xea>
   121b4:	eb f2                	jmp    121a8 <io.Writer.writeAll+0xa8>
   121b6:	8b 55 b4             	mov    -0x4c(%ebp),%edx
   121b9:	89 d1                	mov    %edx,%ecx
   121bb:	e8 10 f7 ff ff       	call   118d0 <builtin.panicOutOfBounds>
   121c0:	8b 55 c0             	mov    -0x40(%ebp),%edx
   121c3:	8b 75 b8             	mov    -0x48(%ebp),%esi
   121c6:	8b 45 a8             	mov    -0x58(%ebp),%eax
   121c9:	8d 4d f0             	lea    -0x10(%ebp),%ecx
   121cc:	8d 7d e0             	lea    -0x20(%ebp),%edi
   121cf:	89 3c 24             	mov    %edi,(%esp)
   121d2:	89 74 24 04          	mov    %esi,0x4(%esp)
   121d6:	89 44 24 08          	mov    %eax,0x8(%esp)
   121da:	e8 81 08 00 00       	call   12a60 <io.Writer.write>
   121df:	66 83 7d f4 00       	cmpw   $0x0,-0xc(%ebp)
   121e4:	75 0f                	jne    121f5 <io.Writer.writeAll+0xf5>
   121e6:	eb 28                	jmp    12210 <io.Writer.writeAll+0x110>
   121e8:	eb d6                	jmp    121c0 <io.Writer.writeAll+0xc0>
   121ea:	8b 55 b4             	mov    -0x4c(%ebp),%edx
   121ed:	8b 4d b0             	mov    -0x50(%ebp),%ecx
   121f0:	e8 db f6 ff ff       	call   118d0 <builtin.panicOutOfBounds>
   121f5:	8b 4d c0             	mov    -0x40(%ebp),%ecx
   121f8:	66 8b 45 f4          	mov    -0xc(%ebp),%ax
   121fc:	66 89 45 a6          	mov    %ax,-0x5a(%ebp)
   12200:	e8 4b 00 00 00       	call   12250 <builtin.returnError>
   12205:	66 8b 45 a6          	mov    -0x5a(%ebp),%ax
   12209:	83 c4 64             	add    $0x64,%esp
   1220c:	5e                   	pop    %esi
   1220d:	5f                   	pop    %edi
   1220e:	5d                   	pop    %ebp
   1220f:	c3                   	ret
   12210:	8b 45 ac             	mov    -0x54(%ebp),%eax
   12213:	03 45 f0             	add    -0x10(%ebp),%eax
   12216:	89 45 a0             	mov    %eax,-0x60(%ebp)
   12219:	0f 92 c0             	setb   %al
   1221c:	72 02                	jb     12220 <io.Writer.writeAll+0x120>
   1221e:	eb 23                	jmp    12243 <io.Writer.writeAll+0x143>
   12220:	8d 0d 3b bc 03 00    	lea    0x3bc3b,%ecx
   12226:	ba 10 00 00 00       	mov    $0x10,%edx
   1222b:	31 c0                	xor    %eax,%eax
   1222d:	8d 05 48 b8 03 00    	lea    0x3b848,%eax
   12233:	c7 04 24 00 00 00 00 	movl   $0x0,(%esp)
   1223a:	89 44 24 04          	mov    %eax,0x4(%esp)
   1223e:	e8 dd f5 ff ff       	call   11820 <builtin.default_panic>
   12243:	8b 45 a0             	mov    -0x60(%ebp),%eax
   12246:	89 45 d4             	mov    %eax,-0x2c(%ebp)
   12249:	e9 f4 fe ff ff       	jmp    12142 <io.Writer.writeAll+0x42>
   1224e:	66 90                	xchg   %ax,%ax

00012250 <builtin.returnError>:
   12250:	55                   	push   %ebp
   12251:	89 e5                	mov    %esp,%ebp
   12253:	83 ec 38             	sub    $0x38,%esp
   12256:	89 4d e4             	mov    %ecx,-0x1c(%ebp)
   12259:	89 4d ec             	mov    %ecx,-0x14(%ebp)
   1225c:	8b 45 04             	mov    0x4(%ebp),%eax
   1225f:	89 45 e8             	mov    %eax,-0x18(%ebp)
   12262:	89 4d f0             	mov    %ecx,-0x10(%ebp)
   12265:	89 45 f4             	mov    %eax,-0xc(%ebp)
   12268:	8b 01                	mov    (%ecx),%eax
   1226a:	8b 51 04             	mov    0x4(%ecx),%edx
   1226d:	8b 49 08             	mov    0x8(%ecx),%ecx
   12270:	39 c8                	cmp    %ecx,%eax
   12272:	72 22                	jb     12296 <builtin.returnError+0x46>
   12274:	eb 40                	jmp    122b6 <builtin.returnError+0x66>
   12276:	83 c4 38             	add    $0x38,%esp
   12279:	5d                   	pop    %ebp
   1227a:	c3                   	ret
   1227b:	8b 45 e4             	mov    -0x1c(%ebp),%eax
   1227e:	89 45 fc             	mov    %eax,-0x4(%ebp)
   12281:	8b 45 fc             	mov    -0x4(%ebp),%eax
   12284:	89 45 dc             	mov    %eax,-0x24(%ebp)
   12287:	8b 00                	mov    (%eax),%eax
   12289:	83 c0 01             	add    $0x1,%eax
   1228c:	89 45 e0             	mov    %eax,-0x20(%ebp)
   1228f:	0f 92 c0             	setb   %al
   12292:	72 3f                	jb     122d3 <builtin.returnError+0x83>
   12294:	eb 60                	jmp    122f6 <builtin.returnError+0xa6>
   12296:	8b 45 e4             	mov    -0x1c(%ebp),%eax
   12299:	89 45 f8             	mov    %eax,-0x8(%ebp)
   1229c:	8b 4d f8             	mov    -0x8(%ebp),%ecx
   1229f:	8b 00                	mov    (%eax),%eax
   122a1:	89 45 d0             	mov    %eax,-0x30(%ebp)
   122a4:	8b 51 04             	mov    0x4(%ecx),%edx
   122a7:	89 55 d4             	mov    %edx,-0x2c(%ebp)
   122aa:	8b 49 08             	mov    0x8(%ecx),%ecx
   122ad:	89 4d d8             	mov    %ecx,-0x28(%ebp)
   122b0:	39 c8                	cmp    %ecx,%eax
   122b2:	72 12                	jb     122c6 <builtin.returnError+0x76>
   122b4:	eb 12                	jmp    122c8 <builtin.returnError+0x78>
   122b6:	eb c3                	jmp    1227b <builtin.returnError+0x2b>
   122b8:	8b 45 d4             	mov    -0x2c(%ebp),%eax
   122bb:	8b 4d d0             	mov    -0x30(%ebp),%ecx
   122be:	8b 55 e8             	mov    -0x18(%ebp),%edx
   122c1:	89 14 88             	mov    %edx,(%eax,%ecx,4)
   122c4:	eb b5                	jmp    1227b <builtin.returnError+0x2b>
   122c6:	eb f0                	jmp    122b8 <builtin.returnError+0x68>
   122c8:	8b 55 d8             	mov    -0x28(%ebp),%edx
   122cb:	8b 4d d0             	mov    -0x30(%ebp),%ecx
   122ce:	e8 fd f5 ff ff       	call   118d0 <builtin.panicOutOfBounds>
   122d3:	8d 0d 3b bc 03 00    	lea    0x3bc3b,%ecx
   122d9:	ba 10 00 00 00       	mov    $0x10,%edx
   122de:	31 c0                	xor    %eax,%eax
   122e0:	8d 05 48 b8 03 00    	lea    0x3b848,%eax
   122e6:	c7 04 24 00 00 00 00 	movl   $0x0,(%esp)
   122ed:	89 44 24 04          	mov    %eax,0x4(%esp)
   122f1:	e8 2a f5 ff ff       	call   11820 <builtin.default_panic>
   122f6:	8b 45 dc             	mov    -0x24(%ebp),%eax
   122f9:	8b 4d e0             	mov    -0x20(%ebp),%ecx
   122fc:	89 08                	mov    %ecx,(%eax)
   122fe:	e9 73 ff ff ff       	jmp    12276 <builtin.returnError+0x26>
   12303:	66 2e 0f 1f 84 00 00 	nopw   %cs:0x0(%eax,%eax,1)
   1230a:	00 00 00 
   1230d:	0f 1f 00             	nopl   (%eax)

00012310 <fmt.formatType__anon_1755>:
   12310:	55                   	push   %ebp
   12311:	89 e5                	mov    %esp,%ebp
   12313:	83 ec 2c             	sub    $0x2c,%esp
   12316:	89 55 dc             	mov    %edx,-0x24(%ebp)
   12319:	89 4d e0             	mov    %ecx,-0x20(%ebp)
   1231c:	8b 45 0c             	mov    0xc(%ebp),%eax
   1231f:	8b 45 08             	mov    0x8(%ebp),%eax
   12322:	89 45 e4             	mov    %eax,-0x1c(%ebp)
   12325:	c7 45 ec 01 00 00 00 	movl   $0x1,-0x14(%ebp)
   1232c:	c7 45 e8 30 b1 03 00 	movl   $0x3b130,-0x18(%ebp)
   12333:	c7 45 f4 06 00 00 00 	movl   $0x6,-0xc(%ebp)
   1233a:	c7 45 f0 75 bd 03 00 	movl   $0x3bd75,-0x10(%ebp)
   12341:	c7 45 fc 06 00 00 00 	movl   $0x6,-0x4(%ebp)
   12348:	c7 45 f8 75 bd 03 00 	movl   $0x3bd75,-0x8(%ebp)
   1234f:	eb 1d                	jmp    1236e <fmt.formatType__anon_1755+0x5e>
   12351:	8b 45 e4             	mov    -0x1c(%ebp),%eax
   12354:	8b 55 dc             	mov    -0x24(%ebp),%edx
   12357:	8b 4d e0             	mov    -0x20(%ebp),%ecx
   1235a:	89 04 24             	mov    %eax,(%esp)
   1235d:	e8 8e 07 00 00       	call   12af0 <fmt.formatValue__anon_2002>
   12362:	66 89 45 da          	mov    %ax,-0x26(%ebp)
   12366:	66 83 f8 00          	cmp    $0x0,%ax
   1236a:	74 04                	je     12370 <fmt.formatType__anon_1755+0x60>
   1236c:	eb 0b                	jmp    12379 <fmt.formatType__anon_1755+0x69>
   1236e:	eb e1                	jmp    12351 <fmt.formatType__anon_1755+0x41>
   12370:	66 8b 45 da          	mov    -0x26(%ebp),%ax
   12374:	83 c4 2c             	add    $0x2c,%esp
   12377:	5d                   	pop    %ebp
   12378:	c3                   	ret
   12379:	8b 4d e0             	mov    -0x20(%ebp),%ecx
   1237c:	e8 cf fe ff ff       	call   12250 <builtin.returnError>
   12381:	66 8b 45 da          	mov    -0x26(%ebp),%ax
   12385:	83 c4 2c             	add    $0x2c,%esp
   12388:	5d                   	pop    %ebp
   12389:	c3                   	ret
   1238a:	66 0f 1f 44 00 00    	nopw   0x0(%eax,%eax,1)

00012390 <io.fixed_buffer_stream.fixedBufferStream__anon_1240>:
   12390:	55                   	push   %ebp
   12391:	89 e5                	mov    %esp,%ebp
   12393:	56                   	push   %esi
   12394:	83 ec 08             	sub    $0x8,%esp
   12397:	89 c8                	mov    %ecx,%eax
   12399:	8b 75 08             	mov    0x8(%ebp),%esi
   1239c:	89 75 f8             	mov    %esi,-0x8(%ebp)
   1239f:	89 55 f4             	mov    %edx,-0xc(%ebp)
   123a2:	89 71 04             	mov    %esi,0x4(%ecx)
   123a5:	89 11                	mov    %edx,(%ecx)
   123a7:	c7 41 08 00 00 00 00 	movl   $0x0,0x8(%ecx)
   123ae:	83 c4 08             	add    $0x8,%esp
   123b1:	5e                   	pop    %esi
   123b2:	5d                   	pop    %ebp
   123b3:	c3                   	ret
   123b4:	66 2e 0f 1f 84 00 00 	nopw   %cs:0x0(%eax,%eax,1)
   123bb:	00 00 00 
   123be:	66 90                	xchg   %ax,%ax

000123c0 <io.fixed_buffer_stream.FixedBufferStream([]u8).writer>:
   123c0:	55                   	push   %ebp
   123c1:	89 e5                	mov    %esp,%ebp
   123c3:	50                   	push   %eax
   123c4:	89 c8                	mov    %ecx,%eax
   123c6:	89 55 fc             	mov    %edx,-0x4(%ebp)
   123c9:	89 11                	mov    %edx,(%ecx)
   123cb:	83 c4 04             	add    $0x4,%esp
   123ce:	5d                   	pop    %ebp
   123cf:	c3                   	ret

000123d0 <io.GenericWriter(*io.fixed_buffer_stream.FixedBufferStream([]u8),error{NoSpaceLeft},(function 'write')).typeErasedWriteFn>:
   123d0:	55                   	push   %ebp
   123d1:	89 e5                	mov    %esp,%ebp
   123d3:	57                   	push   %edi
   123d4:	56                   	push   %esi
   123d5:	83 ec 38             	sub    $0x38,%esp
   123d8:	89 55 cc             	mov    %edx,-0x34(%ebp)
   123db:	89 4d d0             	mov    %ecx,-0x30(%ebp)
   123de:	89 4d d4             	mov    %ecx,-0x2c(%ebp)
   123e1:	8b 55 10             	mov    0x10(%ebp),%edx
   123e4:	8b 4d 0c             	mov    0xc(%ebp),%ecx
   123e7:	8b 45 08             	mov    0x8(%ebp),%eax
   123ea:	89 45 d8             	mov    %eax,-0x28(%ebp)
   123ed:	89 d6                	mov    %edx,%esi
   123ef:	89 75 dc             	mov    %esi,-0x24(%ebp)
   123f2:	89 ce                	mov    %ecx,%esi
   123f4:	89 75 e0             	mov    %esi,-0x20(%ebp)
   123f7:	89 55 e8             	mov    %edx,-0x18(%ebp)
   123fa:	89 4d e4             	mov    %ecx,-0x1c(%ebp)
   123fd:	83 e0 03             	and    $0x3,%eax
   12400:	83 f8 00             	cmp    $0x0,%eax
   12403:	74 2f                	je     12434 <io.GenericWriter(*io.fixed_buffer_stream.FixedBufferStream([]u8),error{NoSpaceLeft},(function 'write')).typeErasedWriteFn+0x64>
   12405:	eb 2f                	jmp    12436 <io.GenericWriter(*io.fixed_buffer_stream.FixedBufferStream([]u8),error{NoSpaceLeft},(function 'write')).typeErasedWriteFn+0x66>
   12407:	8b 45 dc             	mov    -0x24(%ebp),%eax
   1240a:	8b 75 e0             	mov    -0x20(%ebp),%esi
   1240d:	8b 55 cc             	mov    -0x34(%ebp),%edx
   12410:	8b 4d d8             	mov    -0x28(%ebp),%ecx
   12413:	89 4d ec             	mov    %ecx,-0x14(%ebp)
   12416:	8b 39                	mov    (%ecx),%edi
   12418:	8d 4d f0             	lea    -0x10(%ebp),%ecx
   1241b:	89 3c 24             	mov    %edi,(%esp)
   1241e:	89 74 24 04          	mov    %esi,0x4(%esp)
   12422:	89 44 24 08          	mov    %eax,0x8(%esp)
   12426:	e8 65 03 00 00       	call   12790 <io.fixed_buffer_stream.FixedBufferStream([]u8).write>
   1242b:	66 83 7d f4 00       	cmpw   $0x0,-0xc(%ebp)
   12430:	74 26                	je     12458 <io.GenericWriter(*io.fixed_buffer_stream.FixedBufferStream([]u8),error{NoSpaceLeft},(function 'write')).typeErasedWriteFn+0x88>
   12432:	eb 3c                	jmp    12470 <io.GenericWriter(*io.fixed_buffer_stream.FixedBufferStream([]u8),error{NoSpaceLeft},(function 'write')).typeErasedWriteFn+0xa0>
   12434:	eb d1                	jmp    12407 <io.GenericWriter(*io.fixed_buffer_stream.FixedBufferStream([]u8),error{NoSpaceLeft},(function 'write')).typeErasedWriteFn+0x37>
   12436:	b9 ad bb 03 00       	mov    $0x3bbad,%ecx
   1243b:	ba 13 00 00 00       	mov    $0x13,%edx
   12440:	31 c0                	xor    %eax,%eax
   12442:	8d 05 48 b8 03 00    	lea    0x3b848,%eax
   12448:	c7 04 24 00 00 00 00 	movl   $0x0,(%esp)
   1244f:	89 44 24 04          	mov    %eax,0x4(%esp)
   12453:	e8 c8 f3 ff ff       	call   11820 <builtin.default_panic>
   12458:	8b 45 d4             	mov    -0x2c(%ebp),%eax
   1245b:	8b 4d d0             	mov    -0x30(%ebp),%ecx
   1245e:	8b 55 f0             	mov    -0x10(%ebp),%edx
   12461:	89 11                	mov    %edx,(%ecx)
   12463:	8b 55 f4             	mov    -0xc(%ebp),%edx
   12466:	89 51 04             	mov    %edx,0x4(%ecx)
   12469:	83 c4 38             	add    $0x38,%esp
   1246c:	5e                   	pop    %esi
   1246d:	5f                   	pop    %edi
   1246e:	5d                   	pop    %ebp
   1246f:	c3                   	ret
   12470:	8b 4d cc             	mov    -0x34(%ebp),%ecx
   12473:	e8 d8 fd ff ff       	call   12250 <builtin.returnError>
   12478:	8b 4d d0             	mov    -0x30(%ebp),%ecx
   1247b:	8b 45 d4             	mov    -0x2c(%ebp),%eax
   1247e:	8b 55 f0             	mov    -0x10(%ebp),%edx
   12481:	89 11                	mov    %edx,(%ecx)
   12483:	8b 55 f4             	mov    -0xc(%ebp),%edx
   12486:	89 51 04             	mov    %edx,0x4(%ecx)
   12489:	83 c4 38             	add    $0x38,%esp
   1248c:	5e                   	pop    %esi
   1248d:	5f                   	pop    %edi
   1248e:	5d                   	pop    %ebp
   1248f:	c3                   	ret

00012490 <builtin.panicUnwrapError>:
   12490:	55                   	push   %ebp
   12491:	89 e5                	mov    %esp,%ebp
   12493:	56                   	push   %esi
   12494:	83 ec 1c             	sub    $0x1c,%esp
   12497:	66 89 d0             	mov    %dx,%ax
   1249a:	89 4d e4             	mov    %ecx,-0x1c(%ebp)
   1249d:	66 89 45 ea          	mov    %ax,-0x16(%ebp)
   124a1:	8b 55 04             	mov    0x4(%ebp),%edx
   124a4:	89 55 ec             	mov    %edx,-0x14(%ebp)
   124a7:	c6 45 f0 01          	movb   $0x1,-0x10(%ebp)
   124ab:	8b 15 a4 b1 03 00    	mov    0x3b1a4,%edx
   124b1:	0f bf f0             	movswl %ax,%esi
   124b4:	8b 04 f2             	mov    (%edx,%esi,8),%eax
   124b7:	8b 54 f2 04          	mov    0x4(%edx,%esi,8),%edx
   124bb:	89 55 f8             	mov    %edx,-0x8(%ebp)
   124be:	89 45 f4             	mov    %eax,-0xc(%ebp)
   124c1:	8d 55 ec             	lea    -0x14(%ebp),%edx
   124c4:	8d 45 f4             	lea    -0xc(%ebp),%eax
   124c7:	89 04 24             	mov    %eax,(%esp)
   124ca:	e8 61 06 00 00       	call   12b30 <debug.panicExtra__anon_2003>
   124cf:	90                   	nop

000124d0 <io.fixed_buffer_stream.FixedBufferStream([]u8).getWritten>:
   124d0:	55                   	push   %ebp
   124d1:	89 e5                	mov    %esp,%ebp
   124d3:	83 ec 18             	sub    $0x18,%esp
   124d6:	8b 41 08             	mov    0x8(%ecx),%eax
   124d9:	89 45 fc             	mov    %eax,-0x4(%ebp)
   124dc:	f2 0f 10 01          	movsd  (%ecx),%xmm0
   124e0:	f2 0f 11 45 f4       	movsd  %xmm0,-0xc(%ebp)
   124e5:	8b 49 08             	mov    0x8(%ecx),%ecx
   124e8:	89 4d e8             	mov    %ecx,-0x18(%ebp)
   124eb:	8b 45 f4             	mov    -0xc(%ebp),%eax
   124ee:	89 45 ec             	mov    %eax,-0x14(%ebp)
   124f1:	8b 45 f8             	mov    -0x8(%ebp),%eax
   124f4:	89 45 f0             	mov    %eax,-0x10(%ebp)
   124f7:	31 c0                	xor    %eax,%eax
   124f9:	39 c8                	cmp    %ecx,%eax
   124fb:	76 0e                	jbe    1250b <io.fixed_buffer_stream.FixedBufferStream([]u8).getWritten+0x3b>
   124fd:	eb 0e                	jmp    1250d <io.fixed_buffer_stream.FixedBufferStream([]u8).getWritten+0x3d>
   124ff:	8b 45 e8             	mov    -0x18(%ebp),%eax
   12502:	8b 4d f0             	mov    -0x10(%ebp),%ecx
   12505:	39 c8                	cmp    %ecx,%eax
   12507:	76 19                	jbe    12522 <io.fixed_buffer_stream.FixedBufferStream([]u8).getWritten+0x52>
   12509:	eb 19                	jmp    12524 <io.fixed_buffer_stream.FixedBufferStream([]u8).getWritten+0x54>
   1250b:	eb f2                	jmp    124ff <io.fixed_buffer_stream.FixedBufferStream([]u8).getWritten+0x2f>
   1250d:	8b 55 e8             	mov    -0x18(%ebp),%edx
   12510:	31 c9                	xor    %ecx,%ecx
   12512:	e8 89 f3 ff ff       	call   118a0 <builtin.panicStartGreaterThanEnd>
   12517:	8b 4d e8             	mov    -0x18(%ebp),%ecx
   1251a:	31 c0                	xor    %eax,%eax
   1251c:	39 c8                	cmp    %ecx,%eax
   1251e:	76 1a                	jbe    1253a <io.fixed_buffer_stream.FixedBufferStream([]u8).getWritten+0x6a>
   12520:	eb 1a                	jmp    1253c <io.fixed_buffer_stream.FixedBufferStream([]u8).getWritten+0x6c>
   12522:	eb f3                	jmp    12517 <io.fixed_buffer_stream.FixedBufferStream([]u8).getWritten+0x47>
   12524:	8b 55 f0             	mov    -0x10(%ebp),%edx
   12527:	8b 4d e8             	mov    -0x18(%ebp),%ecx
   1252a:	e8 a1 f3 ff ff       	call   118d0 <builtin.panicOutOfBounds>
   1252f:	8b 55 e8             	mov    -0x18(%ebp),%edx
   12532:	8b 45 ec             	mov    -0x14(%ebp),%eax
   12535:	83 c4 18             	add    $0x18,%esp
   12538:	5d                   	pop    %ebp
   12539:	c3                   	ret
   1253a:	eb f3                	jmp    1252f <io.fixed_buffer_stream.FixedBufferStream([]u8).getWritten+0x5f>
   1253c:	8b 55 e8             	mov    -0x18(%ebp),%edx
   1253f:	31 c9                	xor    %ecx,%ecx
   12541:	e8 8a f3 ff ff       	call   118d0 <builtin.panicOutOfBounds>
   12546:	66 2e 0f 1f 84 00 00 	nopw   %cs:0x0(%eax,%eax,1)
   1254d:	00 00 00 

00012550 <fmt.bufPrint__anon_1756>:
   12550:	55                   	push   %ebp
   12551:	89 e5                	mov    %esp,%ebp
   12553:	56                   	push   %esi
   12554:	83 ec 64             	sub    $0x64,%esp
   12557:	89 55 a4             	mov    %edx,-0x5c(%ebp)
   1255a:	89 4d a8             	mov    %ecx,-0x58(%ebp)
   1255d:	89 4d ac             	mov    %ecx,-0x54(%ebp)
   12560:	8b 45 10             	mov    0x10(%ebp),%eax
   12563:	89 45 b0             	mov    %eax,-0x50(%ebp)
   12566:	8b 75 0c             	mov    0xc(%ebp),%esi
   12569:	8b 4d 08             	mov    0x8(%ebp),%ecx
   1256c:	89 f0                	mov    %esi,%eax
   1256e:	89 ca                	mov    %ecx,%edx
   12570:	89 75 bc             	mov    %esi,-0x44(%ebp)
   12573:	89 4d b8             	mov    %ecx,-0x48(%ebp)
   12576:	8d 4d cc             	lea    -0x34(%ebp),%ecx
   12579:	89 04 24             	mov    %eax,(%esp)
   1257c:	e8 0f fe ff ff       	call   12390 <io.fixed_buffer_stream.fixedBufferStream__anon_1240>
   12581:	8b 45 cc             	mov    -0x34(%ebp),%eax
   12584:	89 45 c0             	mov    %eax,-0x40(%ebp)
   12587:	8b 45 d0             	mov    -0x30(%ebp),%eax
   1258a:	89 45 c4             	mov    %eax,-0x3c(%ebp)
   1258d:	8b 45 d4             	mov    -0x2c(%ebp),%eax
   12590:	89 45 c8             	mov    %eax,-0x38(%ebp)
   12593:	8d 4d d8             	lea    -0x28(%ebp),%ecx
   12596:	8d 55 c0             	lea    -0x40(%ebp),%edx
   12599:	e8 22 fe ff ff       	call   123c0 <io.fixed_buffer_stream.FixedBufferStream([]u8).writer>
   1259e:	8b 45 d8             	mov    -0x28(%ebp),%eax
   125a1:	89 45 dc             	mov    %eax,-0x24(%ebp)
   125a4:	8d 45 dc             	lea    -0x24(%ebp),%eax
   125a7:	89 45 e0             	mov    %eax,-0x20(%ebp)
   125aa:	8d 45 dc             	lea    -0x24(%ebp),%eax
   125ad:	89 45 ec             	mov    %eax,-0x14(%ebp)
   125b0:	8b 45 ec             	mov    -0x14(%ebp),%eax
   125b3:	89 45 e4             	mov    %eax,-0x1c(%ebp)
   125b6:	8d 05 d0 23 01 00    	lea    0x123d0,%eax
   125bc:	89 45 e8             	mov    %eax,-0x18(%ebp)
   125bf:	8d 45 e4             	lea    -0x1c(%ebp),%eax
   125c2:	89 45 b4             	mov    %eax,-0x4c(%ebp)
   125c5:	8b 45 b0             	mov    -0x50(%ebp),%eax
   125c8:	8b 4d a4             	mov    -0x5c(%ebp),%ecx
   125cb:	8b 55 b4             	mov    -0x4c(%ebp),%edx
   125ce:	89 04 24             	mov    %eax,(%esp)
   125d1:	e8 7a 07 00 00       	call   12d50 <fmt.format__anon_2004>
   125d6:	66 89 45 a2          	mov    %ax,-0x5e(%ebp)
   125da:	66 83 f8 00          	cmp    $0x0,%ax
   125de:	74 3d                	je     1261d <fmt.bufPrint__anon_1756+0xcd>
   125e0:	eb 3d                	jmp    1261f <fmt.bufPrint__anon_1756+0xcf>
   125e2:	8d 4d c0             	lea    -0x40(%ebp),%ecx
   125e5:	e8 e6 fe ff ff       	call   124d0 <io.fixed_buffer_stream.FixedBufferStream([]u8).getWritten>
   125ea:	8b 4d a8             	mov    -0x58(%ebp),%ecx
   125ed:	89 c6                	mov    %eax,%esi
   125ef:	8b 45 ac             	mov    -0x54(%ebp),%eax
   125f2:	89 75 9c             	mov    %esi,-0x64(%ebp)
   125f5:	89 d6                	mov    %edx,%esi
   125f7:	8b 55 9c             	mov    -0x64(%ebp),%edx
   125fa:	66 c7 45 f8 00 00    	movw   $0x0,-0x8(%ebp)
   12600:	89 75 f4             	mov    %esi,-0xc(%ebp)
   12603:	89 55 f0             	mov    %edx,-0x10(%ebp)
   12606:	8b 55 f0             	mov    -0x10(%ebp),%edx
   12609:	89 11                	mov    %edx,(%ecx)
   1260b:	8b 55 f4             	mov    -0xc(%ebp),%edx
   1260e:	89 51 04             	mov    %edx,0x4(%ecx)
   12611:	8b 55 f8             	mov    -0x8(%ebp),%edx
   12614:	89 51 08             	mov    %edx,0x8(%ecx)
   12617:	83 c4 64             	add    $0x64,%esp
   1261a:	5e                   	pop    %esi
   1261b:	5d                   	pop    %ebp
   1261c:	c3                   	ret
   1261d:	eb c3                	jmp    125e2 <fmt.bufPrint__anon_1756+0x92>
   1261f:	66 8b 45 a2          	mov    -0x5e(%ebp),%ax
   12623:	66 83 e8 01          	sub    $0x1,%ax
   12627:	74 11                	je     1263a <fmt.bufPrint__anon_1756+0xea>
   12629:	eb 00                	jmp    1262b <fmt.bufPrint__anon_1756+0xdb>
   1262b:	66 8b 45 a2          	mov    -0x5e(%ebp),%ax
   1262f:	8b 4d a4             	mov    -0x5c(%ebp),%ecx
   12632:	0f b7 d0             	movzwl %ax,%edx
   12635:	e8 56 fe ff ff       	call   12490 <builtin.panicUnwrapError>
   1263a:	8b 4d a4             	mov    -0x5c(%ebp),%ecx
   1263d:	e8 0e fc ff ff       	call   12250 <builtin.returnError>
   12642:	8b 4d a8             	mov    -0x58(%ebp),%ecx
   12645:	8b 45 ac             	mov    -0x54(%ebp),%eax
   12648:	8b 15 f4 b1 03 00    	mov    0x3b1f4,%edx
   1264e:	89 11                	mov    %edx,(%ecx)
   12650:	8b 15 f8 b1 03 00    	mov    0x3b1f8,%edx
   12656:	89 51 04             	mov    %edx,0x4(%ecx)
   12659:	8b 15 fc b1 03 00    	mov    0x3b1fc,%edx
   1265f:	89 51 08             	mov    %edx,0x8(%ecx)
   12662:	83 c4 64             	add    $0x64,%esp
   12665:	5e                   	pop    %esi
   12666:	5d                   	pop    %ebp
   12667:	c3                   	ret
   12668:	0f 1f 84 00 00 00 00 	nopl   0x0(%eax,%eax,1)
   1266f:	00 

00012670 <fmt.bufPrint__anon_1757>:
   12670:	55                   	push   %ebp
   12671:	89 e5                	mov    %esp,%ebp
   12673:	56                   	push   %esi
   12674:	83 ec 64             	sub    $0x64,%esp
   12677:	89 55 a4             	mov    %edx,-0x5c(%ebp)
   1267a:	89 4d a8             	mov    %ecx,-0x58(%ebp)
   1267d:	89 4d ac             	mov    %ecx,-0x54(%ebp)
   12680:	8b 45 10             	mov    0x10(%ebp),%eax
   12683:	89 45 b0             	mov    %eax,-0x50(%ebp)
   12686:	8b 75 0c             	mov    0xc(%ebp),%esi
   12689:	8b 4d 08             	mov    0x8(%ebp),%ecx
   1268c:	89 f0                	mov    %esi,%eax
   1268e:	89 ca                	mov    %ecx,%edx
   12690:	89 75 bc             	mov    %esi,-0x44(%ebp)
   12693:	89 4d b8             	mov    %ecx,-0x48(%ebp)
   12696:	8d 4d cc             	lea    -0x34(%ebp),%ecx
   12699:	89 04 24             	mov    %eax,(%esp)
   1269c:	e8 ef fc ff ff       	call   12390 <io.fixed_buffer_stream.fixedBufferStream__anon_1240>
   126a1:	8b 45 cc             	mov    -0x34(%ebp),%eax
   126a4:	89 45 c0             	mov    %eax,-0x40(%ebp)
   126a7:	8b 45 d0             	mov    -0x30(%ebp),%eax
   126aa:	89 45 c4             	mov    %eax,-0x3c(%ebp)
   126ad:	8b 45 d4             	mov    -0x2c(%ebp),%eax
   126b0:	89 45 c8             	mov    %eax,-0x38(%ebp)
   126b3:	8d 4d d8             	lea    -0x28(%ebp),%ecx
   126b6:	8d 55 c0             	lea    -0x40(%ebp),%edx
   126b9:	e8 02 fd ff ff       	call   123c0 <io.fixed_buffer_stream.FixedBufferStream([]u8).writer>
   126be:	8b 45 d8             	mov    -0x28(%ebp),%eax
   126c1:	89 45 dc             	mov    %eax,-0x24(%ebp)
   126c4:	8d 45 dc             	lea    -0x24(%ebp),%eax
   126c7:	89 45 e0             	mov    %eax,-0x20(%ebp)
   126ca:	8d 45 dc             	lea    -0x24(%ebp),%eax
   126cd:	89 45 ec             	mov    %eax,-0x14(%ebp)
   126d0:	8b 45 ec             	mov    -0x14(%ebp),%eax
   126d3:	89 45 e4             	mov    %eax,-0x1c(%ebp)
   126d6:	8d 05 d0 23 01 00    	lea    0x123d0,%eax
   126dc:	89 45 e8             	mov    %eax,-0x18(%ebp)
   126df:	8d 45 e4             	lea    -0x1c(%ebp),%eax
   126e2:	89 45 b4             	mov    %eax,-0x4c(%ebp)
   126e5:	8b 45 b0             	mov    -0x50(%ebp),%eax
   126e8:	8b 4d a4             	mov    -0x5c(%ebp),%ecx
   126eb:	8b 55 b4             	mov    -0x4c(%ebp),%edx
   126ee:	89 04 24             	mov    %eax,(%esp)
   126f1:	e8 2a 08 00 00       	call   12f20 <fmt.format__anon_2006>
   126f6:	66 89 45 a2          	mov    %ax,-0x5e(%ebp)
   126fa:	66 83 f8 00          	cmp    $0x0,%ax
   126fe:	74 3d                	je     1273d <fmt.bufPrint__anon_1757+0xcd>
   12700:	eb 3d                	jmp    1273f <fmt.bufPrint__anon_1757+0xcf>
   12702:	8d 4d c0             	lea    -0x40(%ebp),%ecx
   12705:	e8 c6 fd ff ff       	call   124d0 <io.fixed_buffer_stream.FixedBufferStream([]u8).getWritten>
   1270a:	8b 4d a8             	mov    -0x58(%ebp),%ecx
   1270d:	89 c6                	mov    %eax,%esi
   1270f:	8b 45 ac             	mov    -0x54(%ebp),%eax
   12712:	89 75 9c             	mov    %esi,-0x64(%ebp)
   12715:	89 d6                	mov    %edx,%esi
   12717:	8b 55 9c             	mov    -0x64(%ebp),%edx
   1271a:	66 c7 45 f8 00 00    	movw   $0x0,-0x8(%ebp)
   12720:	89 75 f4             	mov    %esi,-0xc(%ebp)
   12723:	89 55 f0             	mov    %edx,-0x10(%ebp)
   12726:	8b 55 f0             	mov    -0x10(%ebp),%edx
   12729:	89 11                	mov    %edx,(%ecx)
   1272b:	8b 55 f4             	mov    -0xc(%ebp),%edx
   1272e:	89 51 04             	mov    %edx,0x4(%ecx)
   12731:	8b 55 f8             	mov    -0x8(%ebp),%edx
   12734:	89 51 08             	mov    %edx,0x8(%ecx)
   12737:	83 c4 64             	add    $0x64,%esp
   1273a:	5e                   	pop    %esi
   1273b:	5d                   	pop    %ebp
   1273c:	c3                   	ret
   1273d:	eb c3                	jmp    12702 <fmt.bufPrint__anon_1757+0x92>
   1273f:	66 8b 45 a2          	mov    -0x5e(%ebp),%ax
   12743:	66 83 e8 01          	sub    $0x1,%ax
   12747:	74 11                	je     1275a <fmt.bufPrint__anon_1757+0xea>
   12749:	eb 00                	jmp    1274b <fmt.bufPrint__anon_1757+0xdb>
   1274b:	66 8b 45 a2          	mov    -0x5e(%ebp),%ax
   1274f:	8b 4d a4             	mov    -0x5c(%ebp),%ecx
   12752:	0f b7 d0             	movzwl %ax,%edx
   12755:	e8 36 fd ff ff       	call   12490 <builtin.panicUnwrapError>
   1275a:	8b 4d a4             	mov    -0x5c(%ebp),%ecx
   1275d:	e8 ee fa ff ff       	call   12250 <builtin.returnError>
   12762:	8b 4d a8             	mov    -0x58(%ebp),%ecx
   12765:	8b 45 ac             	mov    -0x54(%ebp),%eax
   12768:	8b 15 4c b2 03 00    	mov    0x3b24c,%edx
   1276e:	89 11                	mov    %edx,(%ecx)
   12770:	8b 15 50 b2 03 00    	mov    0x3b250,%edx
   12776:	89 51 04             	mov    %edx,0x4(%ecx)
   12779:	8b 15 54 b2 03 00    	mov    0x3b254,%edx
   1277f:	89 51 08             	mov    %edx,0x8(%ecx)
   12782:	83 c4 64             	add    $0x64,%esp
   12785:	5e                   	pop    %esi
   12786:	5d                   	pop    %ebp
   12787:	c3                   	ret
   12788:	0f 1f 84 00 00 00 00 	nopl   0x0(%eax,%eax,1)
   1278f:	00 

00012790 <io.fixed_buffer_stream.FixedBufferStream([]u8).write>:
   12790:	55                   	push   %ebp
   12791:	89 e5                	mov    %esp,%ebp
   12793:	57                   	push   %edi
   12794:	56                   	push   %esi
   12795:	83 ec 7c             	sub    $0x7c,%esp
   12798:	89 55 bc             	mov    %edx,-0x44(%ebp)
   1279b:	89 4d c0             	mov    %ecx,-0x40(%ebp)
   1279e:	89 4d c4             	mov    %ecx,-0x3c(%ebp)
   127a1:	8b 55 10             	mov    0x10(%ebp),%edx
   127a4:	8b 4d 0c             	mov    0xc(%ebp),%ecx
   127a7:	8b 45 08             	mov    0x8(%ebp),%eax
   127aa:	89 45 c8             	mov    %eax,-0x38(%ebp)
   127ad:	89 d0                	mov    %edx,%eax
   127af:	89 45 cc             	mov    %eax,-0x34(%ebp)
   127b2:	89 ce                	mov    %ecx,%esi
   127b4:	89 75 d0             	mov    %esi,-0x30(%ebp)
   127b7:	89 55 d8             	mov    %edx,-0x28(%ebp)
   127ba:	89 4d d4             	mov    %ecx,-0x2c(%ebp)
   127bd:	83 f8 00             	cmp    $0x0,%eax
   127c0:	74 13                	je     127d5 <io.fixed_buffer_stream.FixedBufferStream([]u8).write+0x45>
   127c2:	eb 2f                	jmp    127f3 <io.fixed_buffer_stream.FixedBufferStream([]u8).write+0x63>
   127c4:	8b 4d c8             	mov    -0x38(%ebp),%ecx
   127c7:	8b 41 08             	mov    0x8(%ecx),%eax
   127ca:	8b 11                	mov    (%ecx),%edx
   127cc:	8b 49 04             	mov    0x4(%ecx),%ecx
   127cf:	39 c8                	cmp    %ecx,%eax
   127d1:	73 37                	jae    1280a <io.fixed_buffer_stream.FixedBufferStream([]u8).write+0x7a>
   127d3:	eb 5b                	jmp    12830 <io.fixed_buffer_stream.FixedBufferStream([]u8).write+0xa0>
   127d5:	8b 45 c4             	mov    -0x3c(%ebp),%eax
   127d8:	8b 4d c0             	mov    -0x40(%ebp),%ecx
   127db:	8b 15 48 b8 03 00    	mov    0x3b848,%edx
   127e1:	89 11                	mov    %edx,(%ecx)
   127e3:	8b 15 4c b8 03 00    	mov    0x3b84c,%edx
   127e9:	89 51 04             	mov    %edx,0x4(%ecx)
   127ec:	83 c4 7c             	add    $0x7c,%esp
   127ef:	5e                   	pop    %esi
   127f0:	5f                   	pop    %edi
   127f1:	5d                   	pop    %ebp
   127f2:	c3                   	ret
   127f3:	eb cf                	jmp    127c4 <io.fixed_buffer_stream.FixedBufferStream([]u8).write+0x34>
   127f5:	8b 4d c8             	mov    -0x38(%ebp),%ecx
   127f8:	8b 01                	mov    (%ecx),%eax
   127fa:	8b 41 04             	mov    0x4(%ecx),%eax
   127fd:	2b 41 08             	sub    0x8(%ecx),%eax
   12800:	89 45 b8             	mov    %eax,-0x48(%ebp)
   12803:	0f 92 c0             	setb   %al
   12806:	72 2a                	jb     12832 <io.fixed_buffer_stream.FixedBufferStream([]u8).write+0xa2>
   12808:	eb 4b                	jmp    12855 <io.fixed_buffer_stream.FixedBufferStream([]u8).write+0xc5>
   1280a:	8b 4d bc             	mov    -0x44(%ebp),%ecx
   1280d:	e8 3e fa ff ff       	call   12250 <builtin.returnError>
   12812:	8b 4d c0             	mov    -0x40(%ebp),%ecx
   12815:	8b 45 c4             	mov    -0x3c(%ebp),%eax
   12818:	8b 15 10 b9 03 00    	mov    0x3b910,%edx
   1281e:	89 11                	mov    %edx,(%ecx)
   12820:	8b 15 14 b9 03 00    	mov    0x3b914,%edx
   12826:	89 51 04             	mov    %edx,0x4(%ecx)
   12829:	83 c4 7c             	add    $0x7c,%esp
   1282c:	5e                   	pop    %esi
   1282d:	5f                   	pop    %edi
   1282e:	5d                   	pop    %ebp
   1282f:	c3                   	ret
   12830:	eb c3                	jmp    127f5 <io.fixed_buffer_stream.FixedBufferStream([]u8).write+0x65>
   12832:	8d 0d 3b bc 03 00    	lea    0x3bc3b,%ecx
   12838:	ba 10 00 00 00       	mov    $0x10,%edx
   1283d:	31 c0                	xor    %eax,%eax
   1283f:	8d 05 48 b8 03 00    	lea    0x3b848,%eax
   12845:	c7 04 24 00 00 00 00 	movl   $0x0,(%esp)
   1284c:	89 44 24 04          	mov    %eax,0x4(%esp)
   12850:	e8 cb ef ff ff       	call   11820 <builtin.default_panic>
   12855:	8b 45 c8             	mov    -0x38(%ebp),%eax
   12858:	8b 4d b8             	mov    -0x48(%ebp),%ecx
   1285b:	8b 55 cc             	mov    -0x34(%ebp),%edx
   1285e:	89 ce                	mov    %ecx,%esi
   12860:	29 d6                	sub    %edx,%esi
   12862:	0f 42 d1             	cmovb  %ecx,%edx
   12865:	89 55 a4             	mov    %edx,-0x5c(%ebp)
   12868:	89 55 dc             	mov    %edx,-0x24(%ebp)
   1286b:	89 45 e0             	mov    %eax,-0x20(%ebp)
   1286e:	8b 4d e0             	mov    -0x20(%ebp),%ecx
   12871:	8b 40 08             	mov    0x8(%eax),%eax
   12874:	89 45 a8             	mov    %eax,-0x58(%ebp)
   12877:	8b 31                	mov    (%ecx),%esi
   12879:	8b 49 04             	mov    0x4(%ecx),%ecx
   1287c:	89 4d ac             	mov    %ecx,-0x54(%ebp)
   1287f:	01 c6                	add    %eax,%esi
   12881:	89 75 b0             	mov    %esi,-0x50(%ebp)
   12884:	01 d0                	add    %edx,%eax
   12886:	89 45 b4             	mov    %eax,-0x4c(%ebp)
   12889:	39 c8                	cmp    %ecx,%eax
   1288b:	76 0e                	jbe    1289b <io.fixed_buffer_stream.FixedBufferStream([]u8).write+0x10b>
   1288d:	eb 0e                	jmp    1289d <io.fixed_buffer_stream.FixedBufferStream([]u8).write+0x10d>
   1288f:	8b 45 a8             	mov    -0x58(%ebp),%eax
   12892:	8b 4d b4             	mov    -0x4c(%ebp),%ecx
   12895:	39 c8                	cmp    %ecx,%eax
   12897:	76 3d                	jbe    128d6 <io.fixed_buffer_stream.FixedBufferStream([]u8).write+0x146>
   12899:	eb 3d                	jmp    128d8 <io.fixed_buffer_stream.FixedBufferStream([]u8).write+0x148>
   1289b:	eb f2                	jmp    1288f <io.fixed_buffer_stream.FixedBufferStream([]u8).write+0xff>
   1289d:	8b 55 ac             	mov    -0x54(%ebp),%edx
   128a0:	8b 4d b4             	mov    -0x4c(%ebp),%ecx
   128a3:	e8 28 f0 ff ff       	call   118d0 <builtin.panicOutOfBounds>
   128a8:	8b 4d a4             	mov    -0x5c(%ebp),%ecx
   128ab:	8b 45 cc             	mov    -0x34(%ebp),%eax
   128ae:	8b 55 d0             	mov    -0x30(%ebp),%edx
   128b1:	8b 75 b0             	mov    -0x50(%ebp),%esi
   128b4:	89 cf                	mov    %ecx,%edi
   128b6:	89 7d 94             	mov    %edi,-0x6c(%ebp)
   128b9:	89 75 98             	mov    %esi,-0x68(%ebp)
   128bc:	89 55 e4             	mov    %edx,-0x1c(%ebp)
   128bf:	89 45 e8             	mov    %eax,-0x18(%ebp)
   128c2:	8b 45 e4             	mov    -0x1c(%ebp),%eax
   128c5:	89 45 9c             	mov    %eax,-0x64(%ebp)
   128c8:	8b 45 e8             	mov    -0x18(%ebp),%eax
   128cb:	89 45 a0             	mov    %eax,-0x60(%ebp)
   128ce:	31 c0                	xor    %eax,%eax
   128d0:	39 c8                	cmp    %ecx,%eax
   128d2:	76 1b                	jbe    128ef <io.fixed_buffer_stream.FixedBufferStream([]u8).write+0x15f>
   128d4:	eb 1b                	jmp    128f1 <io.fixed_buffer_stream.FixedBufferStream([]u8).write+0x161>
   128d6:	eb d0                	jmp    128a8 <io.fixed_buffer_stream.FixedBufferStream([]u8).write+0x118>
   128d8:	8b 55 b4             	mov    -0x4c(%ebp),%edx
   128db:	8b 4d a8             	mov    -0x58(%ebp),%ecx
   128de:	e8 ed ef ff ff       	call   118d0 <builtin.panicOutOfBounds>
   128e3:	8b 45 a4             	mov    -0x5c(%ebp),%eax
   128e6:	8b 4d a0             	mov    -0x60(%ebp),%ecx
   128e9:	39 c8                	cmp    %ecx,%eax
   128eb:	76 19                	jbe    12906 <io.fixed_buffer_stream.FixedBufferStream([]u8).write+0x176>
   128ed:	eb 19                	jmp    12908 <io.fixed_buffer_stream.FixedBufferStream([]u8).write+0x178>
   128ef:	eb f2                	jmp    128e3 <io.fixed_buffer_stream.FixedBufferStream([]u8).write+0x153>
   128f1:	8b 55 a4             	mov    -0x5c(%ebp),%edx
   128f4:	31 c9                	xor    %ecx,%ecx
   128f6:	e8 a5 ef ff ff       	call   118a0 <builtin.panicStartGreaterThanEnd>
   128fb:	8b 4d a4             	mov    -0x5c(%ebp),%ecx
   128fe:	31 c0                	xor    %eax,%eax
   12900:	39 c8                	cmp    %ecx,%eax
   12902:	76 21                	jbe    12925 <io.fixed_buffer_stream.FixedBufferStream([]u8).write+0x195>
   12904:	eb 21                	jmp    12927 <io.fixed_buffer_stream.FixedBufferStream([]u8).write+0x197>
   12906:	eb f3                	jmp    128fb <io.fixed_buffer_stream.FixedBufferStream([]u8).write+0x16b>
   12908:	8b 55 a0             	mov    -0x60(%ebp),%edx
   1290b:	8b 4d a4             	mov    -0x5c(%ebp),%ecx
   1290e:	e8 bd ef ff ff       	call   118d0 <builtin.panicOutOfBounds>
   12913:	8b 45 94             	mov    -0x6c(%ebp),%eax
   12916:	8b 55 9c             	mov    -0x64(%ebp),%edx
   12919:	8b 4d a4             	mov    -0x5c(%ebp),%ecx
   1291c:	89 55 90             	mov    %edx,-0x70(%ebp)
   1291f:	39 c8                	cmp    %ecx,%eax
   12921:	74 31                	je     12954 <io.fixed_buffer_stream.FixedBufferStream([]u8).write+0x1c4>
   12923:	eb 31                	jmp    12956 <io.fixed_buffer_stream.FixedBufferStream([]u8).write+0x1c6>
   12925:	eb ec                	jmp    12913 <io.fixed_buffer_stream.FixedBufferStream([]u8).write+0x183>
   12927:	8b 55 a4             	mov    -0x5c(%ebp),%edx
   1292a:	31 c9                	xor    %ecx,%ecx
   1292c:	e8 9f ef ff ff       	call   118d0 <builtin.panicOutOfBounds>
   12931:	8b 4d 90             	mov    -0x70(%ebp),%ecx
   12934:	8b 45 98             	mov    -0x68(%ebp),%eax
   12937:	8b 7d 94             	mov    -0x6c(%ebp),%edi
   1293a:	89 ce                	mov    %ecx,%esi
   1293c:	01 fe                	add    %edi,%esi
   1293e:	89 c2                	mov    %eax,%edx
   12940:	01 fa                	add    %edi,%edx
   12942:	39 f0                	cmp    %esi,%eax
   12944:	0f 93 c0             	setae  %al
   12947:	39 d1                	cmp    %edx,%ecx
   12949:	0f 93 c1             	setae  %cl
   1294c:	08 c8                	or     %cl,%al
   1294e:	a8 01                	test   $0x1,%al
   12950:	75 60                	jne    129b2 <io.fixed_buffer_stream.FixedBufferStream([]u8).write+0x222>
   12952:	eb 60                	jmp    129b4 <io.fixed_buffer_stream.FixedBufferStream([]u8).write+0x224>
   12954:	eb db                	jmp    12931 <io.fixed_buffer_stream.FixedBufferStream([]u8).write+0x1a1>
   12956:	b9 3a bd 03 00       	mov    $0x3bd3a,%ecx
   1295b:	ba 28 00 00 00       	mov    $0x28,%edx
   12960:	31 c0                	xor    %eax,%eax
   12962:	8d 05 48 b8 03 00    	lea    0x3b848,%eax
   12968:	c7 04 24 00 00 00 00 	movl   $0x0,(%esp)
   1296f:	89 44 24 04          	mov    %eax,0x4(%esp)
   12973:	e8 a8 ee ff ff       	call   11820 <builtin.default_panic>
   12978:	8b 45 94             	mov    -0x6c(%ebp),%eax
   1297b:	8b 4d 90             	mov    -0x70(%ebp),%ecx
   1297e:	8b 55 98             	mov    -0x68(%ebp),%edx
   12981:	89 14 24             	mov    %edx,(%esp)
   12984:	89 4c 24 04          	mov    %ecx,0x4(%esp)
   12988:	89 44 24 08          	mov    %eax,0x8(%esp)
   1298c:	e8 7f 75 02 00       	call   39f10 <memcpy>
   12991:	8b 4d c8             	mov    -0x38(%ebp),%ecx
   12994:	8b 45 a4             	mov    -0x5c(%ebp),%eax
   12997:	89 4d ec             	mov    %ecx,-0x14(%ebp)
   1299a:	8b 4d ec             	mov    -0x14(%ebp),%ecx
   1299d:	89 ca                	mov    %ecx,%edx
   1299f:	83 c2 08             	add    $0x8,%edx
   129a2:	89 55 88             	mov    %edx,-0x78(%ebp)
   129a5:	03 41 08             	add    0x8(%ecx),%eax
   129a8:	89 45 8c             	mov    %eax,-0x74(%ebp)
   129ab:	0f 92 c0             	setb   %al
   129ae:	72 26                	jb     129d6 <io.fixed_buffer_stream.FixedBufferStream([]u8).write+0x246>
   129b0:	eb 47                	jmp    129f9 <io.fixed_buffer_stream.FixedBufferStream([]u8).write+0x269>
   129b2:	eb c4                	jmp    12978 <io.fixed_buffer_stream.FixedBufferStream([]u8).write+0x1e8>
   129b4:	b9 8b bd 03 00       	mov    $0x3bd8b,%ecx
   129b9:	ba 17 00 00 00       	mov    $0x17,%edx
   129be:	31 c0                	xor    %eax,%eax
   129c0:	8d 05 48 b8 03 00    	lea    0x3b848,%eax
   129c6:	c7 04 24 00 00 00 00 	movl   $0x0,(%esp)
   129cd:	89 44 24 04          	mov    %eax,0x4(%esp)
   129d1:	e8 4a ee ff ff       	call   11820 <builtin.default_panic>
   129d6:	8d 0d 3b bc 03 00    	lea    0x3bc3b,%ecx
   129dc:	ba 10 00 00 00       	mov    $0x10,%edx
   129e1:	31 c0                	xor    %eax,%eax
   129e3:	8d 05 48 b8 03 00    	lea    0x3b848,%eax
   129e9:	c7 04 24 00 00 00 00 	movl   $0x0,(%esp)
   129f0:	89 44 24 04          	mov    %eax,0x4(%esp)
   129f4:	e8 27 ee ff ff       	call   11820 <builtin.default_panic>
   129f9:	8b 45 a4             	mov    -0x5c(%ebp),%eax
   129fc:	8b 4d 88             	mov    -0x78(%ebp),%ecx
   129ff:	8b 55 8c             	mov    -0x74(%ebp),%edx
   12a02:	89 11                	mov    %edx,(%ecx)
   12a04:	83 f8 00             	cmp    $0x0,%eax
   12a07:	74 26                	je     12a2f <io.fixed_buffer_stream.FixedBufferStream([]u8).write+0x29f>
   12a09:	eb 4a                	jmp    12a55 <io.fixed_buffer_stream.FixedBufferStream([]u8).write+0x2c5>
   12a0b:	8b 45 c4             	mov    -0x3c(%ebp),%eax
   12a0e:	8b 4d c0             	mov    -0x40(%ebp),%ecx
   12a11:	8b 55 a4             	mov    -0x5c(%ebp),%edx
   12a14:	66 c7 45 f4 00 00    	movw   $0x0,-0xc(%ebp)
   12a1a:	89 55 f0             	mov    %edx,-0x10(%ebp)
   12a1d:	8b 55 f0             	mov    -0x10(%ebp),%edx
   12a20:	89 11                	mov    %edx,(%ecx)
   12a22:	8b 55 f4             	mov    -0xc(%ebp),%edx
   12a25:	89 51 04             	mov    %edx,0x4(%ecx)
   12a28:	83 c4 7c             	add    $0x7c,%esp
   12a2b:	5e                   	pop    %esi
   12a2c:	5f                   	pop    %edi
   12a2d:	5d                   	pop    %ebp
   12a2e:	c3                   	ret
   12a2f:	8b 4d bc             	mov    -0x44(%ebp),%ecx
   12a32:	e8 19 f8 ff ff       	call   12250 <builtin.returnError>
   12a37:	8b 4d c0             	mov    -0x40(%ebp),%ecx
   12a3a:	8b 45 c4             	mov    -0x3c(%ebp),%eax
   12a3d:	8b 15 10 b9 03 00    	mov    0x3b910,%edx
   12a43:	89 11                	mov    %edx,(%ecx)
   12a45:	8b 15 14 b9 03 00    	mov    0x3b914,%edx
   12a4b:	89 51 04             	mov    %edx,0x4(%ecx)
   12a4e:	83 c4 7c             	add    $0x7c,%esp
   12a51:	5e                   	pop    %esi
   12a52:	5f                   	pop    %edi
   12a53:	5d                   	pop    %ebp
   12a54:	c3                   	ret
   12a55:	eb b4                	jmp    12a0b <io.fixed_buffer_stream.FixedBufferStream([]u8).write+0x27b>
   12a57:	66 0f 1f 84 00 00 00 	nopw   0x0(%eax,%eax,1)
   12a5e:	00 00 

00012a60 <io.Writer.write>:
   12a60:	55                   	push   %ebp
   12a61:	89 e5                	mov    %esp,%ebp
   12a63:	53                   	push   %ebx
   12a64:	57                   	push   %edi
   12a65:	56                   	push   %esi
   12a66:	83 ec 30             	sub    $0x30,%esp
   12a69:	89 55 d0             	mov    %edx,-0x30(%ebp)
   12a6c:	89 4d d4             	mov    %ecx,-0x2c(%ebp)
   12a6f:	89 4d d8             	mov    %ecx,-0x28(%ebp)
   12a72:	8b 5d 10             	mov    0x10(%ebp),%ebx
   12a75:	8b 45 0c             	mov    0xc(%ebp),%eax
   12a78:	8b 4d 08             	mov    0x8(%ebp),%ecx
   12a7b:	89 de                	mov    %ebx,%esi
   12a7d:	89 c7                	mov    %eax,%edi
   12a7f:	89 5d e0             	mov    %ebx,-0x20(%ebp)
   12a82:	89 45 dc             	mov    %eax,-0x24(%ebp)
   12a85:	8b 01                	mov    (%ecx),%eax
   12a87:	89 45 e4             	mov    %eax,-0x1c(%ebp)
   12a8a:	8b 41 04             	mov    0x4(%ecx),%eax
   12a8d:	89 45 e8             	mov    %eax,-0x18(%ebp)
   12a90:	8b 45 e8             	mov    -0x18(%ebp),%eax
   12a93:	8b 19                	mov    (%ecx),%ebx
   12a95:	8d 4d ec             	lea    -0x14(%ebp),%ecx
   12a98:	89 1c 24             	mov    %ebx,(%esp)
   12a9b:	89 7c 24 04          	mov    %edi,0x4(%esp)
   12a9f:	89 74 24 08          	mov    %esi,0x8(%esp)
   12aa3:	ff d0                	call   *%eax
   12aa5:	66 83 7d f0 00       	cmpw   $0x0,-0x10(%ebp)
   12aaa:	75 19                	jne    12ac5 <io.Writer.write+0x65>
   12aac:	8b 45 d8             	mov    -0x28(%ebp),%eax
   12aaf:	8b 4d d4             	mov    -0x2c(%ebp),%ecx
   12ab2:	8b 55 ec             	mov    -0x14(%ebp),%edx
   12ab5:	89 11                	mov    %edx,(%ecx)
   12ab7:	8b 55 f0             	mov    -0x10(%ebp),%edx
   12aba:	89 51 04             	mov    %edx,0x4(%ecx)
   12abd:	83 c4 30             	add    $0x30,%esp
   12ac0:	5e                   	pop    %esi
   12ac1:	5f                   	pop    %edi
   12ac2:	5b                   	pop    %ebx
   12ac3:	5d                   	pop    %ebp
   12ac4:	c3                   	ret
   12ac5:	8b 4d d0             	mov    -0x30(%ebp),%ecx
   12ac8:	e8 83 f7 ff ff       	call   12250 <builtin.returnError>
   12acd:	8b 4d d4             	mov    -0x2c(%ebp),%ecx
   12ad0:	8b 45 d8             	mov    -0x28(%ebp),%eax
   12ad3:	8b 55 ec             	mov    -0x14(%ebp),%edx
   12ad6:	89 11                	mov    %edx,(%ecx)
   12ad8:	8b 55 f0             	mov    -0x10(%ebp),%edx
   12adb:	89 51 04             	mov    %edx,0x4(%ecx)
   12ade:	83 c4 30             	add    $0x30,%esp
   12ae1:	5e                   	pop    %esi
   12ae2:	5f                   	pop    %edi
   12ae3:	5b                   	pop    %ebx
   12ae4:	5d                   	pop    %ebp
   12ae5:	c3                   	ret
   12ae6:	66 2e 0f 1f 84 00 00 	nopw   %cs:0x0(%eax,%eax,1)
   12aed:	00 00 00 

00012af0 <fmt.formatValue__anon_2002>:
   12af0:	55                   	push   %ebp
   12af1:	89 e5                	mov    %esp,%ebp
   12af3:	83 ec 0c             	sub    $0xc,%esp
   12af6:	89 4d f8             	mov    %ecx,-0x8(%ebp)
   12af9:	8b 45 08             	mov    0x8(%ebp),%eax
   12afc:	89 04 24             	mov    %eax,(%esp)
   12aff:	e8 cc 1a 00 00       	call   145d0 <fmt.formatIntValue__anon_2007>
   12b04:	66 89 45 fe          	mov    %ax,-0x2(%ebp)
   12b08:	66 83 f8 00          	cmp    $0x0,%ax
   12b0c:	75 09                	jne    12b17 <fmt.formatValue__anon_2002+0x27>
   12b0e:	66 8b 45 fe          	mov    -0x2(%ebp),%ax
   12b12:	83 c4 0c             	add    $0xc,%esp
   12b15:	5d                   	pop    %ebp
   12b16:	c3                   	ret
   12b17:	8b 4d f8             	mov    -0x8(%ebp),%ecx
   12b1a:	e8 31 f7 ff ff       	call   12250 <builtin.returnError>
   12b1f:	66 8b 45 fe          	mov    -0x2(%ebp),%ax
   12b23:	83 c4 0c             	add    $0xc,%esp
   12b26:	5d                   	pop    %ebp
   12b27:	c3                   	ret
   12b28:	0f 1f 84 00 00 00 00 	nopl   0x0(%eax,%eax,1)
   12b2f:	00 

00012b30 <debug.panicExtra__anon_2003>:
   12b30:	55                   	push   %ebp
   12b31:	89 e5                	mov    %esp,%ebp
   12b33:	57                   	push   %edi
   12b34:	56                   	push   %esi
   12b35:	b8 ec 10 00 00       	mov    $0x10ec,%eax
   12b3a:	e8 a1 73 02 00       	call   39ee0 <__zig_probe_stack>
   12b3f:	29 c4                	sub    %eax,%esp
   12b41:	89 95 24 ef ff ff    	mov    %edx,-0x10dc(%ebp)
   12b47:	89 8d 28 ef ff ff    	mov    %ecx,-0x10d8(%ebp)
   12b4d:	8b 45 08             	mov    0x8(%ebp),%eax
   12b50:	89 85 2c ef ff ff    	mov    %eax,-0x10d4(%ebp)
   12b56:	89 8d 38 ef ff ff    	mov    %ecx,-0x10c8(%ebp)
   12b5c:	8d 85 3c ef ff ff    	lea    -0x10c4(%ebp),%eax
   12b62:	89 85 c0 ef ff ff    	mov    %eax,-0x1040(%ebp)
   12b68:	c7 85 c4 ef ff ff 20 	movl   $0x20,-0x103c(%ebp)
   12b6f:	00 00 00 
   12b72:	c7 85 bc ef ff ff 00 	movl   $0x0,-0x1044(%ebp)
   12b79:	00 00 00 
   12b7c:	8b 85 bc ef ff ff    	mov    -0x1044(%ebp),%eax
   12b82:	89 85 30 ef ff ff    	mov    %eax,-0x10d0(%ebp)
   12b88:	8d 05 c6 bc 03 00    	lea    0x3bcc6,%eax
   12b8e:	89 85 c8 ef ff ff    	mov    %eax,-0x1038(%ebp)
   12b94:	8d 85 cd ef ff ff    	lea    -0x1033(%ebp),%eax
   12b9a:	89 04 24             	mov    %eax,(%esp)
   12b9d:	c7 44 24 04 aa 00 00 	movl   $0xaa,0x4(%esp)
   12ba4:	00 
   12ba5:	c7 44 24 08 0f 10 00 	movl   $0x100f,0x8(%esp)
   12bac:	00 
   12bad:	e8 4e 74 02 00       	call   3a000 <memset>
   12bb2:	8d 85 cd ef ff ff    	lea    -0x1033(%ebp),%eax
   12bb8:	89 85 34 ef ff ff    	mov    %eax,-0x10cc(%ebp)
   12bbe:	b8 00 10 00 00       	mov    $0x1000,%eax
   12bc3:	3d 0f 10 00 00       	cmp    $0x100f,%eax
   12bc8:	76 35                	jbe    12bff <debug.panicExtra__anon_2003+0xcf>
   12bca:	eb 35                	jmp    12c01 <debug.panicExtra__anon_2003+0xd1>
   12bcc:	8b 85 2c ef ff ff    	mov    -0x10d4(%ebp),%eax
   12bd2:	8b bd 34 ef ff ff    	mov    -0x10cc(%ebp),%edi
   12bd8:	be 00 10 00 00       	mov    $0x1000,%esi
   12bdd:	8d 4d dc             	lea    -0x24(%ebp),%ecx
   12be0:	8d 95 bc ef ff ff    	lea    -0x1044(%ebp),%edx
   12be6:	89 3c 24             	mov    %edi,(%esp)
   12be9:	89 74 24 04          	mov    %esi,0x4(%esp)
   12bed:	89 44 24 08          	mov    %eax,0x8(%esp)
   12bf1:	e8 3a 1a 00 00       	call   14630 <fmt.bufPrint__anon_2021>
   12bf6:	66 83 7d e4 00       	cmpw   $0x0,-0x1c(%ebp)
   12bfb:	74 49                	je     12c46 <debug.panicExtra__anon_2003+0x116>
   12bfd:	eb 5b                	jmp    12c5a <debug.panicExtra__anon_2003+0x12a>
   12bff:	eb cb                	jmp    12bcc <debug.panicExtra__anon_2003+0x9c>
   12c01:	b9 00 10 00 00       	mov    $0x1000,%ecx
   12c06:	ba 0f 10 00 00       	mov    $0x100f,%edx
   12c0b:	e8 c0 ec ff ff       	call   118d0 <builtin.panicOutOfBounds>
   12c10:	8b 85 24 ef ff ff    	mov    -0x10dc(%ebp),%eax
   12c16:	8b b5 28 ef ff ff    	mov    -0x10d8(%ebp),%esi
   12c1c:	8b 8d 20 ef ff ff    	mov    -0x10e0(%ebp),%ecx
   12c22:	8b 95 1c ef ff ff    	mov    -0x10e4(%ebp),%edx
   12c28:	89 4d e8             	mov    %ecx,-0x18(%ebp)
   12c2b:	89 55 ec             	mov    %edx,-0x14(%ebp)
   12c2e:	89 55 f4             	mov    %edx,-0xc(%ebp)
   12c31:	89 4d f0             	mov    %ecx,-0x10(%ebp)
   12c34:	8b 4d f0             	mov    -0x10(%ebp),%ecx
   12c37:	8b 55 f4             	mov    -0xc(%ebp),%edx
   12c3a:	89 34 24             	mov    %esi,(%esp)
   12c3d:	89 44 24 04          	mov    %eax,0x4(%esp)
   12c41:	e8 da eb ff ff       	call   11820 <builtin.default_panic>
   12c46:	8b 4d dc             	mov    -0x24(%ebp),%ecx
   12c49:	8b 45 e0             	mov    -0x20(%ebp),%eax
   12c4c:	89 8d 20 ef ff ff    	mov    %ecx,-0x10e0(%ebp)
   12c52:	89 85 1c ef ff ff    	mov    %eax,-0x10e4(%ebp)
   12c58:	eb b6                	jmp    12c10 <debug.panicExtra__anon_2003+0xe0>
   12c5a:	66 8b 45 e4          	mov    -0x1c(%ebp),%ax
   12c5e:	66 83 e8 01          	sub    $0x1,%ax
   12c62:	74 24                	je     12c88 <debug.panicExtra__anon_2003+0x158>
   12c64:	eb 00                	jmp    12c66 <debug.panicExtra__anon_2003+0x136>
   12c66:	b9 ff bd 03 00       	mov    $0x3bdff,%ecx
   12c6b:	ba 17 00 00 00       	mov    $0x17,%edx
   12c70:	31 c0                	xor    %eax,%eax
   12c72:	8d 05 48 b8 03 00    	lea    0x3b848,%eax
   12c78:	c7 04 24 00 00 00 00 	movl   $0x0,(%esp)
   12c7f:	89 44 24 04          	mov    %eax,0x4(%esp)
   12c83:	e8 98 eb ff ff       	call   11820 <builtin.default_panic>
   12c88:	8d 85 cd ef ff ff    	lea    -0x1033(%ebp),%eax
   12c8e:	05 00 10 00 00       	add    $0x1000,%eax
   12c93:	89 85 18 ef ff ff    	mov    %eax,-0x10e8(%ebp)
   12c99:	eb 2c                	jmp    12cc7 <debug.panicExtra__anon_2003+0x197>
   12c9b:	8b 85 18 ef ff ff    	mov    -0x10e8(%ebp),%eax
   12ca1:	89 c2                	mov    %eax,%edx
   12ca3:	83 c2 0f             	add    $0xf,%edx
   12ca6:	8d 0d c6 bc 03 00    	lea    0x3bcc6,%ecx
   12cac:	83 c1 0f             	add    $0xf,%ecx
   12caf:	39 c8                	cmp    %ecx,%eax
   12cb1:	0f 93 c0             	setae  %al
   12cb4:	8d 0d c6 bc 03 00    	lea    0x3bcc6,%ecx
   12cba:	39 d1                	cmp    %edx,%ecx
   12cbc:	0f 93 c1             	setae  %cl
   12cbf:	08 c8                	or     %cl,%al
   12cc1:	a8 01                	test   $0x1,%al
   12cc3:	75 59                	jne    12d1e <debug.panicExtra__anon_2003+0x1ee>
   12cc5:	eb 59                	jmp    12d20 <debug.panicExtra__anon_2003+0x1f0>
   12cc7:	eb d2                	jmp    12c9b <debug.panicExtra__anon_2003+0x16b>
   12cc9:	ba 0f 10 00 00       	mov    $0x100f,%edx
   12cce:	89 d1                	mov    %edx,%ecx
   12cd0:	e8 fb eb ff ff       	call   118d0 <builtin.panicOutOfBounds>
   12cd5:	8b 85 30 ef ff ff    	mov    -0x10d0(%ebp),%eax
   12cdb:	8b 8d 18 ef ff ff    	mov    -0x10e8(%ebp),%ecx
   12ce1:	c7 41 0b 74 65 64 29 	movl   $0x29646574,0xb(%ecx)
   12ce8:	c7 41 08 6e 63 61 74 	movl   $0x7461636e,0x8(%ecx)
   12cef:	c7 41 04 20 74 72 75 	movl   $0x75727420,0x4(%ecx)
   12cf6:	c7 01 28 6d 73 67    	movl   $0x67736d28,(%ecx)
   12cfc:	89 85 bc ef ff ff    	mov    %eax,-0x1044(%ebp)
   12d02:	b8 0f 10 00 00       	mov    $0x100f,%eax
   12d07:	8d 8d cd ef ff ff    	lea    -0x1033(%ebp),%ecx
   12d0d:	89 8d 20 ef ff ff    	mov    %ecx,-0x10e0(%ebp)
   12d13:	89 85 1c ef ff ff    	mov    %eax,-0x10e4(%ebp)
   12d19:	e9 f2 fe ff ff       	jmp    12c10 <debug.panicExtra__anon_2003+0xe0>
   12d1e:	eb b5                	jmp    12cd5 <debug.panicExtra__anon_2003+0x1a5>
   12d20:	b9 8b bd 03 00       	mov    $0x3bd8b,%ecx
   12d25:	ba 17 00 00 00       	mov    $0x17,%edx
   12d2a:	31 c0                	xor    %eax,%eax
   12d2c:	8d 05 48 b8 03 00    	lea    0x3b848,%eax
   12d32:	c7 04 24 00 00 00 00 	movl   $0x0,(%esp)
   12d39:	89 44 24 04          	mov    %eax,0x4(%esp)
   12d3d:	e8 de ea ff ff       	call   11820 <builtin.default_panic>
   12d42:	66 2e 0f 1f 84 00 00 	nopw   %cs:0x0(%eax,%eax,1)
   12d49:	00 00 00 
   12d4c:	0f 1f 40 00          	nopl   0x0(%eax)

00012d50 <fmt.format__anon_2004>:
   12d50:	55                   	push   %ebp
   12d51:	89 e5                	mov    %esp,%ebp
   12d53:	56                   	push   %esi
   12d54:	83 ec 3c             	sub    $0x3c,%esp
   12d57:	89 55 d4             	mov    %edx,-0x2c(%ebp)
   12d5a:	89 4d d8             	mov    %ecx,-0x28(%ebp)
   12d5d:	8b 45 08             	mov    0x8(%ebp),%eax
   12d60:	89 45 dc             	mov    %eax,-0x24(%ebp)
   12d63:	f2 0f 10 02          	movsd  (%edx),%xmm0
   12d67:	f2 0f 11 45 e4       	movsd  %xmm0,-0x1c(%ebp)
   12d6c:	be cd bb 03 00       	mov    $0x3bbcd,%esi
   12d71:	b8 0c 00 00 00       	mov    $0xc,%eax
   12d76:	8d 55 e4             	lea    -0x1c(%ebp),%edx
   12d79:	89 34 24             	mov    %esi,(%esp)
   12d7c:	89 44 24 04          	mov    %eax,0x4(%esp)
   12d80:	e8 7b f3 ff ff       	call   12100 <io.Writer.writeAll>
   12d85:	66 89 45 e2          	mov    %ax,-0x1e(%ebp)
   12d89:	66 83 f8 00          	cmp    $0x0,%ax
   12d8d:	75 36                	jne    12dc5 <fmt.format__anon_2004+0x75>
   12d8f:	eb 46                	jmp    12dd7 <fmt.format__anon_2004+0x87>
   12d91:	8b 4d d8             	mov    -0x28(%ebp),%ecx
   12d94:	8b 45 d4             	mov    -0x2c(%ebp),%eax
   12d97:	f2 0f 10 00          	movsd  (%eax),%xmm0
   12d9b:	f2 0f 11 45 f0       	movsd  %xmm0,-0x10(%ebp)
   12da0:	be dc bb 03 00       	mov    $0x3bbdc,%esi
   12da5:	b8 1a 00 00 00       	mov    $0x1a,%eax
   12daa:	8d 55 f0             	lea    -0x10(%ebp),%edx
   12dad:	89 34 24             	mov    %esi,(%esp)
   12db0:	89 44 24 04          	mov    %eax,0x4(%esp)
   12db4:	e8 47 f3 ff ff       	call   12100 <io.Writer.writeAll>
   12db9:	66 89 45 d2          	mov    %ax,-0x2e(%ebp)
   12dbd:	66 83 f8 00          	cmp    $0x0,%ax
   12dc1:	75 69                	jne    12e2c <fmt.format__anon_2004+0xdc>
   12dc3:	eb 79                	jmp    12e3e <fmt.format__anon_2004+0xee>
   12dc5:	8b 4d d8             	mov    -0x28(%ebp),%ecx
   12dc8:	e8 83 f4 ff ff       	call   12250 <builtin.returnError>
   12dcd:	66 8b 45 e2          	mov    -0x1e(%ebp),%ax
   12dd1:	83 c4 3c             	add    $0x3c,%esp
   12dd4:	5e                   	pop    %esi
   12dd5:	5d                   	pop    %ebp
   12dd6:	c3                   	ret
   12dd7:	8b 45 d4             	mov    -0x2c(%ebp),%eax
   12dda:	8b 4d d8             	mov    -0x28(%ebp),%ecx
   12ddd:	8b 55 dc             	mov    -0x24(%ebp),%edx
   12de0:	c7 45 ec 00 00 00 00 	movl   $0x0,-0x14(%ebp)
   12de7:	8b 12                	mov    (%edx),%edx
   12de9:	8d 35 dc b1 03 00    	lea    0x3b1dc,%esi
   12def:	89 34 24             	mov    %esi,(%esp)
   12df2:	89 44 24 04          	mov    %eax,0x4(%esp)
   12df6:	c7 44 24 08 03 00 00 	movl   $0x3,0x8(%esp)
   12dfd:	00 
   12dfe:	e8 8d 00 00 00       	call   12e90 <fmt.formatType__anon_2005>
   12e03:	66 89 45 d0          	mov    %ax,-0x30(%ebp)
   12e07:	66 83 f8 00          	cmp    $0x0,%ax
   12e0b:	74 12                	je     12e1f <fmt.format__anon_2004+0xcf>
   12e0d:	8b 4d d8             	mov    -0x28(%ebp),%ecx
   12e10:	e8 3b f4 ff ff       	call   12250 <builtin.returnError>
   12e15:	66 8b 45 d0          	mov    -0x30(%ebp),%ax
   12e19:	83 c4 3c             	add    $0x3c,%esp
   12e1c:	5e                   	pop    %esi
   12e1d:	5d                   	pop    %ebp
   12e1e:	c3                   	ret
   12e1f:	e9 6d ff ff ff       	jmp    12d91 <fmt.format__anon_2004+0x41>
   12e24:	31 c0                	xor    %eax,%eax
   12e26:	83 c4 3c             	add    $0x3c,%esp
   12e29:	5e                   	pop    %esi
   12e2a:	5d                   	pop    %ebp
   12e2b:	c3                   	ret
   12e2c:	8b 4d d8             	mov    -0x28(%ebp),%ecx
   12e2f:	e8 1c f4 ff ff       	call   12250 <builtin.returnError>
   12e34:	66 8b 45 d2          	mov    -0x2e(%ebp),%ax
   12e38:	83 c4 3c             	add    $0x3c,%esp
   12e3b:	5e                   	pop    %esi
   12e3c:	5d                   	pop    %ebp
   12e3d:	c3                   	ret
   12e3e:	8b 45 d4             	mov    -0x2c(%ebp),%eax
   12e41:	8b 4d d8             	mov    -0x28(%ebp),%ecx
   12e44:	8b 55 dc             	mov    -0x24(%ebp),%edx
   12e47:	c7 45 f8 01 00 00 00 	movl   $0x1,-0x8(%ebp)
   12e4e:	8b 52 04             	mov    0x4(%edx),%edx
   12e51:	8d 35 dc b1 03 00    	lea    0x3b1dc,%esi
   12e57:	89 34 24             	mov    %esi,(%esp)
   12e5a:	89 44 24 04          	mov    %eax,0x4(%esp)
   12e5e:	c7 44 24 08 03 00 00 	movl   $0x3,0x8(%esp)
   12e65:	00 
   12e66:	e8 25 00 00 00       	call   12e90 <fmt.formatType__anon_2005>
   12e6b:	66 89 45 ce          	mov    %ax,-0x32(%ebp)
   12e6f:	66 83 f8 00          	cmp    $0x0,%ax
   12e73:	74 12                	je     12e87 <fmt.format__anon_2004+0x137>
   12e75:	8b 4d d8             	mov    -0x28(%ebp),%ecx
   12e78:	e8 d3 f3 ff ff       	call   12250 <builtin.returnError>
   12e7d:	66 8b 45 ce          	mov    -0x32(%ebp),%ax
   12e81:	83 c4 3c             	add    $0x3c,%esp
   12e84:	5e                   	pop    %esi
   12e85:	5d                   	pop    %ebp
   12e86:	c3                   	ret
   12e87:	eb 9b                	jmp    12e24 <fmt.format__anon_2004+0xd4>
   12e89:	0f 1f 80 00 00 00 00 	nopl   0x0(%eax)

00012e90 <fmt.formatType__anon_2005>:
   12e90:	55                   	push   %ebp
   12e91:	89 e5                	mov    %esp,%ebp
   12e93:	56                   	push   %esi
   12e94:	83 ec 38             	sub    $0x38,%esp
   12e97:	89 55 d0             	mov    %edx,-0x30(%ebp)
   12e9a:	89 4d d4             	mov    %ecx,-0x2c(%ebp)
   12e9d:	8b 45 10             	mov    0x10(%ebp),%eax
   12ea0:	8b 45 0c             	mov    0xc(%ebp),%eax
   12ea3:	89 45 d8             	mov    %eax,-0x28(%ebp)
   12ea6:	8b 45 08             	mov    0x8(%ebp),%eax
   12ea9:	89 45 dc             	mov    %eax,-0x24(%ebp)
   12eac:	89 55 e0             	mov    %edx,-0x20(%ebp)
   12eaf:	c7 45 e8 01 00 00 00 	movl   $0x1,-0x18(%ebp)
   12eb6:	c7 45 e4 30 b1 03 00 	movl   $0x3b130,-0x1c(%ebp)
   12ebd:	c7 45 f0 06 00 00 00 	movl   $0x6,-0x10(%ebp)
   12ec4:	c7 45 ec 75 bd 03 00 	movl   $0x3bd75,-0x14(%ebp)
   12ecb:	c7 45 f8 06 00 00 00 	movl   $0x6,-0x8(%ebp)
   12ed2:	c7 45 f4 75 bd 03 00 	movl   $0x3bd75,-0xc(%ebp)
   12ed9:	eb 24                	jmp    12eff <fmt.formatType__anon_2005+0x6f>
   12edb:	8b 45 d8             	mov    -0x28(%ebp),%eax
   12ede:	8b 75 dc             	mov    -0x24(%ebp),%esi
   12ee1:	8b 55 d0             	mov    -0x30(%ebp),%edx
   12ee4:	8b 4d d4             	mov    -0x2c(%ebp),%ecx
   12ee7:	89 34 24             	mov    %esi,(%esp)
   12eea:	89 44 24 04          	mov    %eax,0x4(%esp)
   12eee:	e8 5d 18 00 00       	call   14750 <fmt.formatValue__anon_2022>
   12ef3:	66 89 45 ce          	mov    %ax,-0x32(%ebp)
   12ef7:	66 83 f8 00          	cmp    $0x0,%ax
   12efb:	74 04                	je     12f01 <fmt.formatType__anon_2005+0x71>
   12efd:	eb 0c                	jmp    12f0b <fmt.formatType__anon_2005+0x7b>
   12eff:	eb da                	jmp    12edb <fmt.formatType__anon_2005+0x4b>
   12f01:	66 8b 45 ce          	mov    -0x32(%ebp),%ax
   12f05:	83 c4 38             	add    $0x38,%esp
   12f08:	5e                   	pop    %esi
   12f09:	5d                   	pop    %ebp
   12f0a:	c3                   	ret
   12f0b:	8b 4d d4             	mov    -0x2c(%ebp),%ecx
   12f0e:	e8 3d f3 ff ff       	call   12250 <builtin.returnError>
   12f13:	66 8b 45 ce          	mov    -0x32(%ebp),%ax
   12f17:	83 c4 38             	add    $0x38,%esp
   12f1a:	5e                   	pop    %esi
   12f1b:	5d                   	pop    %ebp
   12f1c:	c3                   	ret
   12f1d:	0f 1f 00             	nopl   (%eax)

00012f20 <fmt.format__anon_2006>:
   12f20:	55                   	push   %ebp
   12f21:	89 e5                	mov    %esp,%ebp
   12f23:	56                   	push   %esi
   12f24:	83 ec 3c             	sub    $0x3c,%esp
   12f27:	89 55 d4             	mov    %edx,-0x2c(%ebp)
   12f2a:	89 4d d8             	mov    %ecx,-0x28(%ebp)
   12f2d:	8b 45 08             	mov    0x8(%ebp),%eax
   12f30:	89 45 dc             	mov    %eax,-0x24(%ebp)
   12f33:	f2 0f 10 02          	movsd  (%edx),%xmm0
   12f37:	f2 0f 11 45 e4       	movsd  %xmm0,-0x1c(%ebp)
   12f3c:	be d6 bc 03 00       	mov    $0x3bcd6,%esi
   12f41:	b8 1b 00 00 00       	mov    $0x1b,%eax
   12f46:	8d 55 e4             	lea    -0x1c(%ebp),%edx
   12f49:	89 34 24             	mov    %esi,(%esp)
   12f4c:	89 44 24 04          	mov    %eax,0x4(%esp)
   12f50:	e8 ab f1 ff ff       	call   12100 <io.Writer.writeAll>
   12f55:	66 89 45 e2          	mov    %ax,-0x1e(%ebp)
   12f59:	66 83 f8 00          	cmp    $0x0,%ax
   12f5d:	75 36                	jne    12f95 <fmt.format__anon_2006+0x75>
   12f5f:	eb 46                	jmp    12fa7 <fmt.format__anon_2006+0x87>
   12f61:	8b 4d d8             	mov    -0x28(%ebp),%ecx
   12f64:	8b 45 d4             	mov    -0x2c(%ebp),%eax
   12f67:	f2 0f 10 00          	movsd  (%eax),%xmm0
   12f6b:	f2 0f 11 45 f0       	movsd  %xmm0,-0x10(%ebp)
   12f70:	be f4 bc 03 00       	mov    $0x3bcf4,%esi
   12f75:	b8 06 00 00 00       	mov    $0x6,%eax
   12f7a:	8d 55 f0             	lea    -0x10(%ebp),%edx
   12f7d:	89 34 24             	mov    %esi,(%esp)
   12f80:	89 44 24 04          	mov    %eax,0x4(%esp)
   12f84:	e8 77 f1 ff ff       	call   12100 <io.Writer.writeAll>
   12f89:	66 89 45 d2          	mov    %ax,-0x2e(%ebp)
   12f8d:	66 83 f8 00          	cmp    $0x0,%ax
   12f91:	75 69                	jne    12ffc <fmt.format__anon_2006+0xdc>
   12f93:	eb 79                	jmp    1300e <fmt.format__anon_2006+0xee>
   12f95:	8b 4d d8             	mov    -0x28(%ebp),%ecx
   12f98:	e8 b3 f2 ff ff       	call   12250 <builtin.returnError>
   12f9d:	66 8b 45 e2          	mov    -0x1e(%ebp),%ax
   12fa1:	83 c4 3c             	add    $0x3c,%esp
   12fa4:	5e                   	pop    %esi
   12fa5:	5d                   	pop    %ebp
   12fa6:	c3                   	ret
   12fa7:	8b 45 d4             	mov    -0x2c(%ebp),%eax
   12faa:	8b 4d d8             	mov    -0x28(%ebp),%ecx
   12fad:	8b 55 dc             	mov    -0x24(%ebp),%edx
   12fb0:	c7 45 ec 00 00 00 00 	movl   $0x0,-0x14(%ebp)
   12fb7:	8b 12                	mov    (%edx),%edx
   12fb9:	8d 35 34 b2 03 00    	lea    0x3b234,%esi
   12fbf:	89 34 24             	mov    %esi,(%esp)
   12fc2:	89 44 24 04          	mov    %eax,0x4(%esp)
   12fc6:	c7 44 24 08 03 00 00 	movl   $0x3,0x8(%esp)
   12fcd:	00 
   12fce:	e8 bd fe ff ff       	call   12e90 <fmt.formatType__anon_2005>
   12fd3:	66 89 45 d0          	mov    %ax,-0x30(%ebp)
   12fd7:	66 83 f8 00          	cmp    $0x0,%ax
   12fdb:	74 12                	je     12fef <fmt.format__anon_2006+0xcf>
   12fdd:	8b 4d d8             	mov    -0x28(%ebp),%ecx
   12fe0:	e8 6b f2 ff ff       	call   12250 <builtin.returnError>
   12fe5:	66 8b 45 d0          	mov    -0x30(%ebp),%ax
   12fe9:	83 c4 3c             	add    $0x3c,%esp
   12fec:	5e                   	pop    %esi
   12fed:	5d                   	pop    %ebp
   12fee:	c3                   	ret
   12fef:	e9 6d ff ff ff       	jmp    12f61 <fmt.format__anon_2006+0x41>
   12ff4:	31 c0                	xor    %eax,%eax
   12ff6:	83 c4 3c             	add    $0x3c,%esp
   12ff9:	5e                   	pop    %esi
   12ffa:	5d                   	pop    %ebp
   12ffb:	c3                   	ret
   12ffc:	8b 4d d8             	mov    -0x28(%ebp),%ecx
   12fff:	e8 4c f2 ff ff       	call   12250 <builtin.returnError>
   13004:	66 8b 45 d2          	mov    -0x2e(%ebp),%ax
   13008:	83 c4 3c             	add    $0x3c,%esp
   1300b:	5e                   	pop    %esi
   1300c:	5d                   	pop    %ebp
   1300d:	c3                   	ret
   1300e:	8b 45 d4             	mov    -0x2c(%ebp),%eax
   13011:	8b 4d d8             	mov    -0x28(%ebp),%ecx
   13014:	8b 55 dc             	mov    -0x24(%ebp),%edx
   13017:	c7 45 f8 01 00 00 00 	movl   $0x1,-0x8(%ebp)
   1301e:	8b 52 04             	mov    0x4(%edx),%edx
   13021:	8d 35 34 b2 03 00    	lea    0x3b234,%esi
   13027:	89 34 24             	mov    %esi,(%esp)
   1302a:	89 44 24 04          	mov    %eax,0x4(%esp)
   1302e:	c7 44 24 08 03 00 00 	movl   $0x3,0x8(%esp)
   13035:	00 
   13036:	e8 55 fe ff ff       	call   12e90 <fmt.formatType__anon_2005>
   1303b:	66 89 45 ce          	mov    %ax,-0x32(%ebp)
   1303f:	66 83 f8 00          	cmp    $0x0,%ax
   13043:	74 12                	je     13057 <fmt.format__anon_2006+0x137>
   13045:	8b 4d d8             	mov    -0x28(%ebp),%ecx
   13048:	e8 03 f2 ff ff       	call   12250 <builtin.returnError>
   1304d:	66 8b 45 ce          	mov    -0x32(%ebp),%ax
   13051:	83 c4 3c             	add    $0x3c,%esp
   13054:	5e                   	pop    %esi
   13055:	5d                   	pop    %ebp
   13056:	c3                   	ret
   13057:	eb 9b                	jmp    12ff4 <fmt.format__anon_2006+0xd4>
   13059:	0f 1f 80 00 00 00 00 	nopl   0x0(%eax)

00013060 <unicode.utf8ByteSequenceLength>:
   13060:	55                   	push   %ebp
   13061:	89 e5                	mov    %esp,%ebp
   13063:	83 ec 18             	sub    $0x18,%esp
   13066:	89 55 f0             	mov    %edx,-0x10(%ebp)
   13069:	89 4d f4             	mov    %ecx,-0xc(%ebp)
   1306c:	89 4d f8             	mov    %ecx,-0x8(%ebp)
   1306f:	8a 45 08             	mov    0x8(%ebp),%al
   13072:	88 45 ff             	mov    %al,-0x1(%ebp)
   13075:	eb 15                	jmp    1308c <unicode.utf8ByteSequenceLength+0x2c>
   13077:	8b 45 e8             	mov    -0x18(%ebp),%eax
   1307a:	89 45 ec             	mov    %eax,-0x14(%ebp)
   1307d:	66 83 38 00          	cmpw   $0x0,(%eax)
   13081:	0f 84 9e 00 00 00    	je     13125 <unicode.utf8ByteSequenceLength+0xc5>
   13087:	e9 ab 00 00 00       	jmp    13137 <unicode.utf8ByteSequenceLength+0xd7>
   1308c:	8a 4d ff             	mov    -0x1(%ebp),%cl
   1308f:	80 f9 00             	cmp    $0x0,%cl
   13092:	0f 93 c0             	setae  %al
   13095:	80 f9 7f             	cmp    $0x7f,%cl
   13098:	0f 96 c1             	setbe  %cl
   1309b:	20 c8                	and    %cl,%al
   1309d:	a8 01                	test   $0x1,%al
   1309f:	75 02                	jne    130a3 <unicode.utf8ByteSequenceLength+0x43>
   130a1:	eb 0b                	jmp    130ae <unicode.utf8ByteSequenceLength+0x4e>
   130a3:	8d 05 a8 be 03 00    	lea    0x3bea8,%eax
   130a9:	89 45 e8             	mov    %eax,-0x18(%ebp)
   130ac:	eb c9                	jmp    13077 <unicode.utf8ByteSequenceLength+0x17>
   130ae:	8a 4d ff             	mov    -0x1(%ebp),%cl
   130b1:	80 f9 c0             	cmp    $0xc0,%cl
   130b4:	0f 93 c0             	setae  %al
   130b7:	80 f9 df             	cmp    $0xdf,%cl
   130ba:	0f 96 c1             	setbe  %cl
   130bd:	20 c8                	and    %cl,%al
   130bf:	a8 01                	test   $0x1,%al
   130c1:	75 02                	jne    130c5 <unicode.utf8ByteSequenceLength+0x65>
   130c3:	eb 0b                	jmp    130d0 <unicode.utf8ByteSequenceLength+0x70>
   130c5:	8d 05 ac be 03 00    	lea    0x3beac,%eax
   130cb:	89 45 e8             	mov    %eax,-0x18(%ebp)
   130ce:	eb a7                	jmp    13077 <unicode.utf8ByteSequenceLength+0x17>
   130d0:	8a 4d ff             	mov    -0x1(%ebp),%cl
   130d3:	80 f9 e0             	cmp    $0xe0,%cl
   130d6:	0f 93 c0             	setae  %al
   130d9:	80 f9 ef             	cmp    $0xef,%cl
   130dc:	0f 96 c1             	setbe  %cl
   130df:	20 c8                	and    %cl,%al
   130e1:	a8 01                	test   $0x1,%al
   130e3:	75 02                	jne    130e7 <unicode.utf8ByteSequenceLength+0x87>
   130e5:	eb 0b                	jmp    130f2 <unicode.utf8ByteSequenceLength+0x92>
   130e7:	8d 05 dc be 03 00    	lea    0x3bedc,%eax
   130ed:	89 45 e8             	mov    %eax,-0x18(%ebp)
   130f0:	eb 85                	jmp    13077 <unicode.utf8ByteSequenceLength+0x17>
   130f2:	8a 4d ff             	mov    -0x1(%ebp),%cl
   130f5:	80 f9 f0             	cmp    $0xf0,%cl
   130f8:	0f 93 c0             	setae  %al
   130fb:	80 f9 f7             	cmp    $0xf7,%cl
   130fe:	0f 96 c1             	setbe  %cl
   13101:	20 c8                	and    %cl,%al
   13103:	a8 01                	test   $0x1,%al
   13105:	75 02                	jne    13109 <unicode.utf8ByteSequenceLength+0xa9>
   13107:	eb 0e                	jmp    13117 <unicode.utf8ByteSequenceLength+0xb7>
   13109:	8d 05 6c be 03 00    	lea    0x3be6c,%eax
   1310f:	89 45 e8             	mov    %eax,-0x18(%ebp)
   13112:	e9 60 ff ff ff       	jmp    13077 <unicode.utf8ByteSequenceLength+0x17>
   13117:	8d 05 c4 be 03 00    	lea    0x3bec4,%eax
   1311d:	89 45 e8             	mov    %eax,-0x18(%ebp)
   13120:	e9 52 ff ff ff       	jmp    13077 <unicode.utf8ByteSequenceLength+0x17>
   13125:	8b 45 f8             	mov    -0x8(%ebp),%eax
   13128:	8b 4d f4             	mov    -0xc(%ebp),%ecx
   1312b:	8b 55 ec             	mov    -0x14(%ebp),%edx
   1312e:	8b 12                	mov    (%edx),%edx
   13130:	89 11                	mov    %edx,(%ecx)
   13132:	83 c4 18             	add    $0x18,%esp
   13135:	5d                   	pop    %ebp
   13136:	c3                   	ret
   13137:	8b 4d f0             	mov    -0x10(%ebp),%ecx
   1313a:	e8 11 f1 ff ff       	call   12250 <builtin.returnError>
   1313f:	8b 55 ec             	mov    -0x14(%ebp),%edx
   13142:	8b 4d f4             	mov    -0xc(%ebp),%ecx
   13145:	8b 45 f8             	mov    -0x8(%ebp),%eax
   13148:	8b 12                	mov    (%edx),%edx
   1314a:	89 11                	mov    %edx,(%ecx)
   1314c:	83 c4 18             	add    $0x18,%esp
   1314f:	5d                   	pop    %ebp
   13150:	c3                   	ret
   13151:	66 2e 0f 1f 84 00 00 	nopw   %cs:0x0(%eax,%eax,1)
   13158:	00 00 00 
   1315b:	0f 1f 44 00 00       	nopl   0x0(%eax,%eax,1)

00013160 <unicode.utf8CountCodepoints>:
   13160:	55                   	push   %ebp
   13161:	89 e5                	mov    %esp,%ebp
   13163:	56                   	push   %esi
   13164:	81 ec b8 00 00 00    	sub    $0xb8,%esp
   1316a:	89 55 90             	mov    %edx,-0x70(%ebp)
   1316d:	89 4d 94             	mov    %ecx,-0x6c(%ebp)
   13170:	89 4d 98             	mov    %ecx,-0x68(%ebp)
   13173:	8b 4d 0c             	mov    0xc(%ebp),%ecx
   13176:	8b 45 08             	mov    0x8(%ebp),%eax
   13179:	89 ca                	mov    %ecx,%edx
   1317b:	89 55 9c             	mov    %edx,-0x64(%ebp)
   1317e:	89 c2                	mov    %eax,%edx
   13180:	89 55 a0             	mov    %edx,-0x60(%ebp)
   13183:	89 4d a8             	mov    %ecx,-0x58(%ebp)
   13186:	89 45 a4             	mov    %eax,-0x5c(%ebp)
   13189:	c7 45 ac 00 00 00 00 	movl   $0x0,-0x54(%ebp)
   13190:	c7 45 b0 00 00 00 00 	movl   $0x0,-0x50(%ebp)
   13197:	eb 26                	jmp    131bf <unicode.utf8CountCodepoints+0x5f>
   13199:	8b 45 98             	mov    -0x68(%ebp),%eax
   1319c:	8b 4d 94             	mov    -0x6c(%ebp),%ecx
   1319f:	8b 55 ac             	mov    -0x54(%ebp),%edx
   131a2:	66 c7 45 f8 00 00    	movw   $0x0,-0x8(%ebp)
   131a8:	89 55 f4             	mov    %edx,-0xc(%ebp)
   131ab:	8b 55 f4             	mov    -0xc(%ebp),%edx
   131ae:	89 11                	mov    %edx,(%ecx)
   131b0:	8b 55 f8             	mov    -0x8(%ebp),%edx
   131b3:	89 51 04             	mov    %edx,0x4(%ecx)
   131b6:	81 c4 b8 00 00 00    	add    $0xb8,%esp
   131bc:	5e                   	pop    %esi
   131bd:	5d                   	pop    %ebp
   131be:	c3                   	ret
   131bf:	8b 4d 9c             	mov    -0x64(%ebp),%ecx
   131c2:	8b 45 b0             	mov    -0x50(%ebp),%eax
   131c5:	39 c8                	cmp    %ecx,%eax
   131c7:	72 04                	jb     131cd <unicode.utf8CountCodepoints+0x6d>
   131c9:	eb 04                	jmp    131cf <unicode.utf8CountCodepoints+0x6f>
   131cb:	eb f2                	jmp    131bf <unicode.utf8CountCodepoints+0x5f>
   131cd:	eb 15                	jmp    131e4 <unicode.utf8CountCodepoints+0x84>
   131cf:	eb c8                	jmp    13199 <unicode.utf8CountCodepoints+0x39>
   131d1:	8b 4d 9c             	mov    -0x64(%ebp),%ecx
   131d4:	8b 45 b0             	mov    -0x50(%ebp),%eax
   131d7:	39 c8                	cmp    %ecx,%eax
   131d9:	0f 82 43 01 00 00    	jb     13322 <unicode.utf8CountCodepoints+0x1c2>
   131df:	e9 50 01 00 00       	jmp    13334 <unicode.utf8CountCodepoints+0x1d4>
   131e4:	8b 45 b0             	mov    -0x50(%ebp),%eax
   131e7:	83 c0 04             	add    $0x4,%eax
   131ea:	89 45 8c             	mov    %eax,-0x74(%ebp)
   131ed:	0f 92 c0             	setb   %al
   131f0:	72 04                	jb     131f6 <unicode.utf8CountCodepoints+0x96>
   131f2:	eb 25                	jmp    13219 <unicode.utf8CountCodepoints+0xb9>
   131f4:	eb ee                	jmp    131e4 <unicode.utf8CountCodepoints+0x84>
   131f6:	8d 0d 3b bc 03 00    	lea    0x3bc3b,%ecx
   131fc:	ba 10 00 00 00       	mov    $0x10,%edx
   13201:	31 c0                	xor    %eax,%eax
   13203:	8d 05 48 b8 03 00    	lea    0x3b848,%eax
   13209:	c7 04 24 00 00 00 00 	movl   $0x0,(%esp)
   13210:	89 44 24 04          	mov    %eax,0x4(%esp)
   13214:	e8 07 e6 ff ff       	call   11820 <builtin.default_panic>
   13219:	8b 45 8c             	mov    -0x74(%ebp),%eax
   1321c:	8b 4d 9c             	mov    -0x64(%ebp),%ecx
   1321f:	39 c8                	cmp    %ecx,%eax
   13221:	77 29                	ja     1324c <unicode.utf8CountCodepoints+0xec>
   13223:	8b 45 9c             	mov    -0x64(%ebp),%eax
   13226:	8b 4d a0             	mov    -0x60(%ebp),%ecx
   13229:	89 4d b4             	mov    %ecx,-0x4c(%ebp)
   1322c:	89 45 b8             	mov    %eax,-0x48(%ebp)
   1322f:	8b 45 b0             	mov    -0x50(%ebp),%eax
   13232:	8b 55 b4             	mov    -0x4c(%ebp),%edx
   13235:	8b 4d b8             	mov    -0x48(%ebp),%ecx
   13238:	89 4d 80             	mov    %ecx,-0x80(%ebp)
   1323b:	01 c2                	add    %eax,%edx
   1323d:	89 55 84             	mov    %edx,-0x7c(%ebp)
   13240:	83 c0 04             	add    $0x4,%eax
   13243:	89 45 88             	mov    %eax,-0x78(%ebp)
   13246:	39 c8                	cmp    %ecx,%eax
   13248:	76 35                	jbe    1327f <unicode.utf8CountCodepoints+0x11f>
   1324a:	eb 35                	jmp    13281 <unicode.utf8CountCodepoints+0x121>
   1324c:	eb 83                	jmp    131d1 <unicode.utf8CountCodepoints+0x71>
   1324e:	8b 45 b0             	mov    -0x50(%ebp),%eax
   13251:	83 c0 04             	add    $0x4,%eax
   13254:	89 85 7c ff ff ff    	mov    %eax,-0x84(%ebp)
   1325a:	0f 92 c0             	setb   %al
   1325d:	0f 82 89 00 00 00    	jb     132ec <unicode.utf8CountCodepoints+0x18c>
   13263:	e9 a7 00 00 00       	jmp    1330f <unicode.utf8CountCodepoints+0x1af>
   13268:	8b 45 84             	mov    -0x7c(%ebp),%eax
   1326b:	89 45 bc             	mov    %eax,-0x44(%ebp)
   1326e:	c6 45 c3 01          	movb   $0x1,-0x3d(%ebp)
   13272:	8b 00                	mov    (%eax),%eax
   13274:	89 45 c4             	mov    %eax,-0x3c(%ebp)
   13277:	89 85 78 ff ff ff    	mov    %eax,-0x88(%ebp)
   1327d:	eb 0d                	jmp    1328c <unicode.utf8CountCodepoints+0x12c>
   1327f:	eb e7                	jmp    13268 <unicode.utf8CountCodepoints+0x108>
   13281:	8b 55 80             	mov    -0x80(%ebp),%edx
   13284:	8b 4d 88             	mov    -0x78(%ebp),%ecx
   13287:	e8 44 e6 ff ff       	call   118d0 <builtin.panicOutOfBounds>
   1328c:	8b 85 78 ff ff ff    	mov    -0x88(%ebp),%eax
   13292:	89 45 c8             	mov    %eax,-0x38(%ebp)
   13295:	25 80 80 80 80       	and    $0x80808080,%eax
   1329a:	83 f8 00             	cmp    $0x0,%eax
   1329d:	75 15                	jne    132b4 <unicode.utf8CountCodepoints+0x154>
   1329f:	eb 18                	jmp    132b9 <unicode.utf8CountCodepoints+0x159>
   132a1:	8b 45 ac             	mov    -0x54(%ebp),%eax
   132a4:	83 c0 04             	add    $0x4,%eax
   132a7:	89 85 74 ff ff ff    	mov    %eax,-0x8c(%ebp)
   132ad:	0f 92 c0             	setb   %al
   132b0:	72 09                	jb     132bb <unicode.utf8CountCodepoints+0x15b>
   132b2:	eb 2a                	jmp    132de <unicode.utf8CountCodepoints+0x17e>
   132b4:	e9 18 ff ff ff       	jmp    131d1 <unicode.utf8CountCodepoints+0x71>
   132b9:	eb e6                	jmp    132a1 <unicode.utf8CountCodepoints+0x141>
   132bb:	8d 0d 3b bc 03 00    	lea    0x3bc3b,%ecx
   132c1:	ba 10 00 00 00       	mov    $0x10,%edx
   132c6:	31 c0                	xor    %eax,%eax
   132c8:	8d 05 48 b8 03 00    	lea    0x3b848,%eax
   132ce:	c7 04 24 00 00 00 00 	movl   $0x0,(%esp)
   132d5:	89 44 24 04          	mov    %eax,0x4(%esp)
   132d9:	e8 42 e5 ff ff       	call   11820 <builtin.default_panic>
   132de:	8b 85 74 ff ff ff    	mov    -0x8c(%ebp),%eax
   132e4:	89 45 ac             	mov    %eax,-0x54(%ebp)
   132e7:	e9 62 ff ff ff       	jmp    1324e <unicode.utf8CountCodepoints+0xee>
   132ec:	8d 0d 3b bc 03 00    	lea    0x3bc3b,%ecx
   132f2:	ba 10 00 00 00       	mov    $0x10,%edx
   132f7:	31 c0                	xor    %eax,%eax
   132f9:	8d 05 48 b8 03 00    	lea    0x3b848,%eax
   132ff:	c7 04 24 00 00 00 00 	movl   $0x0,(%esp)
   13306:	89 44 24 04          	mov    %eax,0x4(%esp)
   1330a:	e8 11 e5 ff ff       	call   11820 <builtin.default_panic>
   1330f:	8b 85 7c ff ff ff    	mov    -0x84(%ebp),%eax
   13315:	89 45 b0             	mov    %eax,-0x50(%ebp)
   13318:	e9 d7 fe ff ff       	jmp    131f4 <unicode.utf8CountCodepoints+0x94>
   1331d:	e9 a9 fe ff ff       	jmp    131cb <unicode.utf8CountCodepoints+0x6b>
   13322:	8b 4d 9c             	mov    -0x64(%ebp),%ecx
   13325:	8b 45 b0             	mov    -0x50(%ebp),%eax
   13328:	89 85 70 ff ff ff    	mov    %eax,-0x90(%ebp)
   1332e:	39 c8                	cmp    %ecx,%eax
   13330:	72 28                	jb     1335a <unicode.utf8CountCodepoints+0x1fa>
   13332:	eb 28                	jmp    1335c <unicode.utf8CountCodepoints+0x1fc>
   13334:	eb e7                	jmp    1331d <unicode.utf8CountCodepoints+0x1bd>
   13336:	8b 45 a0             	mov    -0x60(%ebp),%eax
   13339:	8b b5 70 ff ff ff    	mov    -0x90(%ebp),%esi
   1333f:	8b 55 90             	mov    -0x70(%ebp),%edx
   13342:	8d 4d cc             	lea    -0x34(%ebp),%ecx
   13345:	0f b6 04 30          	movzbl (%eax,%esi,1),%eax
   13349:	89 04 24             	mov    %eax,(%esp)
   1334c:	e8 0f fd ff ff       	call   13060 <unicode.utf8ByteSequenceLength>
   13351:	66 83 7d cc 00       	cmpw   $0x0,-0x34(%ebp)
   13356:	75 12                	jne    1336a <unicode.utf8CountCodepoints+0x20a>
   13358:	eb 3a                	jmp    13394 <unicode.utf8CountCodepoints+0x234>
   1335a:	eb da                	jmp    13336 <unicode.utf8CountCodepoints+0x1d6>
   1335c:	8b 55 9c             	mov    -0x64(%ebp),%edx
   1335f:	8b 8d 70 ff ff ff    	mov    -0x90(%ebp),%ecx
   13365:	e8 66 e5 ff ff       	call   118d0 <builtin.panicOutOfBounds>
   1336a:	8b 4d 90             	mov    -0x70(%ebp),%ecx
   1336d:	66 8b 45 cc          	mov    -0x34(%ebp),%ax
   13371:	66 89 45 d4          	mov    %ax,-0x2c(%ebp)
   13375:	e8 d6 ee ff ff       	call   12250 <builtin.returnError>
   1337a:	8b 4d 94             	mov    -0x6c(%ebp),%ecx
   1337d:	8b 45 98             	mov    -0x68(%ebp),%eax
   13380:	8b 55 d0             	mov    -0x30(%ebp),%edx
   13383:	89 11                	mov    %edx,(%ecx)
   13385:	8b 55 d4             	mov    -0x2c(%ebp),%edx
   13388:	89 51 04             	mov    %edx,0x4(%ecx)
   1338b:	81 c4 b8 00 00 00    	add    $0xb8,%esp
   13391:	5e                   	pop    %esi
   13392:	5d                   	pop    %ebp
   13393:	c3                   	ret
   13394:	0f b6 4d ce          	movzbl -0x32(%ebp),%ecx
   13398:	89 c8                	mov    %ecx,%eax
   1339a:	88 85 6b ff ff ff    	mov    %al,-0x95(%ebp)
   133a0:	88 45 db             	mov    %al,-0x25(%ebp)
   133a3:	8b 45 b0             	mov    -0x50(%ebp),%eax
   133a6:	01 c8                	add    %ecx,%eax
   133a8:	89 85 6c ff ff ff    	mov    %eax,-0x94(%ebp)
   133ae:	0f 92 c0             	setb   %al
   133b1:	72 14                	jb     133c7 <unicode.utf8CountCodepoints+0x267>
   133b3:	eb 35                	jmp    133ea <unicode.utf8CountCodepoints+0x28a>
   133b5:	8a 85 6b ff ff ff    	mov    -0x95(%ebp),%al
   133bb:	24 07                	and    $0x7,%al
   133bd:	2c 01                	sub    $0x1,%al
   133bf:	0f 84 ca 00 00 00    	je     1348f <unicode.utf8CountCodepoints+0x32f>
   133c5:	eb 7f                	jmp    13446 <unicode.utf8CountCodepoints+0x2e6>
   133c7:	8d 0d 3b bc 03 00    	lea    0x3bc3b,%ecx
   133cd:	ba 10 00 00 00       	mov    $0x10,%edx
   133d2:	31 c0                	xor    %eax,%eax
   133d4:	8d 05 48 b8 03 00    	lea    0x3b848,%eax
   133da:	c7 04 24 00 00 00 00 	movl   $0x0,(%esp)
   133e1:	89 44 24 04          	mov    %eax,0x4(%esp)
   133e5:	e8 36 e4 ff ff       	call   11820 <builtin.default_panic>
   133ea:	8b 85 6c ff ff ff    	mov    -0x94(%ebp),%eax
   133f0:	8b 4d 9c             	mov    -0x64(%ebp),%ecx
   133f3:	39 c8                	cmp    %ecx,%eax
   133f5:	76 28                	jbe    1341f <unicode.utf8CountCodepoints+0x2bf>
   133f7:	8b 4d 90             	mov    -0x70(%ebp),%ecx
   133fa:	e8 51 ee ff ff       	call   12250 <builtin.returnError>
   133ff:	8b 4d 94             	mov    -0x6c(%ebp),%ecx
   13402:	8b 45 98             	mov    -0x68(%ebp),%eax
   13405:	8b 15 98 b7 03 00    	mov    0x3b798,%edx
   1340b:	89 11                	mov    %edx,(%ecx)
   1340d:	8b 15 9c b7 03 00    	mov    0x3b79c,%edx
   13413:	89 51 04             	mov    %edx,0x4(%ecx)
   13416:	81 c4 b8 00 00 00    	add    $0xb8,%esp
   1341c:	5e                   	pop    %esi
   1341d:	5d                   	pop    %ebp
   1341e:	c3                   	ret
   1341f:	eb 94                	jmp    133b5 <unicode.utf8CountCodepoints+0x255>
   13421:	8a 8d 6b ff ff ff    	mov    -0x95(%ebp),%cl
   13427:	8b 45 b0             	mov    -0x50(%ebp),%eax
   1342a:	0f b6 c9             	movzbl %cl,%ecx
   1342d:	83 e1 07             	and    $0x7,%ecx
   13430:	01 c8                	add    %ecx,%eax
   13432:	89 85 64 ff ff ff    	mov    %eax,-0x9c(%ebp)
   13438:	0f 92 c0             	setb   %al
   1343b:	0f 82 de 00 00 00    	jb     1351f <unicode.utf8CountCodepoints+0x3bf>
   13441:	e9 fc 00 00 00       	jmp    13542 <unicode.utf8CountCodepoints+0x3e2>
   13446:	8a 95 6b ff ff ff    	mov    -0x95(%ebp),%dl
   1344c:	8b 45 9c             	mov    -0x64(%ebp),%eax
   1344f:	8b 4d a0             	mov    -0x60(%ebp),%ecx
   13452:	89 4d dc             	mov    %ecx,-0x24(%ebp)
   13455:	89 45 e0             	mov    %eax,-0x20(%ebp)
   13458:	8b 45 b0             	mov    -0x50(%ebp),%eax
   1345b:	89 85 50 ff ff ff    	mov    %eax,-0xb0(%ebp)
   13461:	8b 75 dc             	mov    -0x24(%ebp),%esi
   13464:	8b 4d e0             	mov    -0x20(%ebp),%ecx
   13467:	89 8d 54 ff ff ff    	mov    %ecx,-0xac(%ebp)
   1346d:	01 c6                	add    %eax,%esi
   1346f:	89 b5 58 ff ff ff    	mov    %esi,-0xa8(%ebp)
   13475:	0f b6 d2             	movzbl %dl,%edx
   13478:	83 e2 07             	and    $0x7,%edx
   1347b:	89 95 5c ff ff ff    	mov    %edx,-0xa4(%ebp)
   13481:	01 d0                	add    %edx,%eax
   13483:	89 85 60 ff ff ff    	mov    %eax,-0xa0(%ebp)
   13489:	39 c8                	cmp    %ecx,%eax
   1348b:	76 16                	jbe    134a3 <unicode.utf8CountCodepoints+0x343>
   1348d:	eb 16                	jmp    134a5 <unicode.utf8CountCodepoints+0x345>
   1348f:	eb 90                	jmp    13421 <unicode.utf8CountCodepoints+0x2c1>
   13491:	8b 85 50 ff ff ff    	mov    -0xb0(%ebp),%eax
   13497:	8b 8d 60 ff ff ff    	mov    -0xa0(%ebp),%ecx
   1349d:	39 c8                	cmp    %ecx,%eax
   1349f:	76 3c                	jbe    134dd <unicode.utf8CountCodepoints+0x37d>
   134a1:	eb 3c                	jmp    134df <unicode.utf8CountCodepoints+0x37f>
   134a3:	eb ec                	jmp    13491 <unicode.utf8CountCodepoints+0x331>
   134a5:	8b 95 54 ff ff ff    	mov    -0xac(%ebp),%edx
   134ab:	8b 8d 60 ff ff ff    	mov    -0xa0(%ebp),%ecx
   134b1:	e8 1a e4 ff ff       	call   118d0 <builtin.panicOutOfBounds>
   134b6:	8b 55 90             	mov    -0x70(%ebp),%edx
   134b9:	8b b5 58 ff ff ff    	mov    -0xa8(%ebp),%esi
   134bf:	8b 85 5c ff ff ff    	mov    -0xa4(%ebp),%eax
   134c5:	8d 4d e4             	lea    -0x1c(%ebp),%ecx
   134c8:	89 34 24             	mov    %esi,(%esp)
   134cb:	89 44 24 04          	mov    %eax,0x4(%esp)
   134cf:	e8 bc 00 00 00       	call   13590 <unicode.utf8Decode>
   134d4:	66 83 7d e8 00       	cmpw   $0x0,-0x18(%ebp)
   134d9:	75 15                	jne    134f0 <unicode.utf8CountCodepoints+0x390>
   134db:	eb 3d                	jmp    1351a <unicode.utf8CountCodepoints+0x3ba>
   134dd:	eb d7                	jmp    134b6 <unicode.utf8CountCodepoints+0x356>
   134df:	8b 95 60 ff ff ff    	mov    -0xa0(%ebp),%edx
   134e5:	8b 8d 50 ff ff ff    	mov    -0xb0(%ebp),%ecx
   134eb:	e8 e0 e3 ff ff       	call   118d0 <builtin.panicOutOfBounds>
   134f0:	8b 4d 90             	mov    -0x70(%ebp),%ecx
   134f3:	66 8b 45 e8          	mov    -0x18(%ebp),%ax
   134f7:	66 89 45 f0          	mov    %ax,-0x10(%ebp)
   134fb:	e8 50 ed ff ff       	call   12250 <builtin.returnError>
   13500:	8b 4d 94             	mov    -0x6c(%ebp),%ecx
   13503:	8b 45 98             	mov    -0x68(%ebp),%eax
   13506:	8b 55 ec             	mov    -0x14(%ebp),%edx
   13509:	89 11                	mov    %edx,(%ecx)
   1350b:	8b 55 f0             	mov    -0x10(%ebp),%edx
   1350e:	89 51 04             	mov    %edx,0x4(%ecx)
   13511:	81 c4 b8 00 00 00    	add    $0xb8,%esp
   13517:	5e                   	pop    %esi
   13518:	5d                   	pop    %ebp
   13519:	c3                   	ret
   1351a:	e9 02 ff ff ff       	jmp    13421 <unicode.utf8CountCodepoints+0x2c1>
   1351f:	8d 0d 3b bc 03 00    	lea    0x3bc3b,%ecx
   13525:	ba 10 00 00 00       	mov    $0x10,%edx
   1352a:	31 c0                	xor    %eax,%eax
   1352c:	8d 05 48 b8 03 00    	lea    0x3b848,%eax
   13532:	c7 04 24 00 00 00 00 	movl   $0x0,(%esp)
   13539:	89 44 24 04          	mov    %eax,0x4(%esp)
   1353d:	e8 de e2 ff ff       	call   11820 <builtin.default_panic>
   13542:	8b 85 64 ff ff ff    	mov    -0x9c(%ebp),%eax
   13548:	89 45 b0             	mov    %eax,-0x50(%ebp)
   1354b:	8b 45 ac             	mov    -0x54(%ebp),%eax
   1354e:	83 c0 01             	add    $0x1,%eax
   13551:	89 85 4c ff ff ff    	mov    %eax,-0xb4(%ebp)
   13557:	0f 92 c0             	setb   %al
   1355a:	72 02                	jb     1355e <unicode.utf8CountCodepoints+0x3fe>
   1355c:	eb 23                	jmp    13581 <unicode.utf8CountCodepoints+0x421>
   1355e:	8d 0d 3b bc 03 00    	lea    0x3bc3b,%ecx
   13564:	ba 10 00 00 00       	mov    $0x10,%edx
   13569:	31 c0                	xor    %eax,%eax
   1356b:	8d 05 48 b8 03 00    	lea    0x3b848,%eax
   13571:	c7 04 24 00 00 00 00 	movl   $0x0,(%esp)
   13578:	89 44 24 04          	mov    %eax,0x4(%esp)
   1357c:	e8 9f e2 ff ff       	call   11820 <builtin.default_panic>
   13581:	8b 85 4c ff ff ff    	mov    -0xb4(%ebp),%eax
   13587:	89 45 ac             	mov    %eax,-0x54(%ebp)
   1358a:	e9 8e fd ff ff       	jmp    1331d <unicode.utf8CountCodepoints+0x1bd>
   1358f:	90                   	nop

00013590 <unicode.utf8Decode>:
   13590:	55                   	push   %ebp
   13591:	89 e5                	mov    %esp,%ebp
   13593:	56                   	push   %esi
   13594:	83 ec 50             	sub    $0x50,%esp
   13597:	89 55 bc             	mov    %edx,-0x44(%ebp)
   1359a:	89 4d c0             	mov    %ecx,-0x40(%ebp)
   1359d:	89 4d c4             	mov    %ecx,-0x3c(%ebp)
   135a0:	8b 45 0c             	mov    0xc(%ebp),%eax
   135a3:	8b 4d 08             	mov    0x8(%ebp),%ecx
   135a6:	89 c2                	mov    %eax,%edx
   135a8:	89 55 c8             	mov    %edx,-0x38(%ebp)
   135ab:	89 ca                	mov    %ecx,%edx
   135ad:	89 55 cc             	mov    %edx,-0x34(%ebp)
   135b0:	89 45 d8             	mov    %eax,-0x28(%ebp)
   135b3:	89 4d d4             	mov    %ecx,-0x2c(%ebp)
   135b6:	48                   	dec    %eax
   135b7:	89 45 d0             	mov    %eax,-0x30(%ebp)
   135ba:	83 e8 03             	sub    $0x3,%eax
   135bd:	77 22                	ja     135e1 <unicode.utf8Decode+0x51>
   135bf:	8b 45 d0             	mov    -0x30(%ebp),%eax
   135c2:	8b 04 85 00 b0 03 00 	mov    0x3b000(,%eax,4),%eax
   135c9:	ff e0                	jmp    *%eax
   135cb:	8b 45 b4             	mov    -0x4c(%ebp),%eax
   135ce:	89 45 b8             	mov    %eax,-0x48(%ebp)
   135d1:	66 83 78 04 00       	cmpw   $0x0,0x4(%eax)
   135d6:	0f 84 c3 00 00 00    	je     1369f <unicode.utf8Decode+0x10f>
   135dc:	e9 d7 00 00 00       	jmp    136b8 <unicode.utf8Decode+0x128>
   135e1:	b9 78 bc 03 00       	mov    $0x3bc78,%ecx
   135e6:	ba 18 00 00 00       	mov    $0x18,%edx
   135eb:	31 c0                	xor    %eax,%eax
   135ed:	8d 05 48 b8 03 00    	lea    0x3b848,%eax
   135f3:	c7 04 24 00 00 00 00 	movl   $0x0,(%esp)
   135fa:	89 44 24 04          	mov    %eax,0x4(%esp)
   135fe:	e8 1d e2 ff ff       	call   11820 <builtin.default_panic>
   13603:	8b 4d c8             	mov    -0x38(%ebp),%ecx
   13606:	31 c0                	xor    %eax,%eax
   13608:	39 c8                	cmp    %ecx,%eax
   1360a:	72 1e                	jb     1362a <unicode.utf8Decode+0x9a>
   1360c:	eb 1e                	jmp    1362c <unicode.utf8Decode+0x9c>
   1360e:	8b 45 cc             	mov    -0x34(%ebp),%eax
   13611:	0f b6 00             	movzbl (%eax),%eax
   13614:	66 c7 45 e0 00 00    	movw   $0x0,-0x20(%ebp)
   1361a:	66 89 45 dc          	mov    %ax,-0x24(%ebp)
   1361e:	c6 45 de 00          	movb   $0x0,-0x22(%ebp)
   13622:	8d 45 dc             	lea    -0x24(%ebp),%eax
   13625:	89 45 b4             	mov    %eax,-0x4c(%ebp)
   13628:	eb a1                	jmp    135cb <unicode.utf8Decode+0x3b>
   1362a:	eb e2                	jmp    1360e <unicode.utf8Decode+0x7e>
   1362c:	8b 55 c8             	mov    -0x38(%ebp),%edx
   1362f:	31 c9                	xor    %ecx,%ecx
   13631:	e8 9a e2 ff ff       	call   118d0 <builtin.panicOutOfBounds>
   13636:	8b 45 c8             	mov    -0x38(%ebp),%eax
   13639:	8b 75 cc             	mov    -0x34(%ebp),%esi
   1363c:	8b 55 bc             	mov    -0x44(%ebp),%edx
   1363f:	8d 4d e4             	lea    -0x1c(%ebp),%ecx
   13642:	89 34 24             	mov    %esi,(%esp)
   13645:	89 44 24 04          	mov    %eax,0x4(%esp)
   13649:	e8 52 11 00 00       	call   147a0 <unicode.utf8Decode2>
   1364e:	8d 45 e4             	lea    -0x1c(%ebp),%eax
   13651:	89 45 b4             	mov    %eax,-0x4c(%ebp)
   13654:	e9 72 ff ff ff       	jmp    135cb <unicode.utf8Decode+0x3b>
   13659:	8b 45 c8             	mov    -0x38(%ebp),%eax
   1365c:	8b 75 cc             	mov    -0x34(%ebp),%esi
   1365f:	8b 55 bc             	mov    -0x44(%ebp),%edx
   13662:	8d 4d ec             	lea    -0x14(%ebp),%ecx
   13665:	89 34 24             	mov    %esi,(%esp)
   13668:	89 44 24 04          	mov    %eax,0x4(%esp)
   1366c:	e8 ff 12 00 00       	call   14970 <unicode.utf8Decode3>
   13671:	8d 45 ec             	lea    -0x14(%ebp),%eax
   13674:	89 45 b4             	mov    %eax,-0x4c(%ebp)
   13677:	e9 4f ff ff ff       	jmp    135cb <unicode.utf8Decode+0x3b>
   1367c:	8b 45 c8             	mov    -0x38(%ebp),%eax
   1367f:	8b 75 cc             	mov    -0x34(%ebp),%esi
   13682:	8b 55 bc             	mov    -0x44(%ebp),%edx
   13685:	8d 4d f4             	lea    -0xc(%ebp),%ecx
   13688:	89 34 24             	mov    %esi,(%esp)
   1368b:	89 44 24 04          	mov    %eax,0x4(%esp)
   1368f:	e8 ec 13 00 00       	call   14a80 <unicode.utf8Decode4>
   13694:	8d 45 f4             	lea    -0xc(%ebp),%eax
   13697:	89 45 b4             	mov    %eax,-0x4c(%ebp)
   1369a:	e9 2c ff ff ff       	jmp    135cb <unicode.utf8Decode+0x3b>
   1369f:	8b 45 c4             	mov    -0x3c(%ebp),%eax
   136a2:	8b 4d c0             	mov    -0x40(%ebp),%ecx
   136a5:	8b 55 b8             	mov    -0x48(%ebp),%edx
   136a8:	8b 32                	mov    (%edx),%esi
   136aa:	89 31                	mov    %esi,(%ecx)
   136ac:	8b 52 04             	mov    0x4(%edx),%edx
   136af:	89 51 04             	mov    %edx,0x4(%ecx)
   136b2:	83 c4 50             	add    $0x50,%esp
   136b5:	5e                   	pop    %esi
   136b6:	5d                   	pop    %ebp
   136b7:	c3                   	ret
   136b8:	8b 4d bc             	mov    -0x44(%ebp),%ecx
   136bb:	e8 90 eb ff ff       	call   12250 <builtin.returnError>
   136c0:	8b 55 b8             	mov    -0x48(%ebp),%edx
   136c3:	8b 4d c0             	mov    -0x40(%ebp),%ecx
   136c6:	8b 45 c4             	mov    -0x3c(%ebp),%eax
   136c9:	8b 32                	mov    (%edx),%esi
   136cb:	89 31                	mov    %esi,(%ecx)
   136cd:	8b 52 04             	mov    0x4(%edx),%edx
   136d0:	89 51 04             	mov    %edx,0x4(%ecx)
   136d3:	83 c4 50             	add    $0x50,%esp
   136d6:	5e                   	pop    %esi
   136d7:	5d                   	pop    %ebp
   136d8:	c3                   	ret
   136d9:	0f 1f 80 00 00 00 00 	nopl   0x0(%eax)

000136e0 <fmt.formatBuf__anon_2017>:
   136e0:	55                   	push   %ebp
   136e1:	89 e5                	mov    %esp,%ebp
   136e3:	53                   	push   %ebx
   136e4:	57                   	push   %edi
   136e5:	56                   	push   %esi
   136e6:	81 ec 0c 01 00 00    	sub    $0x10c,%esp
   136ec:	89 8d 48 ff ff ff    	mov    %ecx,-0xb8(%ebp)
   136f2:	8b 45 10             	mov    0x10(%ebp),%eax
   136f5:	89 85 4c ff ff ff    	mov    %eax,-0xb4(%ebp)
   136fb:	8b 45 0c             	mov    0xc(%ebp),%eax
   136fe:	89 85 50 ff ff ff    	mov    %eax,-0xb0(%ebp)
   13704:	8b 75 08             	mov    0x8(%ebp),%esi
   13707:	89 f7                	mov    %esi,%edi
   13709:	89 bd 54 ff ff ff    	mov    %edi,-0xac(%ebp)
   1370f:	89 d7                	mov    %edx,%edi
   13711:	89 bd 58 ff ff ff    	mov    %edi,-0xa8(%ebp)
   13717:	89 b5 64 ff ff ff    	mov    %esi,-0x9c(%ebp)
   1371d:	89 95 60 ff ff ff    	mov    %edx,-0xa0(%ebp)
   13723:	8b 09                	mov    (%ecx),%ecx
   13725:	89 8d 5c ff ff ff    	mov    %ecx,-0xa4(%ebp)
   1372b:	8b 48 08             	mov    0x8(%eax),%ecx
   1372e:	89 8d 68 ff ff ff    	mov    %ecx,-0x98(%ebp)
   13734:	8b 40 0c             	mov    0xc(%eax),%eax
   13737:	89 85 6c ff ff ff    	mov    %eax,-0x94(%ebp)
   1373d:	80 bd 6c ff ff ff 00 	cmpb   $0x0,-0x94(%ebp)
   13744:	75 0f                	jne    13755 <fmt.formatBuf__anon_2017+0x75>
   13746:	eb 4f                	jmp    13797 <fmt.formatBuf__anon_2017+0xb7>
   13748:	31 c0                	xor    %eax,%eax
   1374a:	81 c4 0c 01 00 00    	add    $0x10c,%esp
   13750:	5e                   	pop    %esi
   13751:	5f                   	pop    %edi
   13752:	5b                   	pop    %ebx
   13753:	5d                   	pop    %ebp
   13754:	c3                   	ret
   13755:	8b 85 54 ff ff ff    	mov    -0xac(%ebp),%eax
   1375b:	8b b5 58 ff ff ff    	mov    -0xa8(%ebp),%esi
   13761:	8b 95 48 ff ff ff    	mov    -0xb8(%ebp),%edx
   13767:	8b 8d 68 ff ff ff    	mov    -0x98(%ebp),%ecx
   1376d:	89 8d 44 ff ff ff    	mov    %ecx,-0xbc(%ebp)
   13773:	89 8d 70 ff ff ff    	mov    %ecx,-0x90(%ebp)
   13779:	8d 8d 74 ff ff ff    	lea    -0x8c(%ebp),%ecx
   1377f:	89 34 24             	mov    %esi,(%esp)
   13782:	89 44 24 04          	mov    %eax,0x4(%esp)
   13786:	e8 d5 f9 ff ff       	call   13160 <unicode.utf8CountCodepoints>
   1378b:	66 83 bd 78 ff ff ff 	cmpw   $0x0,-0x88(%ebp)
   13792:	00 
   13793:	74 68                	je     137fd <fmt.formatBuf__anon_2017+0x11d>
   13795:	eb 74                	jmp    1380b <fmt.formatBuf__anon_2017+0x12b>
   13797:	8b 85 54 ff ff ff    	mov    -0xac(%ebp),%eax
   1379d:	8b b5 58 ff ff ff    	mov    -0xa8(%ebp),%esi
   137a3:	8b 8d 48 ff ff ff    	mov    -0xb8(%ebp),%ecx
   137a9:	8b 95 4c ff ff ff    	mov    -0xb4(%ebp),%edx
   137af:	8b 3a                	mov    (%edx),%edi
   137b1:	89 7d ec             	mov    %edi,-0x14(%ebp)
   137b4:	8b 52 04             	mov    0x4(%edx),%edx
   137b7:	89 55 f0             	mov    %edx,-0x10(%ebp)
   137ba:	8d 55 ec             	lea    -0x14(%ebp),%edx
   137bd:	89 34 24             	mov    %esi,(%esp)
   137c0:	89 44 24 04          	mov    %eax,0x4(%esp)
   137c4:	e8 37 e9 ff ff       	call   12100 <io.Writer.writeAll>
   137c9:	66 89 85 42 ff ff ff 	mov    %ax,-0xbe(%ebp)
   137d0:	66 83 f8 00          	cmp    $0x0,%ax
   137d4:	0f 85 08 06 00 00    	jne    13de2 <fmt.formatBuf__anon_2017+0x702>
   137da:	e9 20 06 00 00       	jmp    13dff <fmt.formatBuf__anon_2017+0x71f>
   137df:	8b 8d 44 ff ff ff    	mov    -0xbc(%ebp),%ecx
   137e5:	8b 85 38 ff ff ff    	mov    -0xc8(%ebp),%eax
   137eb:	89 85 3c ff ff ff    	mov    %eax,-0xc4(%ebp)
   137f1:	89 85 7c ff ff ff    	mov    %eax,-0x84(%ebp)
   137f7:	39 c8                	cmp    %ecx,%eax
   137f9:	72 49                	jb     13844 <fmt.formatBuf__anon_2017+0x164>
   137fb:	eb 62                	jmp    1385f <fmt.formatBuf__anon_2017+0x17f>
   137fd:	8b 85 74 ff ff ff    	mov    -0x8c(%ebp),%eax
   13803:	89 85 38 ff ff ff    	mov    %eax,-0xc8(%ebp)
   13809:	eb d4                	jmp    137df <fmt.formatBuf__anon_2017+0xff>
   1380b:	8b 85 54 ff ff ff    	mov    -0xac(%ebp),%eax
   13811:	8b 8d 48 ff ff ff    	mov    -0xb8(%ebp),%ecx
   13817:	8b 95 5c ff ff ff    	mov    -0xa4(%ebp),%edx
   1381d:	89 11                	mov    %edx,(%ecx)
   1381f:	89 85 38 ff ff ff    	mov    %eax,-0xc8(%ebp)
   13825:	eb b8                	jmp    137df <fmt.formatBuf__anon_2017+0xff>
   13827:	8b 85 30 ff ff ff    	mov    -0xd0(%ebp),%eax
   1382d:	89 85 34 ff ff ff    	mov    %eax,-0xcc(%ebp)
   13833:	89 45 80             	mov    %eax,-0x80(%ebp)
   13836:	83 f8 00             	cmp    $0x0,%eax
   13839:	0f 84 9b 00 00 00    	je     138da <fmt.formatBuf__anon_2017+0x1fa>
   1383f:	e9 d7 00 00 00       	jmp    1391b <fmt.formatBuf__anon_2017+0x23b>
   13844:	8b 8d 3c ff ff ff    	mov    -0xc4(%ebp),%ecx
   1384a:	8b 85 44 ff ff ff    	mov    -0xbc(%ebp),%eax
   13850:	29 c8                	sub    %ecx,%eax
   13852:	89 85 2c ff ff ff    	mov    %eax,-0xd4(%ebp)
   13858:	0f 92 c0             	setb   %al
   1385b:	72 0c                	jb     13869 <fmt.formatBuf__anon_2017+0x189>
   1385d:	eb 2d                	jmp    1388c <fmt.formatBuf__anon_2017+0x1ac>
   1385f:	31 c0                	xor    %eax,%eax
   13861:	89 85 30 ff ff ff    	mov    %eax,-0xd0(%ebp)
   13867:	eb be                	jmp    13827 <fmt.formatBuf__anon_2017+0x147>
   13869:	8d 0d 3b bc 03 00    	lea    0x3bc3b,%ecx
   1386f:	ba 10 00 00 00       	mov    $0x10,%edx
   13874:	31 c0                	xor    %eax,%eax
   13876:	8d 05 48 b8 03 00    	lea    0x3b848,%eax
   1387c:	c7 04 24 00 00 00 00 	movl   $0x0,(%esp)
   13883:	89 44 24 04          	mov    %eax,0x4(%esp)
   13887:	e8 94 df ff ff       	call   11820 <builtin.default_panic>
   1388c:	8b 85 2c ff ff ff    	mov    -0xd4(%ebp),%eax
   13892:	89 85 30 ff ff ff    	mov    %eax,-0xd0(%ebp)
   13898:	eb 8d                	jmp    13827 <fmt.formatBuf__anon_2017+0x147>
   1389a:	8b 95 48 ff ff ff    	mov    -0xb8(%ebp),%edx
   138a0:	8b 85 50 ff ff ff    	mov    -0xb0(%ebp),%eax
   138a6:	c7 45 8c aa aa aa aa 	movl   $0xaaaaaaaa,-0x74(%ebp)
   138ad:	8b 48 10             	mov    0x10(%eax),%ecx
   138b0:	bf 04 00 00 00       	mov    $0x4,%edi
   138b5:	8d 75 8c             	lea    -0x74(%ebp),%esi
   138b8:	89 e0                	mov    %esp,%eax
   138ba:	89 78 08             	mov    %edi,0x8(%eax)
   138bd:	89 70 04             	mov    %esi,0x4(%eax)
   138c0:	89 08                	mov    %ecx,(%eax)
   138c2:	8d 4d 92             	lea    -0x6e(%ebp),%ecx
   138c5:	e8 46 05 00 00       	call   13e10 <unicode.utf8Encode>
   138ca:	66 83 7d 92 00       	cmpw   $0x0,-0x6e(%ebp)
   138cf:	0f 84 d8 00 00 00    	je     139ad <fmt.formatBuf__anon_2017+0x2cd>
   138d5:	e9 f3 00 00 00       	jmp    139cd <fmt.formatBuf__anon_2017+0x2ed>
   138da:	8b 85 54 ff ff ff    	mov    -0xac(%ebp),%eax
   138e0:	8b b5 58 ff ff ff    	mov    -0xa8(%ebp),%esi
   138e6:	8b 8d 48 ff ff ff    	mov    -0xb8(%ebp),%ecx
   138ec:	8b 95 4c ff ff ff    	mov    -0xb4(%ebp),%edx
   138f2:	8b 3a                	mov    (%edx),%edi
   138f4:	89 7d 84             	mov    %edi,-0x7c(%ebp)
   138f7:	8b 52 04             	mov    0x4(%edx),%edx
   138fa:	89 55 88             	mov    %edx,-0x78(%ebp)
   138fd:	8d 55 84             	lea    -0x7c(%ebp),%edx
   13900:	89 34 24             	mov    %esi,(%esp)
   13903:	89 44 24 04          	mov    %eax,0x4(%esp)
   13907:	e8 f4 e7 ff ff       	call   12100 <io.Writer.writeAll>
   1390c:	66 89 85 2a ff ff ff 	mov    %ax,-0xd6(%ebp)
   13913:	66 83 f8 00          	cmp    $0x0,%ax
   13917:	74 07                	je     13920 <fmt.formatBuf__anon_2017+0x240>
   13919:	eb 17                	jmp    13932 <fmt.formatBuf__anon_2017+0x252>
   1391b:	e9 7a ff ff ff       	jmp    1389a <fmt.formatBuf__anon_2017+0x1ba>
   13920:	66 8b 85 2a ff ff ff 	mov    -0xd6(%ebp),%ax
   13927:	81 c4 0c 01 00 00    	add    $0x10c,%esp
   1392d:	5e                   	pop    %esi
   1392e:	5f                   	pop    %edi
   1392f:	5b                   	pop    %ebx
   13930:	5d                   	pop    %ebp
   13931:	c3                   	ret
   13932:	8b 8d 48 ff ff ff    	mov    -0xb8(%ebp),%ecx
   13938:	e8 13 e9 ff ff       	call   12250 <builtin.returnError>
   1393d:	66 8b 85 2a ff ff ff 	mov    -0xd6(%ebp),%ax
   13944:	81 c4 0c 01 00 00    	add    $0x10c,%esp
   1394a:	5e                   	pop    %esi
   1394b:	5f                   	pop    %edi
   1394c:	5b                   	pop    %ebx
   1394d:	5d                   	pop    %ebp
   1394e:	c3                   	ret
   1394f:	8b 85 50 ff ff ff    	mov    -0xb0(%ebp),%eax
   13955:	8b 95 1c ff ff ff    	mov    -0xe4(%ebp),%edx
   1395b:	8b 8d 18 ff ff ff    	mov    -0xe8(%ebp),%ecx
   13961:	89 8d 20 ff ff ff    	mov    %ecx,-0xe0(%ebp)
   13967:	89 95 24 ff ff ff    	mov    %edx,-0xdc(%ebp)
   1396d:	89 55 a4             	mov    %edx,-0x5c(%ebp)
   13970:	89 4d a8             	mov    %ecx,-0x58(%ebp)
   13973:	8a 40 14             	mov    0x14(%eax),%al
   13976:	88 85 29 ff ff ff    	mov    %al,-0xd7(%ebp)
   1397c:	24 03                	and    $0x3,%al
   1397e:	2c 02                	sub    $0x2,%al
   13980:	0f 84 95 03 00 00    	je     13d1b <fmt.formatBuf__anon_2017+0x63b>
   13986:	eb 00                	jmp    13988 <fmt.formatBuf__anon_2017+0x2a8>
   13988:	8a 85 29 ff ff ff    	mov    -0xd7(%ebp),%al
   1398e:	a8 03                	test   $0x3,%al
   13990:	0f 84 3a 01 00 00    	je     13ad0 <fmt.formatBuf__anon_2017+0x3f0>
   13996:	eb 00                	jmp    13998 <fmt.formatBuf__anon_2017+0x2b8>
   13998:	8a 85 29 ff ff ff    	mov    -0xd7(%ebp),%al
   1399e:	24 03                	and    $0x3,%al
   139a0:	2c 01                	sub    $0x1,%al
   139a2:	0f 84 ef 01 00 00    	je     13b97 <fmt.formatBuf__anon_2017+0x4b7>
   139a8:	e9 01 01 00 00       	jmp    13aae <fmt.formatBuf__anon_2017+0x3ce>
   139ad:	0f b6 4d 94          	movzbl -0x6c(%ebp),%ecx
   139b1:	89 8d 10 ff ff ff    	mov    %ecx,-0xf0(%ebp)
   139b7:	89 c8                	mov    %ecx,%eax
   139b9:	88 45 97             	mov    %al,-0x69(%ebp)
   139bc:	8d 45 8c             	lea    -0x74(%ebp),%eax
   139bf:	89 85 14 ff ff ff    	mov    %eax,-0xec(%ebp)
   139c5:	31 c0                	xor    %eax,%eax
   139c7:	39 c8                	cmp    %ecx,%eax
   139c9:	76 22                	jbe    139ed <fmt.formatBuf__anon_2017+0x30d>
   139cb:	eb 22                	jmp    139ef <fmt.formatBuf__anon_2017+0x30f>
   139cd:	0f b7 45 92          	movzwl -0x6e(%ebp),%eax
   139d1:	83 c0 f6             	add    $0xfffffff6,%eax
   139d4:	66 83 e8 02          	sub    $0x2,%ax
   139d8:	0f 82 98 00 00 00    	jb     13a76 <fmt.formatBuf__anon_2017+0x396>
   139de:	eb 74                	jmp    13a54 <fmt.formatBuf__anon_2017+0x374>
   139e0:	8b 85 10 ff ff ff    	mov    -0xf0(%ebp),%eax
   139e6:	83 f8 04             	cmp    $0x4,%eax
   139e9:	76 1f                	jbe    13a0a <fmt.formatBuf__anon_2017+0x32a>
   139eb:	eb 1f                	jmp    13a0c <fmt.formatBuf__anon_2017+0x32c>
   139ed:	eb f1                	jmp    139e0 <fmt.formatBuf__anon_2017+0x300>
   139ef:	8b 95 10 ff ff ff    	mov    -0xf0(%ebp),%edx
   139f5:	31 c9                	xor    %ecx,%ecx
   139f7:	e8 a4 de ff ff       	call   118a0 <builtin.panicStartGreaterThanEnd>
   139fc:	8b 8d 10 ff ff ff    	mov    -0xf0(%ebp),%ecx
   13a02:	31 c0                	xor    %eax,%eax
   13a04:	39 c8                	cmp    %ecx,%eax
   13a06:	76 3d                	jbe    13a45 <fmt.formatBuf__anon_2017+0x365>
   13a08:	eb 3d                	jmp    13a47 <fmt.formatBuf__anon_2017+0x367>
   13a0a:	eb f0                	jmp    139fc <fmt.formatBuf__anon_2017+0x31c>
   13a0c:	8b 8d 10 ff ff ff    	mov    -0xf0(%ebp),%ecx
   13a12:	ba 04 00 00 00       	mov    $0x4,%edx
   13a17:	e8 b4 de ff ff       	call   118d0 <builtin.panicOutOfBounds>
   13a1c:	8b 85 14 ff ff ff    	mov    -0xec(%ebp),%eax
   13a22:	8b 8d 10 ff ff ff    	mov    -0xf0(%ebp),%ecx
   13a28:	89 4d 9c             	mov    %ecx,-0x64(%ebp)
   13a2b:	89 45 98             	mov    %eax,-0x68(%ebp)
   13a2e:	8b 4d 98             	mov    -0x68(%ebp),%ecx
   13a31:	8b 45 9c             	mov    -0x64(%ebp),%eax
   13a34:	89 8d 1c ff ff ff    	mov    %ecx,-0xe4(%ebp)
   13a3a:	89 85 18 ff ff ff    	mov    %eax,-0xe8(%ebp)
   13a40:	e9 0a ff ff ff       	jmp    1394f <fmt.formatBuf__anon_2017+0x26f>
   13a45:	eb d5                	jmp    13a1c <fmt.formatBuf__anon_2017+0x33c>
   13a47:	8b 95 10 ff ff ff    	mov    -0xf0(%ebp),%edx
   13a4d:	31 c9                	xor    %ecx,%ecx
   13a4f:	e8 7c de ff ff       	call   118d0 <builtin.panicOutOfBounds>
   13a54:	b9 ff bd 03 00       	mov    $0x3bdff,%ecx
   13a59:	ba 17 00 00 00       	mov    $0x17,%edx
   13a5e:	31 c0                	xor    %eax,%eax
   13a60:	8d 05 48 b8 03 00    	lea    0x3b848,%eax
   13a66:	c7 04 24 00 00 00 00 	movl   $0x0,(%esp)
   13a6d:	89 44 24 04          	mov    %eax,0x4(%esp)
   13a71:	e8 aa dd ff ff       	call   11820 <builtin.default_panic>
   13a76:	c6 45 a2 00          	movb   $0x0,-0x5e(%ebp)
   13a7a:	66 c7 45 a0 fd ff    	movw   $0xfffd,-0x60(%ebp)
   13a80:	8b 85 48 ff ff ff    	mov    -0xb8(%ebp),%eax
   13a86:	8b 8d 5c ff ff ff    	mov    -0xa4(%ebp),%ecx
   13a8c:	89 08                	mov    %ecx,(%eax)
   13a8e:	b8 03 00 00 00       	mov    $0x3,%eax
   13a93:	b9 60 b2 03 00       	mov    $0x3b260,%ecx
   13a98:	89 8d 1c ff ff ff    	mov    %ecx,-0xe4(%ebp)
   13a9e:	89 85 18 ff ff ff    	mov    %eax,-0xe8(%ebp)
   13aa4:	e9 a6 fe ff ff       	jmp    1394f <fmt.formatBuf__anon_2017+0x26f>
   13aa9:	e9 9a fc ff ff       	jmp    13748 <fmt.formatBuf__anon_2017+0x68>
   13aae:	b9 ff bd 03 00       	mov    $0x3bdff,%ecx
   13ab3:	ba 17 00 00 00       	mov    $0x17,%edx
   13ab8:	31 c0                	xor    %eax,%eax
   13aba:	8d 05 48 b8 03 00    	lea    0x3b848,%eax
   13ac0:	c7 04 24 00 00 00 00 	movl   $0x0,(%esp)
   13ac7:	89 44 24 04          	mov    %eax,0x4(%esp)
   13acb:	e8 50 dd ff ff       	call   11820 <builtin.default_panic>
   13ad0:	8b 85 54 ff ff ff    	mov    -0xac(%ebp),%eax
   13ad6:	8b b5 58 ff ff ff    	mov    -0xa8(%ebp),%esi
   13adc:	8b 8d 48 ff ff ff    	mov    -0xb8(%ebp),%ecx
   13ae2:	8b 95 4c ff ff ff    	mov    -0xb4(%ebp),%edx
   13ae8:	8b 3a                	mov    (%edx),%edi
   13aea:	89 7d ac             	mov    %edi,-0x54(%ebp)
   13aed:	8b 52 04             	mov    0x4(%edx),%edx
   13af0:	89 55 b0             	mov    %edx,-0x50(%ebp)
   13af3:	8d 55 ac             	lea    -0x54(%ebp),%edx
   13af6:	89 34 24             	mov    %esi,(%esp)
   13af9:	89 44 24 04          	mov    %eax,0x4(%esp)
   13afd:	e8 fe e5 ff ff       	call   12100 <io.Writer.writeAll>
   13b02:	66 89 85 0e ff ff ff 	mov    %ax,-0xf2(%ebp)
   13b09:	66 83 f8 00          	cmp    $0x0,%ax
   13b0d:	74 1d                	je     13b2c <fmt.formatBuf__anon_2017+0x44c>
   13b0f:	8b 8d 48 ff ff ff    	mov    -0xb8(%ebp),%ecx
   13b15:	e8 36 e7 ff ff       	call   12250 <builtin.returnError>
   13b1a:	66 8b 85 0e ff ff ff 	mov    -0xf2(%ebp),%ax
   13b21:	81 c4 0c 01 00 00    	add    $0x10c,%esp
   13b27:	5e                   	pop    %esi
   13b28:	5f                   	pop    %edi
   13b29:	5b                   	pop    %ebx
   13b2a:	5d                   	pop    %ebp
   13b2b:	c3                   	ret
   13b2c:	8b 85 34 ff ff ff    	mov    -0xcc(%ebp),%eax
   13b32:	8b b5 20 ff ff ff    	mov    -0xe0(%ebp),%esi
   13b38:	8b bd 24 ff ff ff    	mov    -0xdc(%ebp),%edi
   13b3e:	8b 8d 48 ff ff ff    	mov    -0xb8(%ebp),%ecx
   13b44:	8b 95 4c ff ff ff    	mov    -0xb4(%ebp),%edx
   13b4a:	8b 1a                	mov    (%edx),%ebx
   13b4c:	89 5d b4             	mov    %ebx,-0x4c(%ebp)
   13b4f:	8b 52 04             	mov    0x4(%edx),%edx
   13b52:	89 55 b8             	mov    %edx,-0x48(%ebp)
   13b55:	8d 55 b4             	lea    -0x4c(%ebp),%edx
   13b58:	89 3c 24             	mov    %edi,(%esp)
   13b5b:	89 74 24 04          	mov    %esi,0x4(%esp)
   13b5f:	89 44 24 08          	mov    %eax,0x8(%esp)
   13b63:	e8 38 03 00 00       	call   13ea0 <io.Writer.writeBytesNTimes>
   13b68:	66 89 85 0c ff ff ff 	mov    %ax,-0xf4(%ebp)
   13b6f:	66 83 f8 00          	cmp    $0x0,%ax
   13b73:	74 1d                	je     13b92 <fmt.formatBuf__anon_2017+0x4b2>
   13b75:	8b 8d 48 ff ff ff    	mov    -0xb8(%ebp),%ecx
   13b7b:	e8 d0 e6 ff ff       	call   12250 <builtin.returnError>
   13b80:	66 8b 85 0c ff ff ff 	mov    -0xf4(%ebp),%ax
   13b87:	81 c4 0c 01 00 00    	add    $0x10c,%esp
   13b8d:	5e                   	pop    %esi
   13b8e:	5f                   	pop    %edi
   13b8f:	5b                   	pop    %ebx
   13b90:	5d                   	pop    %ebp
   13b91:	c3                   	ret
   13b92:	e9 12 ff ff ff       	jmp    13aa9 <fmt.formatBuf__anon_2017+0x3c9>
   13b97:	8b 85 34 ff ff ff    	mov    -0xcc(%ebp),%eax
   13b9d:	89 c1                	mov    %eax,%ecx
   13b9f:	d1 e9                	shr    $1,%ecx
   13ba1:	89 8d 04 ff ff ff    	mov    %ecx,-0xfc(%ebp)
   13ba7:	89 4d bc             	mov    %ecx,-0x44(%ebp)
   13baa:	83 c0 01             	add    $0x1,%eax
   13bad:	89 85 08 ff ff ff    	mov    %eax,-0xf8(%ebp)
   13bb3:	0f 92 c0             	setb   %al
   13bb6:	72 02                	jb     13bba <fmt.formatBuf__anon_2017+0x4da>
   13bb8:	eb 23                	jmp    13bdd <fmt.formatBuf__anon_2017+0x4fd>
   13bba:	8d 0d 3b bc 03 00    	lea    0x3bc3b,%ecx
   13bc0:	ba 10 00 00 00       	mov    $0x10,%edx
   13bc5:	31 c0                	xor    %eax,%eax
   13bc7:	8d 05 48 b8 03 00    	lea    0x3b848,%eax
   13bcd:	c7 04 24 00 00 00 00 	movl   $0x0,(%esp)
   13bd4:	89 44 24 04          	mov    %eax,0x4(%esp)
   13bd8:	e8 43 dc ff ff       	call   11820 <builtin.default_panic>
   13bdd:	8b 85 04 ff ff ff    	mov    -0xfc(%ebp),%eax
   13be3:	8b b5 20 ff ff ff    	mov    -0xe0(%ebp),%esi
   13be9:	8b bd 24 ff ff ff    	mov    -0xdc(%ebp),%edi
   13bef:	8b 8d 48 ff ff ff    	mov    -0xb8(%ebp),%ecx
   13bf5:	8b 95 4c ff ff ff    	mov    -0xb4(%ebp),%edx
   13bfb:	8b 9d 08 ff ff ff    	mov    -0xf8(%ebp),%ebx
   13c01:	d1 eb                	shr    $1,%ebx
   13c03:	89 9d fc fe ff ff    	mov    %ebx,-0x104(%ebp)
   13c09:	89 5d c0             	mov    %ebx,-0x40(%ebp)
   13c0c:	8b 1a                	mov    (%edx),%ebx
   13c0e:	89 5d c4             	mov    %ebx,-0x3c(%ebp)
   13c11:	8b 52 04             	mov    0x4(%edx),%edx
   13c14:	89 55 c8             	mov    %edx,-0x38(%ebp)
   13c17:	8d 55 c4             	lea    -0x3c(%ebp),%edx
   13c1a:	89 3c 24             	mov    %edi,(%esp)
   13c1d:	89 74 24 04          	mov    %esi,0x4(%esp)
   13c21:	89 44 24 08          	mov    %eax,0x8(%esp)
   13c25:	e8 76 02 00 00       	call   13ea0 <io.Writer.writeBytesNTimes>
   13c2a:	66 89 85 02 ff ff ff 	mov    %ax,-0xfe(%ebp)
   13c31:	66 83 f8 00          	cmp    $0x0,%ax
   13c35:	74 1d                	je     13c54 <fmt.formatBuf__anon_2017+0x574>
   13c37:	8b 8d 48 ff ff ff    	mov    -0xb8(%ebp),%ecx
   13c3d:	e8 0e e6 ff ff       	call   12250 <builtin.returnError>
   13c42:	66 8b 85 02 ff ff ff 	mov    -0xfe(%ebp),%ax
   13c49:	81 c4 0c 01 00 00    	add    $0x10c,%esp
   13c4f:	5e                   	pop    %esi
   13c50:	5f                   	pop    %edi
   13c51:	5b                   	pop    %ebx
   13c52:	5d                   	pop    %ebp
   13c53:	c3                   	ret
   13c54:	8b 85 54 ff ff ff    	mov    -0xac(%ebp),%eax
   13c5a:	8b b5 58 ff ff ff    	mov    -0xa8(%ebp),%esi
   13c60:	8b 8d 48 ff ff ff    	mov    -0xb8(%ebp),%ecx
   13c66:	8b 95 4c ff ff ff    	mov    -0xb4(%ebp),%edx
   13c6c:	8b 3a                	mov    (%edx),%edi
   13c6e:	89 7d cc             	mov    %edi,-0x34(%ebp)
   13c71:	8b 52 04             	mov    0x4(%edx),%edx
   13c74:	89 55 d0             	mov    %edx,-0x30(%ebp)
   13c77:	8d 55 cc             	lea    -0x34(%ebp),%edx
   13c7a:	89 34 24             	mov    %esi,(%esp)
   13c7d:	89 44 24 04          	mov    %eax,0x4(%esp)
   13c81:	e8 7a e4 ff ff       	call   12100 <io.Writer.writeAll>
   13c86:	66 89 85 fa fe ff ff 	mov    %ax,-0x106(%ebp)
   13c8d:	66 83 f8 00          	cmp    $0x0,%ax
   13c91:	74 1d                	je     13cb0 <fmt.formatBuf__anon_2017+0x5d0>
   13c93:	8b 8d 48 ff ff ff    	mov    -0xb8(%ebp),%ecx
   13c99:	e8 b2 e5 ff ff       	call   12250 <builtin.returnError>
   13c9e:	66 8b 85 fa fe ff ff 	mov    -0x106(%ebp),%ax
   13ca5:	81 c4 0c 01 00 00    	add    $0x10c,%esp
   13cab:	5e                   	pop    %esi
   13cac:	5f                   	pop    %edi
   13cad:	5b                   	pop    %ebx
   13cae:	5d                   	pop    %ebp
   13caf:	c3                   	ret
   13cb0:	8b 85 fc fe ff ff    	mov    -0x104(%ebp),%eax
   13cb6:	8b b5 20 ff ff ff    	mov    -0xe0(%ebp),%esi
   13cbc:	8b bd 24 ff ff ff    	mov    -0xdc(%ebp),%edi
   13cc2:	8b 8d 48 ff ff ff    	mov    -0xb8(%ebp),%ecx
   13cc8:	8b 95 4c ff ff ff    	mov    -0xb4(%ebp),%edx
   13cce:	8b 1a                	mov    (%edx),%ebx
   13cd0:	89 5d d4             	mov    %ebx,-0x2c(%ebp)
   13cd3:	8b 52 04             	mov    0x4(%edx),%edx
   13cd6:	89 55 d8             	mov    %edx,-0x28(%ebp)
   13cd9:	8d 55 d4             	lea    -0x2c(%ebp),%edx
   13cdc:	89 3c 24             	mov    %edi,(%esp)
   13cdf:	89 74 24 04          	mov    %esi,0x4(%esp)
   13ce3:	89 44 24 08          	mov    %eax,0x8(%esp)
   13ce7:	e8 b4 01 00 00       	call   13ea0 <io.Writer.writeBytesNTimes>
   13cec:	66 89 85 f8 fe ff ff 	mov    %ax,-0x108(%ebp)
   13cf3:	66 83 f8 00          	cmp    $0x0,%ax
   13cf7:	74 1d                	je     13d16 <fmt.formatBuf__anon_2017+0x636>
   13cf9:	8b 8d 48 ff ff ff    	mov    -0xb8(%ebp),%ecx
   13cff:	e8 4c e5 ff ff       	call   12250 <builtin.returnError>
   13d04:	66 8b 85 f8 fe ff ff 	mov    -0x108(%ebp),%ax
   13d0b:	81 c4 0c 01 00 00    	add    $0x10c,%esp
   13d11:	5e                   	pop    %esi
   13d12:	5f                   	pop    %edi
   13d13:	5b                   	pop    %ebx
   13d14:	5d                   	pop    %ebp
   13d15:	c3                   	ret
   13d16:	e9 8e fd ff ff       	jmp    13aa9 <fmt.formatBuf__anon_2017+0x3c9>
   13d1b:	8b 85 34 ff ff ff    	mov    -0xcc(%ebp),%eax
   13d21:	8b b5 20 ff ff ff    	mov    -0xe0(%ebp),%esi
   13d27:	8b bd 24 ff ff ff    	mov    -0xdc(%ebp),%edi
   13d2d:	8b 8d 48 ff ff ff    	mov    -0xb8(%ebp),%ecx
   13d33:	8b 95 4c ff ff ff    	mov    -0xb4(%ebp),%edx
   13d39:	8b 1a                	mov    (%edx),%ebx
   13d3b:	89 5d dc             	mov    %ebx,-0x24(%ebp)
   13d3e:	8b 52 04             	mov    0x4(%edx),%edx
   13d41:	89 55 e0             	mov    %edx,-0x20(%ebp)
   13d44:	8d 55 dc             	lea    -0x24(%ebp),%edx
   13d47:	89 3c 24             	mov    %edi,(%esp)
   13d4a:	89 74 24 04          	mov    %esi,0x4(%esp)
   13d4e:	89 44 24 08          	mov    %eax,0x8(%esp)
   13d52:	e8 49 01 00 00       	call   13ea0 <io.Writer.writeBytesNTimes>
   13d57:	66 89 85 f6 fe ff ff 	mov    %ax,-0x10a(%ebp)
   13d5e:	66 83 f8 00          	cmp    $0x0,%ax
   13d62:	74 1d                	je     13d81 <fmt.formatBuf__anon_2017+0x6a1>
   13d64:	8b 8d 48 ff ff ff    	mov    -0xb8(%ebp),%ecx
   13d6a:	e8 e1 e4 ff ff       	call   12250 <builtin.returnError>
   13d6f:	66 8b 85 f6 fe ff ff 	mov    -0x10a(%ebp),%ax
   13d76:	81 c4 0c 01 00 00    	add    $0x10c,%esp
   13d7c:	5e                   	pop    %esi
   13d7d:	5f                   	pop    %edi
   13d7e:	5b                   	pop    %ebx
   13d7f:	5d                   	pop    %ebp
   13d80:	c3                   	ret
   13d81:	8b 85 54 ff ff ff    	mov    -0xac(%ebp),%eax
   13d87:	8b b5 58 ff ff ff    	mov    -0xa8(%ebp),%esi
   13d8d:	8b 8d 48 ff ff ff    	mov    -0xb8(%ebp),%ecx
   13d93:	8b 95 4c ff ff ff    	mov    -0xb4(%ebp),%edx
   13d99:	8b 3a                	mov    (%edx),%edi
   13d9b:	89 7d e4             	mov    %edi,-0x1c(%ebp)
   13d9e:	8b 52 04             	mov    0x4(%edx),%edx
   13da1:	89 55 e8             	mov    %edx,-0x18(%ebp)
   13da4:	8d 55 e4             	lea    -0x1c(%ebp),%edx
   13da7:	89 34 24             	mov    %esi,(%esp)
   13daa:	89 44 24 04          	mov    %eax,0x4(%esp)
   13dae:	e8 4d e3 ff ff       	call   12100 <io.Writer.writeAll>
   13db3:	66 89 85 f4 fe ff ff 	mov    %ax,-0x10c(%ebp)
   13dba:	66 83 f8 00          	cmp    $0x0,%ax
   13dbe:	74 1d                	je     13ddd <fmt.formatBuf__anon_2017+0x6fd>
   13dc0:	8b 8d 48 ff ff ff    	mov    -0xb8(%ebp),%ecx
   13dc6:	e8 85 e4 ff ff       	call   12250 <builtin.returnError>
   13dcb:	66 8b 85 f4 fe ff ff 	mov    -0x10c(%ebp),%ax
   13dd2:	81 c4 0c 01 00 00    	add    $0x10c,%esp
   13dd8:	5e                   	pop    %esi
   13dd9:	5f                   	pop    %edi
   13dda:	5b                   	pop    %ebx
   13ddb:	5d                   	pop    %ebp
   13ddc:	c3                   	ret
   13ddd:	e9 c7 fc ff ff       	jmp    13aa9 <fmt.formatBuf__anon_2017+0x3c9>
   13de2:	8b 8d 48 ff ff ff    	mov    -0xb8(%ebp),%ecx
   13de8:	e8 63 e4 ff ff       	call   12250 <builtin.returnError>
   13ded:	66 8b 85 42 ff ff ff 	mov    -0xbe(%ebp),%ax
   13df4:	81 c4 0c 01 00 00    	add    $0x10c,%esp
   13dfa:	5e                   	pop    %esi
   13dfb:	5f                   	pop    %edi
   13dfc:	5b                   	pop    %ebx
   13dfd:	5d                   	pop    %ebp
   13dfe:	c3                   	ret
   13dff:	e9 44 f9 ff ff       	jmp    13748 <fmt.formatBuf__anon_2017+0x68>
   13e04:	66 2e 0f 1f 84 00 00 	nopw   %cs:0x0(%eax,%eax,1)
   13e0b:	00 00 00 
   13e0e:	66 90                	xchg   %ax,%ax

00013e10 <unicode.utf8Encode>:
   13e10:	55                   	push   %ebp
   13e11:	89 e5                	mov    %esp,%ebp
   13e13:	53                   	push   %ebx
   13e14:	57                   	push   %edi
   13e15:	56                   	push   %esi
   13e16:	83 ec 28             	sub    $0x28,%esp
   13e19:	89 55 e0             	mov    %edx,-0x20(%ebp)
   13e1c:	89 4d d8             	mov    %ecx,-0x28(%ebp)
   13e1f:	89 4d dc             	mov    %ecx,-0x24(%ebp)
   13e22:	8b 5d 10             	mov    0x10(%ebp),%ebx
   13e25:	8b 45 0c             	mov    0xc(%ebp),%eax
   13e28:	8b 4d 08             	mov    0x8(%ebp),%ecx
   13e2b:	89 df                	mov    %ebx,%edi
   13e2d:	89 c6                	mov    %eax,%esi
   13e2f:	66 89 ca             	mov    %cx,%dx
   13e32:	66 89 55 e4          	mov    %dx,-0x1c(%ebp)
   13e36:	89 ca                	mov    %ecx,%edx
   13e38:	c1 ea 10             	shr    $0x10,%edx
   13e3b:	83 e2 1f             	and    $0x1f,%edx
   13e3e:	88 55 e6             	mov    %dl,-0x1a(%ebp)
   13e41:	8b 55 e0             	mov    -0x20(%ebp),%edx
   13e44:	89 5d ec             	mov    %ebx,-0x14(%ebp)
   13e47:	89 45 e8             	mov    %eax,-0x18(%ebp)
   13e4a:	89 e0                	mov    %esp,%eax
   13e4c:	89 78 08             	mov    %edi,0x8(%eax)
   13e4f:	89 70 04             	mov    %esi,0x4(%eax)
   13e52:	89 08                	mov    %ecx,(%eax)
   13e54:	8d 4d f0             	lea    -0x10(%ebp),%ecx
   13e57:	e8 c4 10 00 00       	call   14f20 <unicode.utf8EncodeImpl__anon_2023>
   13e5c:	66 83 7d f0 00       	cmpw   $0x0,-0x10(%ebp)
   13e61:	75 13                	jne    13e76 <unicode.utf8Encode+0x66>
   13e63:	8b 45 dc             	mov    -0x24(%ebp),%eax
   13e66:	8b 4d d8             	mov    -0x28(%ebp),%ecx
   13e69:	8b 55 f0             	mov    -0x10(%ebp),%edx
   13e6c:	89 11                	mov    %edx,(%ecx)
   13e6e:	83 c4 28             	add    $0x28,%esp
   13e71:	5e                   	pop    %esi
   13e72:	5f                   	pop    %edi
   13e73:	5b                   	pop    %ebx
   13e74:	5d                   	pop    %ebp
   13e75:	c3                   	ret
   13e76:	8b 4d e0             	mov    -0x20(%ebp),%ecx
   13e79:	e8 d2 e3 ff ff       	call   12250 <builtin.returnError>
   13e7e:	8b 4d d8             	mov    -0x28(%ebp),%ecx
   13e81:	8b 45 dc             	mov    -0x24(%ebp),%eax
   13e84:	8b 55 f0             	mov    -0x10(%ebp),%edx
   13e87:	89 11                	mov    %edx,(%ecx)
   13e89:	83 c4 28             	add    $0x28,%esp
   13e8c:	5e                   	pop    %esi
   13e8d:	5f                   	pop    %edi
   13e8e:	5b                   	pop    %ebx
   13e8f:	5d                   	pop    %ebp
   13e90:	c3                   	ret
   13e91:	66 2e 0f 1f 84 00 00 	nopw   %cs:0x0(%eax,%eax,1)
   13e98:	00 00 00 
   13e9b:	0f 1f 44 00 00       	nopl   0x0(%eax,%eax,1)

00013ea0 <io.Writer.writeBytesNTimes>:
   13ea0:	55                   	push   %ebp
   13ea1:	89 e5                	mov    %esp,%ebp
   13ea3:	57                   	push   %edi
   13ea4:	56                   	push   %esi
   13ea5:	83 ec 38             	sub    $0x38,%esp
   13ea8:	89 55 d0             	mov    %edx,-0x30(%ebp)
   13eab:	89 4d d4             	mov    %ecx,-0x2c(%ebp)
   13eae:	8b 45 10             	mov    0x10(%ebp),%eax
   13eb1:	89 45 d8             	mov    %eax,-0x28(%ebp)
   13eb4:	8b 4d 0c             	mov    0xc(%ebp),%ecx
   13eb7:	8b 45 08             	mov    0x8(%ebp),%eax
   13eba:	89 ca                	mov    %ecx,%edx
   13ebc:	89 55 dc             	mov    %edx,-0x24(%ebp)
   13ebf:	89 c2                	mov    %eax,%edx
   13ec1:	89 55 e0             	mov    %edx,-0x20(%ebp)
   13ec4:	89 4d e8             	mov    %ecx,-0x18(%ebp)
   13ec7:	89 45 e4             	mov    %eax,-0x1c(%ebp)
   13eca:	c7 45 ec 00 00 00 00 	movl   $0x0,-0x14(%ebp)
   13ed1:	eb 09                	jmp    13edc <io.Writer.writeBytesNTimes+0x3c>
   13ed3:	31 c0                	xor    %eax,%eax
   13ed5:	83 c4 38             	add    $0x38,%esp
   13ed8:	5e                   	pop    %esi
   13ed9:	5f                   	pop    %edi
   13eda:	5d                   	pop    %ebp
   13edb:	c3                   	ret
   13edc:	8b 45 d8             	mov    -0x28(%ebp),%eax
   13edf:	39 45 ec             	cmp    %eax,-0x14(%ebp)
   13ee2:	72 04                	jb     13ee8 <io.Writer.writeBytesNTimes+0x48>
   13ee4:	eb 34                	jmp    13f1a <io.Writer.writeBytesNTimes+0x7a>
   13ee6:	eb f4                	jmp    13edc <io.Writer.writeBytesNTimes+0x3c>
   13ee8:	8b 45 dc             	mov    -0x24(%ebp),%eax
   13eeb:	8b 75 e0             	mov    -0x20(%ebp),%esi
   13eee:	8b 4d d4             	mov    -0x2c(%ebp),%ecx
   13ef1:	8b 55 d0             	mov    -0x30(%ebp),%edx
   13ef4:	8b 3a                	mov    (%edx),%edi
   13ef6:	89 7d f0             	mov    %edi,-0x10(%ebp)
   13ef9:	8b 52 04             	mov    0x4(%edx),%edx
   13efc:	89 55 f4             	mov    %edx,-0xc(%ebp)
   13eff:	8d 55 f0             	lea    -0x10(%ebp),%edx
   13f02:	89 34 24             	mov    %esi,(%esp)
   13f05:	89 44 24 04          	mov    %eax,0x4(%esp)
   13f09:	e8 f2 e1 ff ff       	call   12100 <io.Writer.writeAll>
   13f0e:	66 89 45 ce          	mov    %ax,-0x32(%ebp)
   13f12:	66 83 f8 00          	cmp    $0x0,%ax
   13f16:	75 04                	jne    13f1c <io.Writer.writeBytesNTimes+0x7c>
   13f18:	eb 15                	jmp    13f2f <io.Writer.writeBytesNTimes+0x8f>
   13f1a:	eb b7                	jmp    13ed3 <io.Writer.writeBytesNTimes+0x33>
   13f1c:	8b 4d d4             	mov    -0x2c(%ebp),%ecx
   13f1f:	e8 2c e3 ff ff       	call   12250 <builtin.returnError>
   13f24:	66 8b 45 ce          	mov    -0x32(%ebp),%ax
   13f28:	83 c4 38             	add    $0x38,%esp
   13f2b:	5e                   	pop    %esi
   13f2c:	5f                   	pop    %edi
   13f2d:	5d                   	pop    %ebp
   13f2e:	c3                   	ret
   13f2f:	8b 45 ec             	mov    -0x14(%ebp),%eax
   13f32:	83 c0 01             	add    $0x1,%eax
   13f35:	89 45 c8             	mov    %eax,-0x38(%ebp)
   13f38:	0f 92 c0             	setb   %al
   13f3b:	72 02                	jb     13f3f <io.Writer.writeBytesNTimes+0x9f>
   13f3d:	eb 23                	jmp    13f62 <io.Writer.writeBytesNTimes+0xc2>
   13f3f:	8d 0d 3b bc 03 00    	lea    0x3bc3b,%ecx
   13f45:	ba 10 00 00 00       	mov    $0x10,%edx
   13f4a:	31 c0                	xor    %eax,%eax
   13f4c:	8d 05 48 b8 03 00    	lea    0x3b848,%eax
   13f52:	c7 04 24 00 00 00 00 	movl   $0x0,(%esp)
   13f59:	89 44 24 04          	mov    %eax,0x4(%esp)
   13f5d:	e8 be d8 ff ff       	call   11820 <builtin.default_panic>
   13f62:	8b 45 c8             	mov    -0x38(%ebp),%eax
   13f65:	89 45 ec             	mov    %eax,-0x14(%ebp)
   13f68:	e9 79 ff ff ff       	jmp    13ee6 <io.Writer.writeBytesNTimes+0x46>
   13f6d:	0f 1f 00             	nopl   (%eax)

00013f70 <fmt.formatInt__anon_2016>:
   13f70:	55                   	push   %ebp
   13f71:	89 e5                	mov    %esp,%ebp
   13f73:	57                   	push   %edi
   13f74:	56                   	push   %esi
   13f75:	81 ec 84 00 00 00    	sub    $0x84,%esp
   13f7b:	89 4d cc             	mov    %ecx,-0x34(%ebp)
   13f7e:	88 55 da             	mov    %dl,-0x26(%ebp)
   13f81:	8b 45 14             	mov    0x14(%ebp),%eax
   13f84:	89 45 d0             	mov    %eax,-0x30(%ebp)
   13f87:	8b 45 10             	mov    0x10(%ebp),%eax
   13f8a:	89 45 d4             	mov    %eax,-0x2c(%ebp)
   13f8d:	8a 4d 0c             	mov    0xc(%ebp),%cl
   13f90:	88 4d d8             	mov    %cl,-0x28(%ebp)
   13f93:	8a 45 08             	mov    0x8(%ebp),%al
   13f96:	88 45 db             	mov    %al,-0x25(%ebp)
   13f99:	80 e2 01             	and    $0x1,%dl
   13f9c:	88 55 d9             	mov    %dl,-0x27(%ebp)
   13f9f:	88 55 dc             	mov    %dl,-0x24(%ebp)
   13fa2:	80 e1 01             	and    $0x1,%cl
   13fa5:	88 4d dd             	mov    %cl,-0x23(%ebp)
   13fa8:	2c 02                	sub    $0x2,%al
   13faa:	0f 93 c0             	setae  %al
   13fad:	0f b6 c8             	movzbl %al,%ecx
   13fb0:	e8 fb 03 00 00       	call   143b0 <debug.assert>
   13fb5:	8a 4d d9             	mov    -0x27(%ebp),%cl
   13fb8:	8a 45 da             	mov    -0x26(%ebp),%al
   13fbb:	88 4d de             	mov    %cl,-0x22(%ebp)
   13fbe:	c6 45 df 08          	movb   $0x8,-0x21(%ebp)
   13fc2:	24 01                	and    $0x1,%al
   13fc4:	88 45 e0             	mov    %al,-0x20(%ebp)
   13fc7:	8d 45 e1             	lea    -0x1f(%ebp),%eax
   13fca:	89 04 24             	mov    %eax,(%esp)
   13fcd:	c7 44 24 04 aa 00 00 	movl   $0xaa,0x4(%esp)
   13fd4:	00 
   13fd5:	c7 44 24 08 02 00 00 	movl   $0x2,0x8(%esp)
   13fdc:	00 
   13fdd:	e8 1e 60 02 00       	call   3a000 <memset>
   13fe2:	8a 4d da             	mov    -0x26(%ebp),%cl
   13fe5:	8a 45 db             	mov    -0x25(%ebp),%al
   13fe8:	80 e1 01             	and    $0x1,%cl
   13feb:	88 4d e3             	mov    %cl,-0x1d(%ebp)
   13fee:	c7 45 e4 02 00 00 00 	movl   $0x2,-0x1c(%ebp)
   13ff5:	3c 0a                	cmp    $0xa,%al
   13ff7:	74 1e                	je     14017 <fmt.formatInt__anon_2016+0xa7>
   13ff9:	eb 1e                	jmp    14019 <fmt.formatInt__anon_2016+0xa9>
   13ffb:	8b 45 e4             	mov    -0x1c(%ebp),%eax
   13ffe:	89 45 c4             	mov    %eax,-0x3c(%ebp)
   14001:	8d 4d e1             	lea    -0x1f(%ebp),%ecx
   14004:	01 c1                	add    %eax,%ecx
   14006:	89 4d c8             	mov    %ecx,-0x38(%ebp)
   14009:	83 f8 02             	cmp    $0x2,%eax
   1400c:	0f 86 fe 02 00 00    	jbe    14310 <fmt.formatInt__anon_2016+0x3a0>
   14012:	e9 fb 02 00 00       	jmp    14312 <fmt.formatInt__anon_2016+0x3a2>
   14017:	eb 14                	jmp    1402d <fmt.formatInt__anon_2016+0xbd>
   14019:	e9 d7 01 00 00       	jmp    141f5 <fmt.formatInt__anon_2016+0x285>
   1401e:	80 7d e3 0a          	cmpb   $0xa,-0x1d(%ebp)
   14022:	0f 82 a5 00 00 00    	jb     140cd <fmt.formatInt__anon_2016+0x15d>
   14028:	e9 b0 00 00 00       	jmp    140dd <fmt.formatInt__anon_2016+0x16d>
   1402d:	80 7d e3 64          	cmpb   $0x64,-0x1d(%ebp)
   14031:	73 04                	jae    14037 <fmt.formatInt__anon_2016+0xc7>
   14033:	eb 12                	jmp    14047 <fmt.formatInt__anon_2016+0xd7>
   14035:	eb f6                	jmp    1402d <fmt.formatInt__anon_2016+0xbd>
   14037:	8b 45 e4             	mov    -0x1c(%ebp),%eax
   1403a:	83 e8 02             	sub    $0x2,%eax
   1403d:	89 45 c0             	mov    %eax,-0x40(%ebp)
   14040:	0f 92 c0             	setb   %al
   14043:	72 04                	jb     14049 <fmt.formatInt__anon_2016+0xd9>
   14045:	eb 25                	jmp    1406c <fmt.formatInt__anon_2016+0xfc>
   14047:	eb d5                	jmp    1401e <fmt.formatInt__anon_2016+0xae>
   14049:	8d 0d 3b bc 03 00    	lea    0x3bc3b,%ecx
   1404f:	ba 10 00 00 00       	mov    $0x10,%edx
   14054:	31 c0                	xor    %eax,%eax
   14056:	8d 05 48 b8 03 00    	lea    0x3b848,%eax
   1405c:	c7 04 24 00 00 00 00 	movl   $0x0,(%esp)
   14063:	89 44 24 04          	mov    %eax,0x4(%esp)
   14067:	e8 b4 d7 ff ff       	call   11820 <builtin.default_panic>
   1406c:	8b 45 c0             	mov    -0x40(%ebp),%eax
   1406f:	89 45 e4             	mov    %eax,-0x1c(%ebp)
   14072:	8b 45 e4             	mov    -0x1c(%ebp),%eax
   14075:	8d 4d e1             	lea    -0x1f(%ebp),%ecx
   14078:	01 c1                	add    %eax,%ecx
   1407a:	89 4d b8             	mov    %ecx,-0x48(%ebp)
   1407d:	83 c0 02             	add    $0x2,%eax
   14080:	89 45 bc             	mov    %eax,-0x44(%ebp)
   14083:	83 f8 02             	cmp    $0x2,%eax
   14086:	76 31                	jbe    140b9 <fmt.formatInt__anon_2016+0x149>
   14088:	eb 31                	jmp    140bb <fmt.formatInt__anon_2016+0x14b>
   1408a:	b1 64                	mov    $0x64,%cl
   1408c:	66 0f b6 45 e3       	movzbw -0x1d(%ebp),%ax
   14091:	f6 f1                	div    %cl
   14093:	0f b6 d4             	movzbl %ah,%edx
   14096:	8d 4d eb             	lea    -0x15(%ebp),%ecx
   14099:	e8 62 03 00 00       	call   14400 <fmt.digits2>
   1409e:	8b 45 b8             	mov    -0x48(%ebp),%eax
   140a1:	66 8b 4d eb          	mov    -0x15(%ebp),%cx
   140a5:	66 89 08             	mov    %cx,(%eax)
   140a8:	b1 64                	mov    $0x64,%cl
   140aa:	66 0f b6 45 e3       	movzbw -0x1d(%ebp),%ax
   140af:	f6 f1                	div    %cl
   140b1:	88 45 e3             	mov    %al,-0x1d(%ebp)
   140b4:	e9 7c ff ff ff       	jmp    14035 <fmt.formatInt__anon_2016+0xc5>
   140b9:	eb cf                	jmp    1408a <fmt.formatInt__anon_2016+0x11a>
   140bb:	8b 4d bc             	mov    -0x44(%ebp),%ecx
   140be:	ba 02 00 00 00       	mov    $0x2,%edx
   140c3:	e8 08 d8 ff ff       	call   118d0 <builtin.panicOutOfBounds>
   140c8:	e9 2e ff ff ff       	jmp    13ffb <fmt.formatInt__anon_2016+0x8b>
   140cd:	8b 45 e4             	mov    -0x1c(%ebp),%eax
   140d0:	83 e8 01             	sub    $0x1,%eax
   140d3:	89 45 b4             	mov    %eax,-0x4c(%ebp)
   140d6:	0f 92 c0             	setb   %al
   140d9:	72 19                	jb     140f4 <fmt.formatInt__anon_2016+0x184>
   140db:	eb 3a                	jmp    14117 <fmt.formatInt__anon_2016+0x1a7>
   140dd:	8b 45 e4             	mov    -0x1c(%ebp),%eax
   140e0:	83 e8 02             	sub    $0x2,%eax
   140e3:	89 45 b0             	mov    %eax,-0x50(%ebp)
   140e6:	0f 92 c0             	setb   %al
   140e9:	0f 82 96 00 00 00    	jb     14185 <fmt.formatInt__anon_2016+0x215>
   140ef:	e9 b4 00 00 00       	jmp    141a8 <fmt.formatInt__anon_2016+0x238>
   140f4:	8d 0d 3b bc 03 00    	lea    0x3bc3b,%ecx
   140fa:	ba 10 00 00 00       	mov    $0x10,%edx
   140ff:	31 c0                	xor    %eax,%eax
   14101:	8d 05 48 b8 03 00    	lea    0x3b848,%eax
   14107:	c7 04 24 00 00 00 00 	movl   $0x0,(%esp)
   1410e:	89 44 24 04          	mov    %eax,0x4(%esp)
   14112:	e8 09 d7 ff ff       	call   11820 <builtin.default_panic>
   14117:	8b 45 b4             	mov    -0x4c(%ebp),%eax
   1411a:	89 45 e4             	mov    %eax,-0x1c(%ebp)
   1411d:	8b 45 e4             	mov    -0x1c(%ebp),%eax
   14120:	89 45 ac             	mov    %eax,-0x54(%ebp)
   14123:	83 f8 02             	cmp    $0x2,%eax
   14126:	72 1e                	jb     14146 <fmt.formatInt__anon_2016+0x1d6>
   14128:	eb 1e                	jmp    14148 <fmt.formatInt__anon_2016+0x1d8>
   1412a:	8b 4d ac             	mov    -0x54(%ebp),%ecx
   1412d:	8d 45 e1             	lea    -0x1f(%ebp),%eax
   14130:	01 c8                	add    %ecx,%eax
   14132:	89 45 a4             	mov    %eax,-0x5c(%ebp)
   14135:	8a 45 e3             	mov    -0x1d(%ebp),%al
   14138:	04 30                	add    $0x30,%al
   1413a:	88 45 ab             	mov    %al,-0x55(%ebp)
   1413d:	0f 92 c0             	setb   %al
   14140:	a8 01                	test   $0x1,%al
   14142:	75 11                	jne    14155 <fmt.formatInt__anon_2016+0x1e5>
   14144:	eb 32                	jmp    14178 <fmt.formatInt__anon_2016+0x208>
   14146:	eb e2                	jmp    1412a <fmt.formatInt__anon_2016+0x1ba>
   14148:	8b 4d ac             	mov    -0x54(%ebp),%ecx
   1414b:	ba 02 00 00 00       	mov    $0x2,%edx
   14150:	e8 7b d7 ff ff       	call   118d0 <builtin.panicOutOfBounds>
   14155:	8d 0d 3b bc 03 00    	lea    0x3bc3b,%ecx
   1415b:	ba 10 00 00 00       	mov    $0x10,%edx
   14160:	31 c0                	xor    %eax,%eax
   14162:	8d 05 48 b8 03 00    	lea    0x3b848,%eax
   14168:	c7 04 24 00 00 00 00 	movl   $0x0,(%esp)
   1416f:	89 44 24 04          	mov    %eax,0x4(%esp)
   14173:	e8 a8 d6 ff ff       	call   11820 <builtin.default_panic>
   14178:	8b 45 a4             	mov    -0x5c(%ebp),%eax
   1417b:	8a 4d ab             	mov    -0x55(%ebp),%cl
   1417e:	88 08                	mov    %cl,(%eax)
   14180:	e9 43 ff ff ff       	jmp    140c8 <fmt.formatInt__anon_2016+0x158>
   14185:	8d 0d 3b bc 03 00    	lea    0x3bc3b,%ecx
   1418b:	ba 10 00 00 00       	mov    $0x10,%edx
   14190:	31 c0                	xor    %eax,%eax
   14192:	8d 05 48 b8 03 00    	lea    0x3b848,%eax
   14198:	c7 04 24 00 00 00 00 	movl   $0x0,(%esp)
   1419f:	89 44 24 04          	mov    %eax,0x4(%esp)
   141a3:	e8 78 d6 ff ff       	call   11820 <builtin.default_panic>
   141a8:	8b 45 b0             	mov    -0x50(%ebp),%eax
   141ab:	89 45 e4             	mov    %eax,-0x1c(%ebp)
   141ae:	8b 45 e4             	mov    -0x1c(%ebp),%eax
   141b1:	8d 4d e1             	lea    -0x1f(%ebp),%ecx
   141b4:	01 c1                	add    %eax,%ecx
   141b6:	89 4d 9c             	mov    %ecx,-0x64(%ebp)
   141b9:	83 c0 02             	add    $0x2,%eax
   141bc:	89 45 a0             	mov    %eax,-0x60(%ebp)
   141bf:	83 f8 02             	cmp    $0x2,%eax
   141c2:	76 1d                	jbe    141e1 <fmt.formatInt__anon_2016+0x271>
   141c4:	eb 1d                	jmp    141e3 <fmt.formatInt__anon_2016+0x273>
   141c6:	0f b6 55 e3          	movzbl -0x1d(%ebp),%edx
   141ca:	8d 4d ed             	lea    -0x13(%ebp),%ecx
   141cd:	e8 2e 02 00 00       	call   14400 <fmt.digits2>
   141d2:	8b 45 9c             	mov    -0x64(%ebp),%eax
   141d5:	66 8b 4d ed          	mov    -0x13(%ebp),%cx
   141d9:	66 89 08             	mov    %cx,(%eax)
   141dc:	e9 e7 fe ff ff       	jmp    140c8 <fmt.formatInt__anon_2016+0x158>
   141e1:	eb e3                	jmp    141c6 <fmt.formatInt__anon_2016+0x256>
   141e3:	8b 4d a0             	mov    -0x60(%ebp),%ecx
   141e6:	ba 02 00 00 00       	mov    $0x2,%edx
   141eb:	e8 e0 d6 ff ff       	call   118d0 <builtin.panicOutOfBounds>
   141f0:	e9 06 fe ff ff       	jmp    13ffb <fmt.formatInt__anon_2016+0x8b>
   141f5:	8a 45 db             	mov    -0x25(%ebp),%al
   141f8:	8a 4d e3             	mov    -0x1d(%ebp),%cl
   141fb:	88 4d 9b             	mov    %cl,-0x65(%ebp)
   141fe:	3c 00                	cmp    $0x0,%al
   14200:	75 26                	jne    14228 <fmt.formatInt__anon_2016+0x2b8>
   14202:	eb 26                	jmp    1422a <fmt.formatInt__anon_2016+0x2ba>
   14204:	eb ef                	jmp    141f5 <fmt.formatInt__anon_2016+0x285>
   14206:	8a 4d db             	mov    -0x25(%ebp),%cl
   14209:	8a 45 9b             	mov    -0x65(%ebp),%al
   1420c:	66 0f b6 c0          	movzbw %al,%ax
   14210:	f6 f1                	div    %cl
   14212:	88 65 93             	mov    %ah,-0x6d(%ebp)
   14215:	88 65 ef             	mov    %ah,-0x11(%ebp)
   14218:	8b 45 e4             	mov    -0x1c(%ebp),%eax
   1421b:	83 e8 01             	sub    $0x1,%eax
   1421e:	89 45 94             	mov    %eax,-0x6c(%ebp)
   14221:	0f 92 c0             	setb   %al
   14224:	72 26                	jb     1424c <fmt.formatInt__anon_2016+0x2dc>
   14226:	eb 47                	jmp    1426f <fmt.formatInt__anon_2016+0x2ff>
   14228:	eb dc                	jmp    14206 <fmt.formatInt__anon_2016+0x296>
   1422a:	b9 48 be 03 00       	mov    $0x3be48,%ecx
   1422f:	ba 10 00 00 00       	mov    $0x10,%edx
   14234:	31 c0                	xor    %eax,%eax
   14236:	8d 05 48 b8 03 00    	lea    0x3b848,%eax
   1423c:	c7 04 24 00 00 00 00 	movl   $0x0,(%esp)
   14243:	89 44 24 04          	mov    %eax,0x4(%esp)
   14247:	e8 d4 d5 ff ff       	call   11820 <builtin.default_panic>
   1424c:	8d 0d 3b bc 03 00    	lea    0x3bc3b,%ecx
   14252:	ba 10 00 00 00       	mov    $0x10,%edx
   14257:	31 c0                	xor    %eax,%eax
   14259:	8d 05 48 b8 03 00    	lea    0x3b848,%eax
   1425f:	c7 04 24 00 00 00 00 	movl   $0x0,(%esp)
   14266:	89 44 24 04          	mov    %eax,0x4(%esp)
   1426a:	e8 b1 d5 ff ff       	call   11820 <builtin.default_panic>
   1426f:	8b 45 94             	mov    -0x6c(%ebp),%eax
   14272:	89 45 e4             	mov    %eax,-0x1c(%ebp)
   14275:	8b 45 e4             	mov    -0x1c(%ebp),%eax
   14278:	89 45 8c             	mov    %eax,-0x74(%ebp)
   1427b:	83 f8 02             	cmp    $0x2,%eax
   1427e:	72 2b                	jb     142ab <fmt.formatInt__anon_2016+0x33b>
   14280:	eb 2b                	jmp    142ad <fmt.formatInt__anon_2016+0x33d>
   14282:	8a 45 d8             	mov    -0x28(%ebp),%al
   14285:	8a 4d 93             	mov    -0x6d(%ebp),%cl
   14288:	0f b6 c9             	movzbl %cl,%ecx
   1428b:	0f b6 d0             	movzbl %al,%edx
   1428e:	e8 fd 01 00 00       	call   14490 <fmt.digitToChar>
   14293:	8b 4d 8c             	mov    -0x74(%ebp),%ecx
   14296:	88 c2                	mov    %al,%dl
   14298:	8a 45 db             	mov    -0x25(%ebp),%al
   1429b:	88 54 0d e1          	mov    %dl,-0x1f(%ebp,%ecx,1)
   1429f:	8a 4d e3             	mov    -0x1d(%ebp),%cl
   142a2:	88 4d 8b             	mov    %cl,-0x75(%ebp)
   142a5:	3c 00                	cmp    $0x0,%al
   142a7:	75 28                	jne    142d1 <fmt.formatInt__anon_2016+0x361>
   142a9:	eb 28                	jmp    142d3 <fmt.formatInt__anon_2016+0x363>
   142ab:	eb d5                	jmp    14282 <fmt.formatInt__anon_2016+0x312>
   142ad:	8b 4d 8c             	mov    -0x74(%ebp),%ecx
   142b0:	ba 02 00 00 00       	mov    $0x2,%edx
   142b5:	e8 16 d6 ff ff       	call   118d0 <builtin.panicOutOfBounds>
   142ba:	8a 4d db             	mov    -0x25(%ebp),%cl
   142bd:	8a 45 8b             	mov    -0x75(%ebp),%al
   142c0:	66 0f b6 c0          	movzbw %al,%ax
   142c4:	f6 f1                	div    %cl
   142c6:	88 45 e3             	mov    %al,-0x1d(%ebp)
   142c9:	80 7d e3 00          	cmpb   $0x0,-0x1d(%ebp)
   142cd:	74 2b                	je     142fa <fmt.formatInt__anon_2016+0x38a>
   142cf:	eb 2e                	jmp    142ff <fmt.formatInt__anon_2016+0x38f>
   142d1:	eb e7                	jmp    142ba <fmt.formatInt__anon_2016+0x34a>
   142d3:	b9 48 be 03 00       	mov    $0x3be48,%ecx
   142d8:	ba 10 00 00 00       	mov    $0x10,%edx
   142dd:	31 c0                	xor    %eax,%eax
   142df:	8d 05 48 b8 03 00    	lea    0x3b848,%eax
   142e5:	c7 04 24 00 00 00 00 	movl   $0x0,(%esp)
   142ec:	89 44 24 04          	mov    %eax,0x4(%esp)
   142f0:	e8 2b d5 ff ff       	call   11820 <builtin.default_panic>
   142f5:	e9 0a ff ff ff       	jmp    14204 <fmt.formatInt__anon_2016+0x294>
   142fa:	e9 f1 fe ff ff       	jmp    141f0 <fmt.formatInt__anon_2016+0x280>
   142ff:	eb f4                	jmp    142f5 <fmt.formatInt__anon_2016+0x385>
   14301:	8b 4d c4             	mov    -0x3c(%ebp),%ecx
   14304:	b8 02 00 00 00       	mov    $0x2,%eax
   14309:	29 c8                	sub    %ecx,%eax
   1430b:	89 45 84             	mov    %eax,-0x7c(%ebp)
   1430e:	eb 19                	jmp    14329 <fmt.formatInt__anon_2016+0x3b9>
   14310:	eb ef                	jmp    14301 <fmt.formatInt__anon_2016+0x391>
   14312:	8b 4d c4             	mov    -0x3c(%ebp),%ecx
   14315:	ba 02 00 00 00       	mov    $0x2,%edx
   1431a:	e8 81 d5 ff ff       	call   118a0 <builtin.panicStartGreaterThanEnd>
   1431f:	8b 45 c4             	mov    -0x3c(%ebp),%eax
   14322:	83 f8 02             	cmp    $0x2,%eax
   14325:	76 47                	jbe    1436e <fmt.formatInt__anon_2016+0x3fe>
   14327:	eb 47                	jmp    14370 <fmt.formatInt__anon_2016+0x400>
   14329:	eb f4                	jmp    1431f <fmt.formatInt__anon_2016+0x3af>
   1432b:	ba 02 00 00 00       	mov    $0x2,%edx
   14330:	89 d1                	mov    %edx,%ecx
   14332:	e8 99 d5 ff ff       	call   118d0 <builtin.panicOutOfBounds>
   14337:	8b 45 d0             	mov    -0x30(%ebp),%eax
   1433a:	8b 75 d4             	mov    -0x2c(%ebp),%esi
   1433d:	8b 4d cc             	mov    -0x34(%ebp),%ecx
   14340:	8b 55 c8             	mov    -0x38(%ebp),%edx
   14343:	8b 7d 84             	mov    -0x7c(%ebp),%edi
   14346:	89 7d f4             	mov    %edi,-0xc(%ebp)
   14349:	89 55 f0             	mov    %edx,-0x10(%ebp)
   1434c:	8b 55 f0             	mov    -0x10(%ebp),%edx
   1434f:	8b 7d f4             	mov    -0xc(%ebp),%edi
   14352:	89 3c 24             	mov    %edi,(%esp)
   14355:	89 74 24 04          	mov    %esi,0x4(%esp)
   14359:	89 44 24 08          	mov    %eax,0x8(%esp)
   1435d:	e8 7e f3 ff ff       	call   136e0 <fmt.formatBuf__anon_2017>
   14362:	66 89 45 82          	mov    %ax,-0x7e(%ebp)
   14366:	66 83 f8 00          	cmp    $0x0,%ax
   1436a:	74 11                	je     1437d <fmt.formatInt__anon_2016+0x40d>
   1436c:	eb 1d                	jmp    1438b <fmt.formatInt__anon_2016+0x41b>
   1436e:	eb c7                	jmp    14337 <fmt.formatInt__anon_2016+0x3c7>
   14370:	8b 4d c4             	mov    -0x3c(%ebp),%ecx
   14373:	ba 02 00 00 00       	mov    $0x2,%edx
   14378:	e8 53 d5 ff ff       	call   118d0 <builtin.panicOutOfBounds>
   1437d:	66 8b 45 82          	mov    -0x7e(%ebp),%ax
   14381:	81 c4 84 00 00 00    	add    $0x84,%esp
   14387:	5e                   	pop    %esi
   14388:	5f                   	pop    %edi
   14389:	5d                   	pop    %ebp
   1438a:	c3                   	ret
   1438b:	8b 4d cc             	mov    -0x34(%ebp),%ecx
   1438e:	e8 bd de ff ff       	call   12250 <builtin.returnError>
   14393:	66 8b 45 82          	mov    -0x7e(%ebp),%ax
   14397:	81 c4 84 00 00 00    	add    $0x84,%esp
   1439d:	5e                   	pop    %esi
   1439e:	5f                   	pop    %edi
   1439f:	5d                   	pop    %ebp
   143a0:	c3                   	ret
   143a1:	66 2e 0f 1f 84 00 00 	nopw   %cs:0x0(%eax,%eax,1)
   143a8:	00 00 00 
   143ab:	0f 1f 44 00 00       	nopl   0x0(%eax,%eax,1)

000143b0 <debug.assert>:
   143b0:	55                   	push   %ebp
   143b1:	89 e5                	mov    %esp,%ebp
   143b3:	83 ec 0c             	sub    $0xc,%esp
   143b6:	88 c8                	mov    %cl,%al
   143b8:	88 c1                	mov    %al,%cl
   143ba:	80 e1 01             	and    $0x1,%cl
   143bd:	88 4d ff             	mov    %cl,-0x1(%ebp)
   143c0:	34 ff                	xor    $0xff,%al
   143c2:	a8 01                	test   $0x1,%al
   143c4:	75 07                	jne    143cd <debug.assert+0x1d>
   143c6:	eb 27                	jmp    143ef <debug.assert+0x3f>
   143c8:	83 c4 0c             	add    $0xc,%esp
   143cb:	5d                   	pop    %ebp
   143cc:	c3                   	ret
   143cd:	b9 78 bc 03 00       	mov    $0x3bc78,%ecx
   143d2:	ba 18 00 00 00       	mov    $0x18,%edx
   143d7:	31 c0                	xor    %eax,%eax
   143d9:	8d 05 48 b8 03 00    	lea    0x3b848,%eax
   143df:	c7 04 24 00 00 00 00 	movl   $0x0,(%esp)
   143e6:	89 44 24 04          	mov    %eax,0x4(%esp)
   143ea:	e8 31 d4 ff ff       	call   11820 <builtin.default_panic>
   143ef:	eb d7                	jmp    143c8 <debug.assert+0x18>
   143f1:	66 2e 0f 1f 84 00 00 	nopw   %cs:0x0(%eax,%eax,1)
   143f8:	00 00 00 
   143fb:	0f 1f 44 00 00       	nopl   0x0(%eax,%eax,1)

00014400 <fmt.digits2>:
   14400:	55                   	push   %ebp
   14401:	89 e5                	mov    %esp,%ebp
   14403:	83 ec 20             	sub    $0x20,%esp
   14406:	89 d0                	mov    %edx,%eax
   14408:	89 4d f0             	mov    %ecx,-0x10(%ebp)
   1440b:	89 4d f4             	mov    %ecx,-0xc(%ebp)
   1440e:	89 45 fc             	mov    %eax,-0x4(%ebp)
   14411:	b9 02 00 00 00       	mov    $0x2,%ecx
   14416:	f7 e1                	mul    %ecx
   14418:	89 45 f8             	mov    %eax,-0x8(%ebp)
   1441b:	0f 90 c0             	seto   %al
   1441e:	70 02                	jo     14422 <fmt.digits2+0x22>
   14420:	eb 23                	jmp    14445 <fmt.digits2+0x45>
   14422:	8d 0d 3b bc 03 00    	lea    0x3bc3b,%ecx
   14428:	ba 10 00 00 00       	mov    $0x10,%edx
   1442d:	31 c0                	xor    %eax,%eax
   1442f:	8d 05 48 b8 03 00    	lea    0x3b848,%eax
   14435:	c7 04 24 00 00 00 00 	movl   $0x0,(%esp)
   1443c:	89 44 24 04          	mov    %eax,0x4(%esp)
   14440:	e8 db d3 ff ff       	call   11820 <builtin.default_panic>
   14445:	8b 45 f8             	mov    -0x8(%ebp),%eax
   14448:	8d 0d e4 ba 03 00    	lea    0x3bae4,%ecx
   1444e:	01 c1                	add    %eax,%ecx
   14450:	89 4d e8             	mov    %ecx,-0x18(%ebp)
   14453:	83 c0 02             	add    $0x2,%eax
   14456:	89 45 ec             	mov    %eax,-0x14(%ebp)
   14459:	3d c9 00 00 00       	cmp    $0xc9,%eax
   1445e:	76 16                	jbe    14476 <fmt.digits2+0x76>
   14460:	eb 16                	jmp    14478 <fmt.digits2+0x78>
   14462:	8b 45 f4             	mov    -0xc(%ebp),%eax
   14465:	8b 4d f0             	mov    -0x10(%ebp),%ecx
   14468:	8b 55 e8             	mov    -0x18(%ebp),%edx
   1446b:	66 8b 12             	mov    (%edx),%dx
   1446e:	66 89 11             	mov    %dx,(%ecx)
   14471:	83 c4 20             	add    $0x20,%esp
   14474:	5d                   	pop    %ebp
   14475:	c3                   	ret
   14476:	eb ea                	jmp    14462 <fmt.digits2+0x62>
   14478:	8b 4d ec             	mov    -0x14(%ebp),%ecx
   1447b:	ba c9 00 00 00       	mov    $0xc9,%edx
   14480:	e8 4b d4 ff ff       	call   118d0 <builtin.panicOutOfBounds>
   14485:	66 2e 0f 1f 84 00 00 	nopw   %cs:0x0(%eax,%eax,1)
   1448c:	00 00 00 
   1448f:	90                   	nop

00014490 <fmt.digitToChar>:
   14490:	55                   	push   %ebp
   14491:	89 e5                	mov    %esp,%ebp
   14493:	83 ec 14             	sub    $0x14,%esp
   14496:	88 d0                	mov    %dl,%al
   14498:	88 45 fc             	mov    %al,-0x4(%ebp)
   1449b:	88 4d fd             	mov    %cl,-0x3(%ebp)
   1449e:	88 4d fe             	mov    %cl,-0x2(%ebp)
   144a1:	24 01                	and    $0x1,%al
   144a3:	88 45 ff             	mov    %al,-0x1(%ebp)
   144a6:	eb 08                	jmp    144b0 <fmt.digitToChar+0x20>
   144a8:	8a 45 fb             	mov    -0x5(%ebp),%al
   144ab:	83 c4 14             	add    $0x14,%esp
   144ae:	5d                   	pop    %ebp
   144af:	c3                   	ret
   144b0:	8a 4d fd             	mov    -0x3(%ebp),%cl
   144b3:	80 f9 00             	cmp    $0x0,%cl
   144b6:	0f 93 c0             	setae  %al
   144b9:	80 f9 09             	cmp    $0x9,%cl
   144bc:	0f 96 c1             	setbe  %cl
   144bf:	20 c8                	and    %cl,%al
   144c1:	a8 01                	test   $0x1,%al
   144c3:	75 02                	jne    144c7 <fmt.digitToChar+0x37>
   144c5:	eb 11                	jmp    144d8 <fmt.digitToChar+0x48>
   144c7:	8a 45 fd             	mov    -0x3(%ebp),%al
   144ca:	04 30                	add    $0x30,%al
   144cc:	88 45 fa             	mov    %al,-0x6(%ebp)
   144cf:	0f 92 c0             	setb   %al
   144d2:	a8 01                	test   $0x1,%al
   144d4:	75 19                	jne    144ef <fmt.digitToChar+0x5f>
   144d6:	eb 3a                	jmp    14512 <fmt.digitToChar+0x82>
   144d8:	8a 4d fd             	mov    -0x3(%ebp),%cl
   144db:	80 f9 0a             	cmp    $0xa,%cl
   144de:	0f 93 c0             	setae  %al
   144e1:	80 f9 23             	cmp    $0x23,%cl
   144e4:	0f 96 c1             	setbe  %cl
   144e7:	20 c8                	and    %cl,%al
   144e9:	a8 01                	test   $0x1,%al
   144eb:	75 2d                	jne    1451a <fmt.digitToChar+0x8a>
   144ed:	eb 34                	jmp    14523 <fmt.digitToChar+0x93>
   144ef:	8d 0d 3b bc 03 00    	lea    0x3bc3b,%ecx
   144f5:	ba 10 00 00 00       	mov    $0x10,%edx
   144fa:	31 c0                	xor    %eax,%eax
   144fc:	8d 05 48 b8 03 00    	lea    0x3b848,%eax
   14502:	c7 04 24 00 00 00 00 	movl   $0x0,(%esp)
   14509:	89 44 24 04          	mov    %eax,0x4(%esp)
   1450d:	e8 0e d3 ff ff       	call   11820 <builtin.default_panic>
   14512:	8a 45 fa             	mov    -0x6(%ebp),%al
   14515:	88 45 fb             	mov    %al,-0x5(%ebp)
   14518:	eb 8e                	jmp    144a8 <fmt.digitToChar+0x18>
   1451a:	8a 45 fc             	mov    -0x4(%ebp),%al
   1451d:	a8 01                	test   $0x1,%al
   1451f:	75 35                	jne    14556 <fmt.digitToChar+0xc6>
   14521:	eb 3a                	jmp    1455d <fmt.digitToChar+0xcd>
   14523:	b9 78 bc 03 00       	mov    $0x3bc78,%ecx
   14528:	ba 18 00 00 00       	mov    $0x18,%edx
   1452d:	31 c0                	xor    %eax,%eax
   1452f:	8d 05 48 b8 03 00    	lea    0x3b848,%eax
   14535:	c7 04 24 00 00 00 00 	movl   $0x0,(%esp)
   1453c:	89 44 24 04          	mov    %eax,0x4(%esp)
   14540:	e8 db d2 ff ff       	call   11820 <builtin.default_panic>
   14545:	8a 45 f8             	mov    -0x8(%ebp),%al
   14548:	2c 0a                	sub    $0xa,%al
   1454a:	88 45 f9             	mov    %al,-0x7(%ebp)
   1454d:	0f 92 c0             	setb   %al
   14550:	a8 01                	test   $0x1,%al
   14552:	75 10                	jne    14564 <fmt.digitToChar+0xd4>
   14554:	eb 31                	jmp    14587 <fmt.digitToChar+0xf7>
   14556:	b0 41                	mov    $0x41,%al
   14558:	88 45 f8             	mov    %al,-0x8(%ebp)
   1455b:	eb e8                	jmp    14545 <fmt.digitToChar+0xb5>
   1455d:	b0 61                	mov    $0x61,%al
   1455f:	88 45 f8             	mov    %al,-0x8(%ebp)
   14562:	eb e1                	jmp    14545 <fmt.digitToChar+0xb5>
   14564:	8d 0d 3b bc 03 00    	lea    0x3bc3b,%ecx
   1456a:	ba 10 00 00 00       	mov    $0x10,%edx
   1456f:	31 c0                	xor    %eax,%eax
   14571:	8d 05 48 b8 03 00    	lea    0x3b848,%eax
   14577:	c7 04 24 00 00 00 00 	movl   $0x0,(%esp)
   1457e:	89 44 24 04          	mov    %eax,0x4(%esp)
   14582:	e8 99 d2 ff ff       	call   11820 <builtin.default_panic>
   14587:	8a 4d f9             	mov    -0x7(%ebp),%cl
   1458a:	8a 45 fd             	mov    -0x3(%ebp),%al
   1458d:	00 c8                	add    %cl,%al
   1458f:	88 45 f7             	mov    %al,-0x9(%ebp)
   14592:	0f 92 c0             	setb   %al
   14595:	a8 01                	test   $0x1,%al
   14597:	75 02                	jne    1459b <fmt.digitToChar+0x10b>
   14599:	eb 23                	jmp    145be <fmt.digitToChar+0x12e>
   1459b:	8d 0d 3b bc 03 00    	lea    0x3bc3b,%ecx
   145a1:	ba 10 00 00 00       	mov    $0x10,%edx
   145a6:	31 c0                	xor    %eax,%eax
   145a8:	8d 05 48 b8 03 00    	lea    0x3b848,%eax
   145ae:	c7 04 24 00 00 00 00 	movl   $0x0,(%esp)
   145b5:	89 44 24 04          	mov    %eax,0x4(%esp)
   145b9:	e8 62 d2 ff ff       	call   11820 <builtin.default_panic>
   145be:	8a 45 f7             	mov    -0x9(%ebp),%al
   145c1:	88 45 fb             	mov    %al,-0x5(%ebp)
   145c4:	e9 df fe ff ff       	jmp    144a8 <fmt.digitToChar+0x18>
   145c9:	0f 1f 80 00 00 00 00 	nopl   0x0(%eax)

000145d0 <fmt.formatIntValue__anon_2007>:
   145d0:	55                   	push   %ebp
   145d1:	89 e5                	mov    %esp,%ebp
   145d3:	57                   	push   %edi
   145d4:	56                   	push   %esi
   145d5:	83 ec 18             	sub    $0x18,%esp
   145d8:	89 d6                	mov    %edx,%esi
   145da:	89 4d f0             	mov    %ecx,-0x10(%ebp)
   145dd:	8b 45 08             	mov    0x8(%ebp),%eax
   145e0:	c6 45 f7 01          	movb   $0x1,-0x9(%ebp)
   145e4:	ba 01 00 00 00       	mov    $0x1,%edx
   145e9:	31 ff                	xor    %edi,%edi
   145eb:	c7 04 24 0a 00 00 00 	movl   $0xa,(%esp)
   145f2:	c7 44 24 04 00 00 00 	movl   $0x0,0x4(%esp)
   145f9:	00 
   145fa:	89 74 24 08          	mov    %esi,0x8(%esp)
   145fe:	89 44 24 0c          	mov    %eax,0xc(%esp)
   14602:	e8 69 f9 ff ff       	call   13f70 <fmt.formatInt__anon_2016>
   14607:	66 89 45 f4          	mov    %ax,-0xc(%ebp)
   1460b:	66 83 f8 00          	cmp    $0x0,%ax
   1460f:	75 0b                	jne    1461c <fmt.formatIntValue__anon_2007+0x4c>
   14611:	66 8b 45 f4          	mov    -0xc(%ebp),%ax
   14615:	83 c4 18             	add    $0x18,%esp
   14618:	5e                   	pop    %esi
   14619:	5f                   	pop    %edi
   1461a:	5d                   	pop    %ebp
   1461b:	c3                   	ret
   1461c:	8b 4d f0             	mov    -0x10(%ebp),%ecx
   1461f:	e8 2c dc ff ff       	call   12250 <builtin.returnError>
   14624:	66 8b 45 f4          	mov    -0xc(%ebp),%ax
   14628:	83 c4 18             	add    $0x18,%esp
   1462b:	5e                   	pop    %esi
   1462c:	5f                   	pop    %edi
   1462d:	5d                   	pop    %ebp
   1462e:	c3                   	ret
   1462f:	90                   	nop

00014630 <fmt.bufPrint__anon_2021>:
   14630:	55                   	push   %ebp
   14631:	89 e5                	mov    %esp,%ebp
   14633:	56                   	push   %esi
   14634:	83 ec 64             	sub    $0x64,%esp
   14637:	89 55 a4             	mov    %edx,-0x5c(%ebp)
   1463a:	89 4d a8             	mov    %ecx,-0x58(%ebp)
   1463d:	89 4d ac             	mov    %ecx,-0x54(%ebp)
   14640:	8b 45 10             	mov    0x10(%ebp),%eax
   14643:	89 45 b0             	mov    %eax,-0x50(%ebp)
   14646:	8b 75 0c             	mov    0xc(%ebp),%esi
   14649:	8b 4d 08             	mov    0x8(%ebp),%ecx
   1464c:	89 f0                	mov    %esi,%eax
   1464e:	89 ca                	mov    %ecx,%edx
   14650:	89 75 bc             	mov    %esi,-0x44(%ebp)
   14653:	89 4d b8             	mov    %ecx,-0x48(%ebp)
   14656:	8d 4d cc             	lea    -0x34(%ebp),%ecx
   14659:	89 04 24             	mov    %eax,(%esp)
   1465c:	e8 2f dd ff ff       	call   12390 <io.fixed_buffer_stream.fixedBufferStream__anon_1240>
   14661:	8b 45 cc             	mov    -0x34(%ebp),%eax
   14664:	89 45 c0             	mov    %eax,-0x40(%ebp)
   14667:	8b 45 d0             	mov    -0x30(%ebp),%eax
   1466a:	89 45 c4             	mov    %eax,-0x3c(%ebp)
   1466d:	8b 45 d4             	mov    -0x2c(%ebp),%eax
   14670:	89 45 c8             	mov    %eax,-0x38(%ebp)
   14673:	8d 4d d8             	lea    -0x28(%ebp),%ecx
   14676:	8d 55 c0             	lea    -0x40(%ebp),%edx
   14679:	e8 42 dd ff ff       	call   123c0 <io.fixed_buffer_stream.FixedBufferStream([]u8).writer>
   1467e:	8b 45 d8             	mov    -0x28(%ebp),%eax
   14681:	89 45 dc             	mov    %eax,-0x24(%ebp)
   14684:	8d 45 dc             	lea    -0x24(%ebp),%eax
   14687:	89 45 e0             	mov    %eax,-0x20(%ebp)
   1468a:	8d 45 dc             	lea    -0x24(%ebp),%eax
   1468d:	89 45 ec             	mov    %eax,-0x14(%ebp)
   14690:	8b 45 ec             	mov    -0x14(%ebp),%eax
   14693:	89 45 e4             	mov    %eax,-0x1c(%ebp)
   14696:	8d 05 d0 23 01 00    	lea    0x123d0,%eax
   1469c:	89 45 e8             	mov    %eax,-0x18(%ebp)
   1469f:	8d 45 e4             	lea    -0x1c(%ebp),%eax
   146a2:	89 45 b4             	mov    %eax,-0x4c(%ebp)
   146a5:	8b 45 b0             	mov    -0x50(%ebp),%eax
   146a8:	8b 4d a4             	mov    -0x5c(%ebp),%ecx
   146ab:	8b 55 b4             	mov    -0x4c(%ebp),%edx
   146ae:	89 04 24             	mov    %eax,(%esp)
   146b1:	e8 9a 11 00 00       	call   15850 <fmt.format__anon_2024>
   146b6:	66 89 45 a2          	mov    %ax,-0x5e(%ebp)
   146ba:	66 83 f8 00          	cmp    $0x0,%ax
   146be:	74 3d                	je     146fd <fmt.bufPrint__anon_2021+0xcd>
   146c0:	eb 3d                	jmp    146ff <fmt.bufPrint__anon_2021+0xcf>
   146c2:	8d 4d c0             	lea    -0x40(%ebp),%ecx
   146c5:	e8 06 de ff ff       	call   124d0 <io.fixed_buffer_stream.FixedBufferStream([]u8).getWritten>
   146ca:	8b 4d a8             	mov    -0x58(%ebp),%ecx
   146cd:	89 c6                	mov    %eax,%esi
   146cf:	8b 45 ac             	mov    -0x54(%ebp),%eax
   146d2:	89 75 9c             	mov    %esi,-0x64(%ebp)
   146d5:	89 d6                	mov    %edx,%esi
   146d7:	8b 55 9c             	mov    -0x64(%ebp),%edx
   146da:	66 c7 45 f8 00 00    	movw   $0x0,-0x8(%ebp)
   146e0:	89 75 f4             	mov    %esi,-0xc(%ebp)
   146e3:	89 55 f0             	mov    %edx,-0x10(%ebp)
   146e6:	8b 55 f0             	mov    -0x10(%ebp),%edx
   146e9:	89 11                	mov    %edx,(%ecx)
   146eb:	8b 55 f4             	mov    -0xc(%ebp),%edx
   146ee:	89 51 04             	mov    %edx,0x4(%ecx)
   146f1:	8b 55 f8             	mov    -0x8(%ebp),%edx
   146f4:	89 51 08             	mov    %edx,0x8(%ecx)
   146f7:	83 c4 64             	add    $0x64,%esp
   146fa:	5e                   	pop    %esi
   146fb:	5d                   	pop    %ebp
   146fc:	c3                   	ret
   146fd:	eb c3                	jmp    146c2 <fmt.bufPrint__anon_2021+0x92>
   146ff:	66 8b 45 a2          	mov    -0x5e(%ebp),%ax
   14703:	66 83 e8 01          	sub    $0x1,%ax
   14707:	74 11                	je     1471a <fmt.bufPrint__anon_2021+0xea>
   14709:	eb 00                	jmp    1470b <fmt.bufPrint__anon_2021+0xdb>
   1470b:	66 8b 45 a2          	mov    -0x5e(%ebp),%ax
   1470f:	8b 4d a4             	mov    -0x5c(%ebp),%ecx
   14712:	0f b7 d0             	movzwl %ax,%edx
   14715:	e8 76 dd ff ff       	call   12490 <builtin.panicUnwrapError>
   1471a:	8b 4d a4             	mov    -0x5c(%ebp),%ecx
   1471d:	e8 2e db ff ff       	call   12250 <builtin.returnError>
   14722:	8b 4d a8             	mov    -0x58(%ebp),%ecx
   14725:	8b 45 ac             	mov    -0x54(%ebp),%eax
   14728:	8b 15 b8 b2 03 00    	mov    0x3b2b8,%edx
   1472e:	89 11                	mov    %edx,(%ecx)
   14730:	8b 15 bc b2 03 00    	mov    0x3b2bc,%edx
   14736:	89 51 04             	mov    %edx,0x4(%ecx)
   14739:	8b 15 c0 b2 03 00    	mov    0x3b2c0,%edx
   1473f:	89 51 08             	mov    %edx,0x8(%ecx)
   14742:	83 c4 64             	add    $0x64,%esp
   14745:	5e                   	pop    %esi
   14746:	5d                   	pop    %ebp
   14747:	c3                   	ret
   14748:	0f 1f 84 00 00 00 00 	nopl   0x0(%eax,%eax,1)
   1474f:	00 

00014750 <fmt.formatValue__anon_2022>:
   14750:	55                   	push   %ebp
   14751:	89 e5                	mov    %esp,%ebp
   14753:	56                   	push   %esi
   14754:	83 ec 14             	sub    $0x14,%esp
   14757:	89 4d f0             	mov    %ecx,-0x10(%ebp)
   1475a:	8b 45 0c             	mov    0xc(%ebp),%eax
   1475d:	8b 75 08             	mov    0x8(%ebp),%esi
   14760:	89 55 f8             	mov    %edx,-0x8(%ebp)
   14763:	89 34 24             	mov    %esi,(%esp)
   14766:	89 44 24 04          	mov    %eax,0x4(%esp)
   1476a:	e8 b1 17 00 00       	call   15f20 <fmt.formatIntValue__anon_2026>
   1476f:	66 89 45 f6          	mov    %ax,-0xa(%ebp)
   14773:	66 83 f8 00          	cmp    $0x0,%ax
   14777:	75 0a                	jne    14783 <fmt.formatValue__anon_2022+0x33>
   14779:	66 8b 45 f6          	mov    -0xa(%ebp),%ax
   1477d:	83 c4 14             	add    $0x14,%esp
   14780:	5e                   	pop    %esi
   14781:	5d                   	pop    %ebp
   14782:	c3                   	ret
   14783:	8b 4d f0             	mov    -0x10(%ebp),%ecx
   14786:	e8 c5 da ff ff       	call   12250 <builtin.returnError>
   1478b:	66 8b 45 f6          	mov    -0xa(%ebp),%ax
   1478f:	83 c4 14             	add    $0x14,%esp
   14792:	5e                   	pop    %esi
   14793:	5d                   	pop    %ebp
   14794:	c3                   	ret
   14795:	66 2e 0f 1f 84 00 00 	nopw   %cs:0x0(%eax,%eax,1)
   1479c:	00 00 00 
   1479f:	90                   	nop

000147a0 <unicode.utf8Decode2>:
   147a0:	55                   	push   %ebp
   147a1:	89 e5                	mov    %esp,%ebp
   147a3:	56                   	push   %esi
   147a4:	83 ec 38             	sub    $0x38,%esp
   147a7:	89 55 d4             	mov    %edx,-0x2c(%ebp)
   147aa:	89 4d d8             	mov    %ecx,-0x28(%ebp)
   147ad:	89 4d dc             	mov    %ecx,-0x24(%ebp)
   147b0:	8b 55 0c             	mov    0xc(%ebp),%edx
   147b3:	8b 4d 08             	mov    0x8(%ebp),%ecx
   147b6:	89 d0                	mov    %edx,%eax
   147b8:	89 45 e4             	mov    %eax,-0x1c(%ebp)
   147bb:	89 ce                	mov    %ecx,%esi
   147bd:	89 75 e0             	mov    %esi,-0x20(%ebp)
   147c0:	89 55 ec             	mov    %edx,-0x14(%ebp)
   147c3:	89 4d e8             	mov    %ecx,-0x18(%ebp)
   147c6:	83 f8 02             	cmp    $0x2,%eax
   147c9:	0f 94 c0             	sete   %al
   147cc:	0f b6 c8             	movzbl %al,%ecx
   147cf:	e8 dc fb ff ff       	call   143b0 <debug.assert>
   147d4:	8b 4d e4             	mov    -0x1c(%ebp),%ecx
   147d7:	31 c0                	xor    %eax,%eax
   147d9:	39 c8                	cmp    %ecx,%eax
   147db:	72 21                	jb     147fe <unicode.utf8Decode2+0x5e>
   147dd:	eb 21                	jmp    14800 <unicode.utf8Decode2+0x60>
   147df:	8b 45 e0             	mov    -0x20(%ebp),%eax
   147e2:	8a 00                	mov    (%eax),%al
   147e4:	24 e0                	and    $0xe0,%al
   147e6:	3c c0                	cmp    $0xc0,%al
   147e8:	0f 94 c0             	sete   %al
   147eb:	0f b6 c8             	movzbl %al,%ecx
   147ee:	e8 bd fb ff ff       	call   143b0 <debug.assert>
   147f3:	8b 4d e4             	mov    -0x1c(%ebp),%ecx
   147f6:	31 c0                	xor    %eax,%eax
   147f8:	39 c8                	cmp    %ecx,%eax
   147fa:	72 2d                	jb     14829 <unicode.utf8Decode2+0x89>
   147fc:	eb 2d                	jmp    1482b <unicode.utf8Decode2+0x8b>
   147fe:	eb df                	jmp    147df <unicode.utf8Decode2+0x3f>
   14800:	8b 55 e4             	mov    -0x1c(%ebp),%edx
   14803:	31 c9                	xor    %ecx,%ecx
   14805:	e8 c6 d0 ff ff       	call   118d0 <builtin.panicOutOfBounds>
   1480a:	8b 4d e4             	mov    -0x1c(%ebp),%ecx
   1480d:	8b 45 e0             	mov    -0x20(%ebp),%eax
   14810:	0f b6 00             	movzbl (%eax),%eax
   14813:	83 e0 1f             	and    $0x1f,%eax
   14816:	66 89 45 f0          	mov    %ax,-0x10(%ebp)
   1481a:	c6 45 f2 00          	movb   $0x0,-0xe(%ebp)
   1481e:	b8 01 00 00 00       	mov    $0x1,%eax
   14823:	39 c8                	cmp    %ecx,%eax
   14825:	72 2a                	jb     14851 <unicode.utf8Decode2+0xb1>
   14827:	eb 2a                	jmp    14853 <unicode.utf8Decode2+0xb3>
   14829:	eb df                	jmp    1480a <unicode.utf8Decode2+0x6a>
   1482b:	8b 55 e4             	mov    -0x1c(%ebp),%edx
   1482e:	31 c9                	xor    %ecx,%ecx
   14830:	e8 9b d0 ff ff       	call   118d0 <builtin.panicOutOfBounds>
   14835:	8b 45 f0             	mov    -0x10(%ebp),%eax
   14838:	89 45 d0             	mov    %eax,-0x30(%ebp)
   1483b:	b0 01                	mov    $0x1,%al
   1483d:	84 c0                	test   %al,%al
   1483f:	75 6f                	jne    148b0 <unicode.utf8Decode2+0x110>
   14841:	eb 6f                	jmp    148b2 <unicode.utf8Decode2+0x112>
   14843:	8b 45 e0             	mov    -0x20(%ebp),%eax
   14846:	8a 40 01             	mov    0x1(%eax),%al
   14849:	24 c0                	and    $0xc0,%al
   1484b:	3c 80                	cmp    $0x80,%al
   1484d:	75 11                	jne    14860 <unicode.utf8Decode2+0xc0>
   1484f:	eb 34                	jmp    14885 <unicode.utf8Decode2+0xe5>
   14851:	eb f0                	jmp    14843 <unicode.utf8Decode2+0xa3>
   14853:	8b 55 e4             	mov    -0x1c(%ebp),%edx
   14856:	b9 01 00 00 00       	mov    $0x1,%ecx
   1485b:	e8 70 d0 ff ff       	call   118d0 <builtin.panicOutOfBounds>
   14860:	8b 4d d4             	mov    -0x2c(%ebp),%ecx
   14863:	e8 e8 d9 ff ff       	call   12250 <builtin.returnError>
   14868:	8b 4d d8             	mov    -0x28(%ebp),%ecx
   1486b:	8b 45 dc             	mov    -0x24(%ebp),%eax
   1486e:	8b 15 60 b7 03 00    	mov    0x3b760,%edx
   14874:	89 11                	mov    %edx,(%ecx)
   14876:	8b 15 64 b7 03 00    	mov    0x3b764,%edx
   1487c:	89 51 04             	mov    %edx,0x4(%ecx)
   1487f:	83 c4 38             	add    $0x38,%esp
   14882:	5e                   	pop    %esi
   14883:	5d                   	pop    %ebp
   14884:	c3                   	ret
   14885:	eb ae                	jmp    14835 <unicode.utf8Decode2+0x95>
   14887:	8b 4d e4             	mov    -0x1c(%ebp),%ecx
   1488a:	8b 45 d0             	mov    -0x30(%ebp),%eax
   1488d:	89 c2                	mov    %eax,%edx
   1488f:	c1 e2 06             	shl    $0x6,%edx
   14892:	66 89 55 f0          	mov    %dx,-0x10(%ebp)
   14896:	c1 e8 0a             	shr    $0xa,%eax
   14899:	83 e0 1f             	and    $0x1f,%eax
   1489c:	88 45 f2             	mov    %al,-0xe(%ebp)
   1489f:	8b 45 f0             	mov    -0x10(%ebp),%eax
   148a2:	89 45 cc             	mov    %eax,-0x34(%ebp)
   148a5:	b8 01 00 00 00       	mov    $0x1,%eax
   148aa:	39 c8                	cmp    %ecx,%eax
   148ac:	72 55                	jb     14903 <unicode.utf8Decode2+0x163>
   148ae:	eb 55                	jmp    14905 <unicode.utf8Decode2+0x165>
   148b0:	eb d5                	jmp    14887 <unicode.utf8Decode2+0xe7>
   148b2:	b9 cb bd 03 00       	mov    $0x3bdcb,%ecx
   148b7:	ba 2a 00 00 00       	mov    $0x2a,%edx
   148bc:	31 c0                	xor    %eax,%eax
   148be:	8d 05 48 b8 03 00    	lea    0x3b848,%eax
   148c4:	c7 04 24 00 00 00 00 	movl   $0x0,(%esp)
   148cb:	89 44 24 04          	mov    %eax,0x4(%esp)
   148cf:	e8 4c cf ff ff       	call   11820 <builtin.default_panic>
   148d4:	8b 4d cc             	mov    -0x34(%ebp),%ecx
   148d7:	8b 45 e0             	mov    -0x20(%ebp),%eax
   148da:	0f b6 50 01          	movzbl 0x1(%eax),%edx
   148de:	83 e2 3f             	and    $0x3f,%edx
   148e1:	89 c8                	mov    %ecx,%eax
   148e3:	09 d0                	or     %edx,%eax
   148e5:	c1 e9 10             	shr    $0x10,%ecx
   148e8:	83 e1 1f             	and    $0x1f,%ecx
   148eb:	88 4d f2             	mov    %cl,-0xe(%ebp)
   148ee:	66 89 45 f0          	mov    %ax,-0x10(%ebp)
   148f2:	8b 45 f0             	mov    -0x10(%ebp),%eax
   148f5:	25 ff ff 1f 00       	and    $0x1fffff,%eax
   148fa:	2d 80 00 00 00       	sub    $0x80,%eax
   148ff:	72 41                	jb     14942 <unicode.utf8Decode2+0x1a2>
   14901:	eb 64                	jmp    14967 <unicode.utf8Decode2+0x1c7>
   14903:	eb cf                	jmp    148d4 <unicode.utf8Decode2+0x134>
   14905:	8b 55 e4             	mov    -0x1c(%ebp),%edx
   14908:	b9 01 00 00 00       	mov    $0x1,%ecx
   1490d:	e8 be cf ff ff       	call   118d0 <builtin.panicOutOfBounds>
   14912:	8b 45 dc             	mov    -0x24(%ebp),%eax
   14915:	8b 4d d8             	mov    -0x28(%ebp),%ecx
   14918:	8b 55 f0             	mov    -0x10(%ebp),%edx
   1491b:	66 c7 45 f8 00 00    	movw   $0x0,-0x8(%ebp)
   14921:	66 89 d6             	mov    %dx,%si
   14924:	66 89 75 f4          	mov    %si,-0xc(%ebp)
   14928:	c1 ea 10             	shr    $0x10,%edx
   1492b:	83 e2 1f             	and    $0x1f,%edx
   1492e:	88 55 f6             	mov    %dl,-0xa(%ebp)
   14931:	8b 55 f4             	mov    -0xc(%ebp),%edx
   14934:	89 11                	mov    %edx,(%ecx)
   14936:	8b 55 f8             	mov    -0x8(%ebp),%edx
   14939:	89 51 04             	mov    %edx,0x4(%ecx)
   1493c:	83 c4 38             	add    $0x38,%esp
   1493f:	5e                   	pop    %esi
   14940:	5d                   	pop    %ebp
   14941:	c3                   	ret
   14942:	8b 4d d4             	mov    -0x2c(%ebp),%ecx
   14945:	e8 06 d9 ff ff       	call   12250 <builtin.returnError>
   1494a:	8b 4d d8             	mov    -0x28(%ebp),%ecx
   1494d:	8b 45 dc             	mov    -0x24(%ebp),%eax
   14950:	8b 15 98 ba 03 00    	mov    0x3ba98,%edx
   14956:	89 11                	mov    %edx,(%ecx)
   14958:	8b 15 9c ba 03 00    	mov    0x3ba9c,%edx
   1495e:	89 51 04             	mov    %edx,0x4(%ecx)
   14961:	83 c4 38             	add    $0x38,%esp
   14964:	5e                   	pop    %esi
   14965:	5d                   	pop    %ebp
   14966:	c3                   	ret
   14967:	eb a9                	jmp    14912 <unicode.utf8Decode2+0x172>
   14969:	0f 1f 80 00 00 00 00 	nopl   0x0(%eax)

00014970 <unicode.utf8Decode3>:
   14970:	55                   	push   %ebp
   14971:	89 e5                	mov    %esp,%ebp
   14973:	57                   	push   %edi
   14974:	56                   	push   %esi
   14975:	83 ec 40             	sub    $0x40,%esp
   14978:	89 55 c8             	mov    %edx,-0x38(%ebp)
   1497b:	89 4d cc             	mov    %ecx,-0x34(%ebp)
   1497e:	89 4d d0             	mov    %ecx,-0x30(%ebp)
   14981:	8b 7d 0c             	mov    0xc(%ebp),%edi
   14984:	8b 4d 08             	mov    0x8(%ebp),%ecx
   14987:	89 f8                	mov    %edi,%eax
   14989:	89 ce                	mov    %ecx,%esi
   1498b:	89 7d d8             	mov    %edi,-0x28(%ebp)
   1498e:	89 4d d4             	mov    %ecx,-0x2c(%ebp)
   14991:	8d 4d dc             	lea    -0x24(%ebp),%ecx
   14994:	89 34 24             	mov    %esi,(%esp)
   14997:	89 44 24 04          	mov    %eax,0x4(%esp)
   1499b:	e8 e0 15 00 00       	call   15f80 <unicode.utf8Decode3AllowSurrogateHalf>
   149a0:	66 83 7d e0 00       	cmpw   $0x0,-0x20(%ebp)
   149a5:	74 28                	je     149cf <unicode.utf8Decode3+0x5f>
   149a7:	8b 4d c8             	mov    -0x38(%ebp),%ecx
   149aa:	66 8b 45 e0          	mov    -0x20(%ebp),%ax
   149ae:	66 89 45 e8          	mov    %ax,-0x18(%ebp)
   149b2:	e8 99 d8 ff ff       	call   12250 <builtin.returnError>
   149b7:	8b 4d cc             	mov    -0x34(%ebp),%ecx
   149ba:	8b 45 d0             	mov    -0x30(%ebp),%eax
   149bd:	8b 55 e4             	mov    -0x1c(%ebp),%edx
   149c0:	89 11                	mov    %edx,(%ecx)
   149c2:	8b 55 e8             	mov    -0x18(%ebp),%edx
   149c5:	89 51 04             	mov    %edx,0x4(%ecx)
   149c8:	83 c4 40             	add    $0x40,%esp
   149cb:	5e                   	pop    %esi
   149cc:	5f                   	pop    %edi
   149cd:	5d                   	pop    %ebp
   149ce:	c3                   	ret
   149cf:	0f b6 4d de          	movzbl -0x22(%ebp),%ecx
   149d3:	c1 e1 10             	shl    $0x10,%ecx
   149d6:	0f b7 45 dc          	movzwl -0x24(%ebp),%eax
   149da:	09 c8                	or     %ecx,%eax
   149dc:	89 45 c4             	mov    %eax,-0x3c(%ebp)
   149df:	66 89 c1             	mov    %ax,%cx
   149e2:	66 89 4d ec          	mov    %cx,-0x14(%ebp)
   149e6:	89 c1                	mov    %eax,%ecx
   149e8:	c1 e9 10             	shr    $0x10,%ecx
   149eb:	88 4d ee             	mov    %cl,-0x12(%ebp)
   149ee:	2d ff d7 00 00       	sub    $0xd7ff,%eax
   149f3:	77 3c                	ja     14a31 <unicode.utf8Decode3+0xc1>
   149f5:	eb 4f                	jmp    14a46 <unicode.utf8Decode3+0xd6>
   149f7:	8b 45 d0             	mov    -0x30(%ebp),%eax
   149fa:	8b 4d cc             	mov    -0x34(%ebp),%ecx
   149fd:	8b 55 c4             	mov    -0x3c(%ebp),%edx
   14a00:	66 c7 45 f4 00 00    	movw   $0x0,-0xc(%ebp)
   14a06:	66 89 d6             	mov    %dx,%si
   14a09:	66 89 75 f0          	mov    %si,-0x10(%ebp)
   14a0d:	c1 ea 10             	shr    $0x10,%edx
   14a10:	83 e2 1f             	and    $0x1f,%edx
   14a13:	88 55 f2             	mov    %dl,-0xe(%ebp)
   14a16:	8b 55 f0             	mov    -0x10(%ebp),%edx
   14a19:	89 11                	mov    %edx,(%ecx)
   14a1b:	8b 55 f4             	mov    -0xc(%ebp),%edx
   14a1e:	89 51 04             	mov    %edx,0x4(%ecx)
   14a21:	83 c4 40             	add    $0x40,%esp
   14a24:	5e                   	pop    %esi
   14a25:	5f                   	pop    %edi
   14a26:	5d                   	pop    %ebp
   14a27:	c3                   	ret
   14a28:	8a 45 c3             	mov    -0x3d(%ebp),%al
   14a2b:	a8 01                	test   $0x1,%al
   14a2d:	75 1e                	jne    14a4d <unicode.utf8Decode3+0xdd>
   14a2f:	eb 42                	jmp    14a73 <unicode.utf8Decode3+0x103>
   14a31:	8b 45 c4             	mov    -0x3c(%ebp),%eax
   14a34:	25 ff ff 1f 00       	and    $0x1fffff,%eax
   14a39:	2d 00 e0 00 00       	sub    $0xe000,%eax
   14a3e:	0f 92 c0             	setb   %al
   14a41:	88 45 c3             	mov    %al,-0x3d(%ebp)
   14a44:	eb e2                	jmp    14a28 <unicode.utf8Decode3+0xb8>
   14a46:	31 c0                	xor    %eax,%eax
   14a48:	88 45 c3             	mov    %al,-0x3d(%ebp)
   14a4b:	eb db                	jmp    14a28 <unicode.utf8Decode3+0xb8>
   14a4d:	8b 4d c8             	mov    -0x38(%ebp),%ecx
   14a50:	e8 fb d7 ff ff       	call   12250 <builtin.returnError>
   14a55:	8b 4d cc             	mov    -0x34(%ebp),%ecx
   14a58:	8b 45 d0             	mov    -0x30(%ebp),%eax
   14a5b:	8b 15 d0 b6 03 00    	mov    0x3b6d0,%edx
   14a61:	89 11                	mov    %edx,(%ecx)
   14a63:	8b 15 d4 b6 03 00    	mov    0x3b6d4,%edx
   14a69:	89 51 04             	mov    %edx,0x4(%ecx)
   14a6c:	83 c4 40             	add    $0x40,%esp
   14a6f:	5e                   	pop    %esi
   14a70:	5f                   	pop    %edi
   14a71:	5d                   	pop    %ebp
   14a72:	c3                   	ret
   14a73:	eb 82                	jmp    149f7 <unicode.utf8Decode3+0x87>
   14a75:	66 2e 0f 1f 84 00 00 	nopw   %cs:0x0(%eax,%eax,1)
   14a7c:	00 00 00 
   14a7f:	90                   	nop

00014a80 <unicode.utf8Decode4>:
   14a80:	55                   	push   %ebp
   14a81:	89 e5                	mov    %esp,%ebp
   14a83:	56                   	push   %esi
   14a84:	83 ec 48             	sub    $0x48,%esp
   14a87:	89 55 d4             	mov    %edx,-0x2c(%ebp)
   14a8a:	89 4d d8             	mov    %ecx,-0x28(%ebp)
   14a8d:	89 4d dc             	mov    %ecx,-0x24(%ebp)
   14a90:	8b 55 0c             	mov    0xc(%ebp),%edx
   14a93:	8b 4d 08             	mov    0x8(%ebp),%ecx
   14a96:	89 d0                	mov    %edx,%eax
   14a98:	89 45 e4             	mov    %eax,-0x1c(%ebp)
   14a9b:	89 ce                	mov    %ecx,%esi
   14a9d:	89 75 e0             	mov    %esi,-0x20(%ebp)
   14aa0:	89 55 ec             	mov    %edx,-0x14(%ebp)
   14aa3:	89 4d e8             	mov    %ecx,-0x18(%ebp)
   14aa6:	83 f8 04             	cmp    $0x4,%eax
   14aa9:	0f 94 c0             	sete   %al
   14aac:	0f b6 c8             	movzbl %al,%ecx
   14aaf:	e8 fc f8 ff ff       	call   143b0 <debug.assert>
   14ab4:	8b 4d e4             	mov    -0x1c(%ebp),%ecx
   14ab7:	31 c0                	xor    %eax,%eax
   14ab9:	39 c8                	cmp    %ecx,%eax
   14abb:	72 21                	jb     14ade <unicode.utf8Decode4+0x5e>
   14abd:	eb 21                	jmp    14ae0 <unicode.utf8Decode4+0x60>
   14abf:	8b 45 e0             	mov    -0x20(%ebp),%eax
   14ac2:	8a 00                	mov    (%eax),%al
   14ac4:	24 f8                	and    $0xf8,%al
   14ac6:	3c f0                	cmp    $0xf0,%al
   14ac8:	0f 94 c0             	sete   %al
   14acb:	0f b6 c8             	movzbl %al,%ecx
   14ace:	e8 dd f8 ff ff       	call   143b0 <debug.assert>
   14ad3:	8b 4d e4             	mov    -0x1c(%ebp),%ecx
   14ad6:	31 c0                	xor    %eax,%eax
   14ad8:	39 c8                	cmp    %ecx,%eax
   14ada:	72 2d                	jb     14b09 <unicode.utf8Decode4+0x89>
   14adc:	eb 2d                	jmp    14b0b <unicode.utf8Decode4+0x8b>
   14ade:	eb df                	jmp    14abf <unicode.utf8Decode4+0x3f>
   14ae0:	8b 55 e4             	mov    -0x1c(%ebp),%edx
   14ae3:	31 c9                	xor    %ecx,%ecx
   14ae5:	e8 e6 cd ff ff       	call   118d0 <builtin.panicOutOfBounds>
   14aea:	8b 4d e4             	mov    -0x1c(%ebp),%ecx
   14aed:	8b 45 e0             	mov    -0x20(%ebp),%eax
   14af0:	0f b6 00             	movzbl (%eax),%eax
   14af3:	83 e0 07             	and    $0x7,%eax
   14af6:	66 89 45 f0          	mov    %ax,-0x10(%ebp)
   14afa:	c6 45 f2 00          	movb   $0x0,-0xe(%ebp)
   14afe:	b8 01 00 00 00       	mov    $0x1,%eax
   14b03:	39 c8                	cmp    %ecx,%eax
   14b05:	72 2a                	jb     14b31 <unicode.utf8Decode4+0xb1>
   14b07:	eb 2a                	jmp    14b33 <unicode.utf8Decode4+0xb3>
   14b09:	eb df                	jmp    14aea <unicode.utf8Decode4+0x6a>
   14b0b:	8b 55 e4             	mov    -0x1c(%ebp),%edx
   14b0e:	31 c9                	xor    %ecx,%ecx
   14b10:	e8 bb cd ff ff       	call   118d0 <builtin.panicOutOfBounds>
   14b15:	8b 45 f0             	mov    -0x10(%ebp),%eax
   14b18:	89 45 d0             	mov    %eax,-0x30(%ebp)
   14b1b:	b0 01                	mov    $0x1,%al
   14b1d:	84 c0                	test   %al,%al
   14b1f:	75 6f                	jne    14b90 <unicode.utf8Decode4+0x110>
   14b21:	eb 6f                	jmp    14b92 <unicode.utf8Decode4+0x112>
   14b23:	8b 45 e0             	mov    -0x20(%ebp),%eax
   14b26:	8a 40 01             	mov    0x1(%eax),%al
   14b29:	24 c0                	and    $0xc0,%al
   14b2b:	3c 80                	cmp    $0x80,%al
   14b2d:	75 11                	jne    14b40 <unicode.utf8Decode4+0xc0>
   14b2f:	eb 34                	jmp    14b65 <unicode.utf8Decode4+0xe5>
